 sodium

 Timestamp is 5e4f7360 (Fri Feb 21 00:06:24 2020)

 Preferred load address is 0000000180000000

 Start         Length     Name                   Class
 0001:00000000 0005b410H .text$mn                CODE
 0001:0005b410 00000020H .text$mn$00             CODE
 0001:0005b430 00001270H .text$x                 CODE
 0002:00000000 00000db0H .idata$5                DATA
 0002:00000db0 00000010H .00cfg                  DATA
 0002:00000dc0 00000008H .CRT$XCA                DATA
 0002:00000dc8 00000008H .CRT$XCU                DATA
 0002:00000dd0 00000008H .CRT$XCZ                DATA
 0002:00000dd8 00000008H .CRT$XIA                DATA
 0002:00000de0 00000018H .CRT$XIC                DATA
 0002:00000df8 00000008H .CRT$XIZ                DATA
 0002:00000e00 00000008H .CRT$XPA                DATA
 0002:00000e08 00000010H .CRT$XPX                DATA
 0002:00000e18 00000008H .CRT$XPXA               DATA
 0002:00000e20 00000008H .CRT$XPZ                DATA
 0002:00000e28 00000008H .CRT$XTA                DATA
 0002:00000e30 00000010H .CRT$XTZ                DATA
 0002:00000e40 00010cc0H .rdata                  DATA
 0002:00011b00 0000037cH .rdata$r                DATA
 0002:00011e7c 000003ccH .rdata$zzzdbg           DATA
 0002:00012248 00000008H .rtc$IAA                DATA
 0002:00012250 00000008H .rtc$IZZ                DATA
 0002:00012258 00000008H .rtc$TAA                DATA
 0002:00012260 00000010H .rtc$TZZ                DATA
 0002:00012270 00007790H .xdata                  DATA
 0002:00019a00 000002c4H .xdata$x                DATA
 0002:00019cc4 00000020H .didat$2                DATA
 0002:00019ce4 00000024H .didat$3                DATA
 0002:00019d08 00000128H .didat$4                DATA
 0002:00019e30 00000368H .didat$6                DATA
 0002:0001a198 00000128H .didat$7                DATA
 0002:0001a2c0 00000050H .edata                  DATA
 0002:0001a310 00000028H .idata$2                DATA
 0002:0001a338 00000018H .idata$3                DATA
 0002:0001a350 00000db0H .idata$4                DATA
 0002:0001b100 0000363eH .idata$6                DATA
 0003:00000000 00000928H .data                   DATA
 0003:00000928 000001d0H .data$r                 DATA
 0003:00000af8 00000128H .didat$5                DATA
 0003:00000c20 000011e8H .bss                    DATA
 0004:00000000 00002b20H .pdata                  DATA
 0005:00000000 00000080H .gfids$x                DATA
 0005:00000080 00000050H .gfids$y                DATA
 0006:00000000 00000060H .rsrc$01                DATA
 0006:00000060 00000180H .rsrc$02                DATA

  Address         Publics by Value              Rva+Base               Lib:Object

 0000:00000000       __guard_iat_table          0000000000000000     <absolute>
 0000:00000000       __guard_iat_count          0000000000000000     <absolute>
 0000:00000000       __guard_longjmp_table      0000000000000000     <absolute>
 0000:00000000       __guard_longjmp_count      0000000000000000     <absolute>
 0000:00000000       __guard_fids_count         0000000000000000     <absolute>
 0000:00000000       __dynamic_value_reloc_table 0000000000000000     <absolute>
 0000:00000000       ___safe_se_handler_table   0000000000000000     <absolute>
 0000:00000000       ___safe_se_handler_count   0000000000000000     <absolute>
 0000:00000000       __guard_fids_table         0000000000000000     <absolute>
 0000:00000100       __guard_flags              0000000000000100     <absolute>
 0000:00000000       __ImageBase                0000000180000000     <linker-defined>
 0001:00000000       ??0exception@stdext@@QEAA@AEBV01@@Z 0000000180001000 f i crypto_aead.obj
 0001:00000020       ?what@exception@stdext@@UEBAPEBDXZ 0000000180001020 f i crypto_aead.obj
 0001:00000040       _guard_check_icall_nop     0000000180001040 f i LIBCMT:guard_support.obj
 0001:00000040       __except_validate_context_record 0000000180001040 f i libvcruntime:jbcxrval.obj
 0001:00000040       ?_Doraise@exception@stdext@@MEBAXXZ 0000000180001040 f i crypto_aead.obj
 0001:00000050       ??_Gexception@stdext@@UEAAPEAXI@Z 0000000180001050 f i crypto_aead.obj
 0001:00000050       ??_Eexception@stdext@@UEAAPEAXI@Z 0000000180001050 f i * CIL library *:* CIL module *
 0001:00000080       ??1Error@Napi@@UEAA@XZ     0000000180001080 f i crypto_aead.obj
 0001:000000d0       ?Null@Env@Napi@@QEBA?AVValue@2@XZ 00000001800010d0 f i crypto_aead.obj
 0001:00000160       ?Type@Value@Napi@@QEBA?AW4napi_valuetype@@XZ 0000000180001160 f i crypto_aead.obj
 0001:000001e0       ?IsBuffer@Value@Napi@@QEBA_NXZ 00000001800011e0 f i crypto_aead.obj
 0001:00000260       ?New@Boolean@Napi@@SA?AV12@PEAUnapi_env__@@_N@Z 0000000180001260 f i crypto_aead.obj
 0001:000002f0       ?New@Number@Napi@@SA?AV12@PEAUnapi_env__@@N@Z 00000001800012f0 f i crypto_aead.obj
 0001:00000380       ?New@String@Napi@@SA?AV12@PEAUnapi_env__@@PEBD@Z 0000000180001380 f i crypto_aead.obj
 0001:00000420       ??BString@Napi@@QEBA?AV?$basic_string@DU?$char_traits@D@std@@V?$allocator@D@2@@std@@XZ 0000000180001420 f i crypto_aead.obj
 0001:00000440       ?Utf8Value@String@Napi@@QEBA?AV?$basic_string@DU?$char_traits@D@std@@V?$allocator@D@2@@std@@XZ 0000000180001440 f i crypto_aead.obj
 0001:00000620       ?New@Object@Napi@@SA?AV12@PEAUnapi_env__@@@Z 0000000180001620 f i crypto_aead.obj
 0001:000006b0       ?New@Error@Napi@@SA?AV12@PEAUnapi_env__@@@Z 00000001800016b0 f i crypto_aead.obj
 0001:00000850       ?New@Error@Napi@@SA?AV12@PEAUnapi_env__@@PEBD@Z 0000000180001850 f i crypto_aead.obj
 0001:00000890       ??_EError@Napi@@UEAAPEAXI@Z 0000000180001890 f i * CIL library *:* CIL module *
 0001:00000890       ??_GError@Napi@@UEAAPEAXI@Z 0000000180001890 f i crypto_aead.obj
 0001:00000900       ??0Error@Napi@@QEAA@PEAUnapi_env__@@PEAUnapi_value__@@@Z 0000000180001900 f i crypto_aead.obj
 0001:00000990       ??0Error@Napi@@QEAA@AEBV01@@Z 0000000180001990 f i crypto_aead.obj
 0001:000009f0       ?Message@Error@Napi@@QEBAAEBV?$basic_string@DU?$char_traits@D@std@@V?$allocator@D@2@@std@@XZ 00000001800019f0 f i crypto_aead.obj
 0001:00000af0       ?ThrowAsJavaScriptException@Error@Napi@@QEBAXXZ 0000000180001af0 f i crypto_aead.obj
 0001:00000c20       ?what@Error@Napi@@UEBAPEBDXZ 0000000180001c20 f i crypto_aead.obj
 0001:00000c40       ??0ObjectReference@Napi@@IEAA@AEBV01@@Z 0000000180001c40 f i crypto_aead.obj
 0001:00000c60       ?Get@ObjectReference@Napi@@QEBA?AVValue@2@PEBD@Z 0000000180001c60 f i crypto_aead.obj
 0001:00000e00       ??0CallbackInfo@Napi@@QEAA@PEAUnapi_env__@@PEAUnapi_callback_info__@@@Z 0000000180001e00 f i crypto_aead.obj
 0001:00000f30       ??1CallbackInfo@Napi@@QEAA@XZ 0000000180001f30 f i crypto_aead.obj
 0001:00000f40       ??ACallbackInfo@Napi@@QEBA?BVValue@1@_K@Z 0000000180001f40 f i crypto_aead.obj
 0001:00001000       ??1HandleScope@Napi@@QEAA@XZ 0000000180002000 f i crypto_aead.obj
 0001:00001040       ??1EscapableHandleScope@Napi@@QEAA@XZ 0000000180002040 f i crypto_aead.obj
 0001:00001080       ?bind_crypto_aead_aes256gcm_is_available_@@YA?AVValue@Napi@@AEBVCallbackInfo@2@@Z 0000000180002080 f   crypto_aead.obj
 0001:00001160       ?bind_crypto_aead_aes256gcm_beforenm_@@YA?AVValue@Napi@@AEBVCallbackInfo@2@@Z 0000000180002160 f   crypto_aead.obj
 0001:000013f0       ?bind_crypto_aead_aes256gcm_encrypt_afternm_@@YA?AVValue@Napi@@AEBVCallbackInfo@2@@Z 00000001800023f0 f   crypto_aead.obj
 0001:00001930       ?bind_crypto_aead_aes256gcm_decrypt_afternm_@@YA?AVValue@Napi@@AEBVCallbackInfo@2@@Z 0000000180002930 f   crypto_aead.obj
 0001:00001ec0       ?bind_crypto_aead_aes256gcm_encrypt_detached_afternm_@@YA?AVValue@Napi@@AEBVCallbackInfo@2@@Z 0000000180002ec0 f   crypto_aead.obj
 0001:000024e0       ?bind_crypto_aead_aes256gcm_decrypt_detached_afternm_@@YA?AVValue@Napi@@AEBVCallbackInfo@2@@Z 00000001800034e0 f   crypto_aead.obj
 0001:00002b00       ?bind_crypto_aead_aes256gcm_encrypt_@@YA?AVValue@Napi@@AEBVCallbackInfo@2@@Z 0000000180003b00 f   crypto_aead.obj
 0001:00003000       ?bind_crypto_aead_aes256gcm_decrypt_@@YA?AVValue@Napi@@AEBVCallbackInfo@2@@Z 0000000180004000 f   crypto_aead.obj
 0001:00003580       ?bind_crypto_aead_aes256gcm_keygen_@@YA?AVValue@Napi@@AEBVCallbackInfo@2@@Z 0000000180004580 f   crypto_aead.obj
 0001:00003660       ?bind_crypto_aead_aes256gcm_encrypt_detached_@@YA?AVValue@Napi@@AEBVCallbackInfo@2@@Z 0000000180004660 f   crypto_aead.obj
 0001:00003c70       ?bind_crypto_aead_aes256gcm_decrypt_detached_@@YA?AVValue@Napi@@AEBVCallbackInfo@2@@Z 0000000180004c70 f   crypto_aead.obj
 0001:00004280       ?bind_crypto_aead_aes256gcm_abytes_@@YA?AVValue@Napi@@AEBVCallbackInfo@2@@Z 0000000180005280 f   crypto_aead.obj
 0001:00004330       ?bind_crypto_aead_aes256gcm_keybytes_@@YA?AVValue@Napi@@AEBVCallbackInfo@2@@Z 0000000180005330 f   crypto_aead.obj
 0001:000043e0       ?bind_crypto_aead_aes256gcm_npubbytes_@@YA?AVValue@Napi@@AEBVCallbackInfo@2@@Z 00000001800053e0 f   crypto_aead.obj
 0001:00004490       ?bind_crypto_aead_aes256gcm_nsecbytes_@@YA?AVValue@Napi@@AEBVCallbackInfo@2@@Z 0000000180005490 f   crypto_aead.obj
 0001:00004540       ?bind_crypto_aead_aes256gcm_messagebytes_max_@@YA?AVValue@Napi@@AEBVCallbackInfo@2@@Z 0000000180005540 f   crypto_aead.obj
 0001:000045f0       ?bind_crypto_aead_chacha20poly1305_encrypt_@@YA?AVValue@Napi@@AEBVCallbackInfo@2@@Z 00000001800055f0 f   crypto_aead.obj
 0001:00004af0       ?bind_crypto_aead_chacha20poly1305_decrypt_@@YA?AVValue@Napi@@AEBVCallbackInfo@2@@Z 0000000180005af0 f   crypto_aead.obj
 0001:00005070       ?bind_crypto_aead_chacha20poly1305_keygen_@@YA?AVValue@Napi@@AEBVCallbackInfo@2@@Z 0000000180006070 f   crypto_aead.obj
 0001:00005150       ?bind_crypto_aead_chacha20poly1305_encrypt_detached_@@YA?AVValue@Napi@@AEBVCallbackInfo@2@@Z 0000000180006150 f   crypto_aead.obj
 0001:00005760       ?bind_crypto_aead_chacha20poly1305_decrypt_detached_@@YA?AVValue@Napi@@AEBVCallbackInfo@2@@Z 0000000180006760 f   crypto_aead.obj
 0001:00005d70       ?bind_crypto_aead_chacha20poly1305_abytes_@@YA?AVValue@Napi@@AEBVCallbackInfo@2@@Z 0000000180006d70 f   crypto_aead.obj
 0001:00005e20       ?bind_crypto_aead_chacha20poly1305_keybytes_@@YA?AVValue@Napi@@AEBVCallbackInfo@2@@Z 0000000180006e20 f   crypto_aead.obj
 0001:00005ed0       ?bind_crypto_aead_chacha20poly1305_npubbytes_@@YA?AVValue@Napi@@AEBVCallbackInfo@2@@Z 0000000180006ed0 f   crypto_aead.obj
 0001:00005f80       ?bind_crypto_aead_chacha20poly1305_nsecbytes_@@YA?AVValue@Napi@@AEBVCallbackInfo@2@@Z 0000000180006f80 f   crypto_aead.obj
 0001:00006030       ?bind_crypto_aead_chacha20poly1305_messagebytes_max_@@YA?AVValue@Napi@@AEBVCallbackInfo@2@@Z 0000000180007030 f   crypto_aead.obj
 0001:000060e0       ?bind_crypto_aead_chacha20poly1305_ietf_encrypt_@@YA?AVValue@Napi@@AEBVCallbackInfo@2@@Z 00000001800070e0 f   crypto_aead.obj
 0001:000065e0       ?bind_crypto_aead_chacha20poly1305_ietf_decrypt_@@YA?AVValue@Napi@@AEBVCallbackInfo@2@@Z 00000001800075e0 f   crypto_aead.obj
 0001:00006b60       ?bind_crypto_aead_chacha20poly1305_ietf_keygen_@@YA?AVValue@Napi@@AEBVCallbackInfo@2@@Z 0000000180007b60 f   crypto_aead.obj
 0001:00006c40       ?bind_crypto_aead_chacha20poly1305_ietf_encrypt_detached_@@YA?AVValue@Napi@@AEBVCallbackInfo@2@@Z 0000000180007c40 f   crypto_aead.obj
 0001:00007250       ?bind_crypto_aead_chacha20poly1305_ietf_decrypt_detached_@@YA?AVValue@Napi@@AEBVCallbackInfo@2@@Z 0000000180008250 f   crypto_aead.obj
 0001:00007860       ?bind_crypto_aead_chacha20poly1305_ietf_abytes_@@YA?AVValue@Napi@@AEBVCallbackInfo@2@@Z 0000000180008860 f   crypto_aead.obj
 0001:00007910       ?bind_crypto_aead_chacha20poly1305_ietf_keybytes_@@YA?AVValue@Napi@@AEBVCallbackInfo@2@@Z 0000000180008910 f   crypto_aead.obj
 0001:000079c0       ?bind_crypto_aead_chacha20poly1305_ietf_npubbytes_@@YA?AVValue@Napi@@AEBVCallbackInfo@2@@Z 00000001800089c0 f   crypto_aead.obj
 0001:00007a70       ?bind_crypto_aead_chacha20poly1305_ietf_nsecbytes_@@YA?AVValue@Napi@@AEBVCallbackInfo@2@@Z 0000000180008a70 f   crypto_aead.obj
 0001:00007b20       ?bind_crypto_aead_chacha20poly1305_ietf_messagebytes_max_@@YA?AVValue@Napi@@AEBVCallbackInfo@2@@Z 0000000180008b20 f   crypto_aead.obj
 0001:00007bd0       ?bind_crypto_aead_xchacha20poly1305_ietf_encrypt_@@YA?AVValue@Napi@@AEBVCallbackInfo@2@@Z 0000000180008bd0 f   crypto_aead.obj
 0001:000080d0       ?bind_crypto_aead_xchacha20poly1305_ietf_decrypt_@@YA?AVValue@Napi@@AEBVCallbackInfo@2@@Z 00000001800090d0 f   crypto_aead.obj
 0001:00008650       ?bind_crypto_aead_xchacha20poly1305_ietf_keygen_@@YA?AVValue@Napi@@AEBVCallbackInfo@2@@Z 0000000180009650 f   crypto_aead.obj
 0001:00008730       ?bind_crypto_aead_xchacha20poly1305_ietf_encrypt_detached_@@YA?AVValue@Napi@@AEBVCallbackInfo@2@@Z 0000000180009730 f   crypto_aead.obj
 0001:00008d40       ?bind_crypto_aead_xchacha20poly1305_ietf_decrypt_detached_@@YA?AVValue@Napi@@AEBVCallbackInfo@2@@Z 0000000180009d40 f   crypto_aead.obj
 0001:00009350       ?bind_crypto_aead_xchacha20poly1305_ietf_abytes_@@YA?AVValue@Napi@@AEBVCallbackInfo@2@@Z 000000018000a350 f   crypto_aead.obj
 0001:00009400       ?bind_crypto_aead_xchacha20poly1305_ietf_keybytes_@@YA?AVValue@Napi@@AEBVCallbackInfo@2@@Z 000000018000a400 f   crypto_aead.obj
 0001:000094b0       ?bind_crypto_aead_xchacha20poly1305_ietf_npubbytes_@@YA?AVValue@Napi@@AEBVCallbackInfo@2@@Z 000000018000a4b0 f   crypto_aead.obj
 0001:00009560       ?bind_crypto_aead_xchacha20poly1305_ietf_nsecbytes_@@YA?AVValue@Napi@@AEBVCallbackInfo@2@@Z 000000018000a560 f   crypto_aead.obj
 0001:00009610       ?bind_crypto_aead_xchacha20poly1305_ietf_messagebytes_max_@@YA?AVValue@Napi@@AEBVCallbackInfo@2@@Z 000000018000a610 f   crypto_aead.obj
 0001:000096c0       ?register_crypto_aead@@YAXVEnv@Napi@@VObject@2@@Z 000000018000a6c0 f   crypto_aead.obj
 0001:0000c280       ??1?$basic_string@DU?$char_traits@D@std@@V?$allocator@D@2@@std@@QEAA@XZ 000000018000d280 f i crypto_aead.obj
 0001:0000c310       ??4?$basic_string@DU?$char_traits@D@std@@V?$allocator@D@2@@std@@QEAAAEAV01@$$QEAV01@@Z 000000018000d310 f i crypto_aead.obj
 0001:0000c3c0       ?_Tidy@?$basic_string@DU?$char_traits@D@std@@V?$allocator@D@2@@std@@QEAAX_N_K@Z 000000018000d3c0 f i crypto_aead.obj
 0001:0000c470       ?_Assign_rv@?$basic_string@DU?$char_traits@D@std@@V?$allocator@D@2@@std@@QEAAX$$QEAV12@@Z 000000018000d470 f i crypto_aead.obj
 0001:0000c4f0       ?_Copy@?$basic_string@DU?$char_traits@D@std@@V?$allocator@D@2@@std@@QEAAX_K0@Z 000000018000d4f0 f i crypto_aead.obj
 0001:0000c670       ?append@?$basic_string@DU?$char_traits@D@std@@V?$allocator@D@2@@std@@QEAAAEAV12@_KD@Z 000000018000d670 f i crypto_aead.obj
 0001:0000c790       ??0?$Reference@VObject@Napi@@@Napi@@IEAA@AEBV01@@Z 000000018000d790 f i crypto_aead.obj
 0001:0000c8e0       ??$New@VError@Napi@@@Error@Napi@@KA?AV01@PEAUnapi_env__@@PEBD_KP6A?AW4napi_status@@0PEAUnapi_value__@@3PEAPEAU4@@Z@Z 000000018000d8e0 f i crypto_aead.obj
 0001:0000c9b0       ?New@?$Buffer@E@Napi@@SA?AV12@PEAUnapi_env__@@_K@Z 000000018000d9b0 f i crypto_aead.obj
 0001:0000ca60       ??$New@P6A?AVValue@Napi@@AEBVCallbackInfo@2@@Z@Function@Napi@@SA?AV01@PEAUnapi_env__@@P6A?AVValue@1@AEBVCallbackInfo@1@@ZPEBDPEAX@Z 000000018000da60 f i crypto_aead.obj
 0001:0000cb50       ?Wrapper@?$CallbackData@P6A?AVValue@Napi@@AEBVCallbackInfo@2@@ZV12@@details@Napi@@SAPEAUnapi_value__@@PEAUnapi_env__@@PEAUnapi_callback_info__@@@Z 000000018000db50 f i crypto_aead.obj
 0001:0000cc10       ?EnsureInfo@?$Buffer@E@Napi@@AEBAXXZ 000000018000dc10 f i crypto_aead.obj
 0001:0000cca0       ??$WrapCallback@V<lambda_4b130013be4a466940e6fe08d32cda83>@@@details@Napi@@YAPEAUnapi_value__@@V<lambda_4b130013be4a466940e6fe08d32cda83>@@@Z 000000018000dca0 f i crypto_aead.obj
 0001:0000ccd0       ??0?$TypedArrayOf@E@Napi@@QEAA@PEAUnapi_env__@@PEAUnapi_value__@@@Z 000000018000dcd0 f i crypto_aead.obj
 0001:0000ce40       ?register_crypto_sign@@YAXVEnv@Napi@@VObject@2@@Z 000000018000de40 f   crypto_sign.obj
 0001:0000d710       ?bind_crypto_sign_ed25519_pk_to_curve25519_@@YA?AVValue@Napi@@AEBVCallbackInfo@2@@Z 000000018000e710 f   crypto_sign_ed25519.obj
 0001:0000d9c0       ?bind_crypto_sign_ed25519_sk_to_curve25519_@@YA?AVValue@Napi@@AEBVCallbackInfo@2@@Z 000000018000e9c0 f   crypto_sign_ed25519.obj
 0001:0000dc70       ?bind_crypto_sign_ed25519_@@YA?AVValue@Napi@@AEBVCallbackInfo@2@@Z 000000018000ec70 f   crypto_sign_ed25519.obj
 0001:0000dfa0       ?bind_crypto_sign_ed25519_open_@@YA?AVValue@Napi@@AEBVCallbackInfo@2@@Z 000000018000efa0 f   crypto_sign_ed25519.obj
 0001:0000e300       ?bind_crypto_sign_ed25519_detached_@@YA?AVValue@Napi@@AEBVCallbackInfo@2@@Z 000000018000f300 f   crypto_sign_ed25519.obj
 0001:0000e630       ?bind_crypto_sign_ed25519_verify_detached_@@YA?AVValue@Napi@@AEBVCallbackInfo@2@@Z 000000018000f630 f   crypto_sign_ed25519.obj
 0001:0000e9f0       ?bind_crypto_sign_ed25519_keypair_@@YA?AVValue@Napi@@AEBVCallbackInfo@2@@Z 000000018000f9f0 f   crypto_sign_ed25519.obj
 0001:0000ecd0       ?bind_crypto_sign_ed25519_seed_keypair_@@YA?AVValue@Napi@@AEBVCallbackInfo@2@@Z 000000018000fcd0 f   crypto_sign_ed25519.obj
 0001:0000f050       ?bind_crypto_sign_ed25519_sk_to_seed_@@YA?AVValue@Napi@@AEBVCallbackInfo@2@@Z 0000000180010050 f   crypto_sign_ed25519.obj
 0001:0000f2e0       ?bind_crypto_sign_ed25519_sk_to_pk_@@YA?AVValue@Napi@@AEBVCallbackInfo@2@@Z 00000001800102e0 f   crypto_sign_ed25519.obj
 0001:0000f570       ?register_crypto_sign_ed25519@@YAXVEnv@Napi@@VObject@2@@Z 0000000180010570 f   crypto_sign_ed25519.obj
 0001:0000ff80       ?bind_crypto_box_@@YA?AVValue@Napi@@AEBVCallbackInfo@2@@Z 0000000180010f80 f   crypto_box.obj
 0001:000104b0       ?bind_crypto_box_easy_@@YA?AVValue@Napi@@AEBVCallbackInfo@2@@Z 00000001800114b0 f   crypto_box.obj
 0001:00010990       ?bind_crypto_box_keypair_@@YA?AVValue@Napi@@AEBVCallbackInfo@2@@Z 0000000180011990 f   crypto_box.obj
 0001:00010c70       ?bind_crypto_box_open_@@YA?AVValue@Napi@@AEBVCallbackInfo@2@@Z 0000000180011c70 f   crypto_box.obj
 0001:00011220       ?bind_crypto_box_open_easy_@@YA?AVValue@Napi@@AEBVCallbackInfo@2@@Z 0000000180012220 f   crypto_box.obj
 0001:00011730       ?bind_crypto_box_beforenm_@@YA?AVValue@Napi@@AEBVCallbackInfo@2@@Z 0000000180012730 f   crypto_box.obj
 0001:00011a70       ?bind_crypto_box_afternm_@@YA?AVValue@Napi@@AEBVCallbackInfo@2@@Z 0000000180012a70 f   crypto_box.obj
 0001:00011ee0       ?bind_crypto_box_open_afternm_@@YA?AVValue@Napi@@AEBVCallbackInfo@2@@Z 0000000180012ee0 f   crypto_box.obj
 0001:00012370       ?bind_crypto_box_detached_@@YA?AVValue@Napi@@AEBVCallbackInfo@2@@Z 0000000180013370 f   crypto_box.obj
 0001:00012960       ?bind_crypto_box_open_detached_@@YA?AVValue@Napi@@AEBVCallbackInfo@2@@Z 0000000180013960 f   crypto_box.obj
 0001:00012f10       ?bind_crypto_box_seal_@@YA?AVValue@Napi@@AEBVCallbackInfo@2@@Z 0000000180013f10 f   crypto_box.obj
 0001:00013240       ?bind_crypto_box_seal_open_@@YA?AVValue@Napi@@AEBVCallbackInfo@2@@Z 0000000180014240 f   crypto_box.obj
 0001:00013620       ?bind_crypto_box_seed_keypair_@@YA?AVValue@Napi@@AEBVCallbackInfo@2@@Z 0000000180014620 f   crypto_box.obj
 0001:000139a0       ?bind_crypto_box_detached_afternm_@@YA?AVValue@Napi@@AEBVCallbackInfo@2@@Z 00000001800149a0 f   crypto_box.obj
 0001:00013ec0       ?bind_crypto_box_open_detached_afternm_@@YA?AVValue@Napi@@AEBVCallbackInfo@2@@Z 0000000180014ec0 f   crypto_box.obj
 0001:000143a0       ?bind_crypto_box_easy_afternm_@@YA?AVValue@Napi@@AEBVCallbackInfo@2@@Z 00000001800153a0 f   crypto_box.obj
 0001:000147b0       ?bind_crypto_box_open_easy_afternm_@@YA?AVValue@Napi@@AEBVCallbackInfo@2@@Z 00000001800157b0 f   crypto_box.obj
 0001:00014bb0       ?bind_crypto_box_noncebytes_@@YA?AVValue@Napi@@AEBVCallbackInfo@2@@Z 0000000180015bb0 f   crypto_box.obj
 0001:00014c60       ?bind_crypto_box_macbytes_@@YA?AVValue@Napi@@AEBVCallbackInfo@2@@Z 0000000180015c60 f   crypto_box.obj
 0001:00014d10       ?bind_crypto_box_beforenmbytes_@@YA?AVValue@Napi@@AEBVCallbackInfo@2@@Z 0000000180015d10 f   crypto_box.obj
 0001:00014dc0       ?bind_crypto_box_boxzerobytes_@@YA?AVValue@Napi@@AEBVCallbackInfo@2@@Z 0000000180015dc0 f   crypto_box.obj
 0001:00014e70       ?bind_crypto_box_publickeybytes_@@YA?AVValue@Napi@@AEBVCallbackInfo@2@@Z 0000000180015e70 f   crypto_box.obj
 0001:00014f20       ?bind_crypto_box_secretkeybytes_@@YA?AVValue@Napi@@AEBVCallbackInfo@2@@Z 0000000180015f20 f   crypto_box.obj
 0001:00014fd0       ?bind_crypto_box_zerobytes_@@YA?AVValue@Napi@@AEBVCallbackInfo@2@@Z 0000000180015fd0 f   crypto_box.obj
 0001:00015080       ?bind_crypto_box_seedbytes_@@YA?AVValue@Napi@@AEBVCallbackInfo@2@@Z 0000000180016080 f   crypto_box.obj
 0001:00015130       ?bind_crypto_box_sealbytes_@@YA?AVValue@Napi@@AEBVCallbackInfo@2@@Z 0000000180016130 f   crypto_box.obj
 0001:000151e0       ?bind_crypto_box_messagebytes_max_@@YA?AVValue@Napi@@AEBVCallbackInfo@2@@Z 00000001800161e0 f   crypto_box.obj
 0001:00015290       ?bind_crypto_box_primitive_@@YA?AVValue@Napi@@AEBVCallbackInfo@2@@Z 0000000180016290 f   crypto_box.obj
 0001:00015340       ?register_crypto_box@@YAXVEnv@Napi@@VObject@2@@Z 0000000180016340 f   crypto_box.obj
 0001:00016f60       ?bind_crypto_box_curve25519xsalsa20poly1305_@@YA?AVValue@Napi@@AEBVCallbackInfo@2@@Z 0000000180017f60 f   crypto_box_curve25519xsalsa20poly1305.obj
 0001:00017490       ?bind_crypto_box_curve25519xsalsa20poly1305_keypair_@@YA?AVValue@Napi@@AEBVCallbackInfo@2@@Z 0000000180018490 f   crypto_box_curve25519xsalsa20poly1305.obj
 0001:00017770       ?bind_crypto_box_curve25519xsalsa20poly1305_open_@@YA?AVValue@Napi@@AEBVCallbackInfo@2@@Z 0000000180018770 f   crypto_box_curve25519xsalsa20poly1305.obj
 0001:00017d20       ?bind_crypto_box_curve25519xsalsa20poly1305_beforenm_@@YA?AVValue@Napi@@AEBVCallbackInfo@2@@Z 0000000180018d20 f   crypto_box_curve25519xsalsa20poly1305.obj
 0001:00018080       ?bind_crypto_box_curve25519xsalsa20poly1305_afternm_@@YA?AVValue@Napi@@AEBVCallbackInfo@2@@Z 0000000180019080 f   crypto_box_curve25519xsalsa20poly1305.obj
 0001:000184f0       ?bind_crypto_box_curve25519xsalsa20poly1305_open_afternm_@@YA?AVValue@Napi@@AEBVCallbackInfo@2@@Z 00000001800194f0 f   crypto_box_curve25519xsalsa20poly1305.obj
 0001:00018980       ?bind_crypto_box_curve25519xsalsa20poly1305_noncebytes_@@YA?AVValue@Napi@@AEBVCallbackInfo@2@@Z 0000000180019980 f   crypto_box_curve25519xsalsa20poly1305.obj
 0001:00018a30       ?bind_crypto_box_curve25519xsalsa20poly1305_macbytes_@@YA?AVValue@Napi@@AEBVCallbackInfo@2@@Z 0000000180019a30 f   crypto_box_curve25519xsalsa20poly1305.obj
 0001:00018ae0       ?bind_crypto_box_curve25519xsalsa20poly1305_beforenmbytes_@@YA?AVValue@Napi@@AEBVCallbackInfo@2@@Z 0000000180019ae0 f   crypto_box_curve25519xsalsa20poly1305.obj
 0001:00018b90       ?bind_crypto_box_curve25519xsalsa20poly1305_boxzerobytes_@@YA?AVValue@Napi@@AEBVCallbackInfo@2@@Z 0000000180019b90 f   crypto_box_curve25519xsalsa20poly1305.obj
 0001:00018c40       ?bind_crypto_box_curve25519xsalsa20poly1305_publickeybytes_@@YA?AVValue@Napi@@AEBVCallbackInfo@2@@Z 0000000180019c40 f   crypto_box_curve25519xsalsa20poly1305.obj
 0001:00018cf0       ?bind_crypto_box_curve25519xsalsa20poly1305_secretkeybytes_@@YA?AVValue@Napi@@AEBVCallbackInfo@2@@Z 0000000180019cf0 f   crypto_box_curve25519xsalsa20poly1305.obj
 0001:00018da0       ?bind_crypto_box_curve25519xsalsa20poly1305_zerobytes_@@YA?AVValue@Napi@@AEBVCallbackInfo@2@@Z 0000000180019da0 f   crypto_box_curve25519xsalsa20poly1305.obj
 0001:00018e50       ?bind_crypto_box_curve25519xsalsa20poly1305_seedbytes_@@YA?AVValue@Napi@@AEBVCallbackInfo@2@@Z 0000000180019e50 f   crypto_box_curve25519xsalsa20poly1305.obj
 0001:00018f00       ?bind_crypto_box_curve25519xsalsa20poly1305_messagebytes_max_@@YA?AVValue@Napi@@AEBVCallbackInfo@2@@Z 0000000180019f00 f   crypto_box_curve25519xsalsa20poly1305.obj
 0001:00018fb0       ?register_crypto_box_curve25519xsalsa20poly1305@@YAXVEnv@Napi@@VObject@2@@Z 0000000180019fb0 f   crypto_box_curve25519xsalsa20poly1305.obj
 0001:0001a130       ?bind_sodium_runtime_has_aesni_@@YA?AVValue@Napi@@AEBVCallbackInfo@2@@Z 000000018001b130 f   sodium_runtime.obj
 0001:0001a1d0       ?bind_sodium_runtime_has_neon_@@YA?AVValue@Napi@@AEBVCallbackInfo@2@@Z 000000018001b1d0 f   sodium_runtime.obj
 0001:0001a270       ?bind_sodium_runtime_has_sse2_@@YA?AVValue@Napi@@AEBVCallbackInfo@2@@Z 000000018001b270 f   sodium_runtime.obj
 0001:0001a310       ?bind_sodium_runtime_has_sse3_@@YA?AVValue@Napi@@AEBVCallbackInfo@2@@Z 000000018001b310 f   sodium_runtime.obj
 0001:0001a3b0       ?bind_sodium_runtime_has_ssse3_@@YA?AVValue@Napi@@AEBVCallbackInfo@2@@Z 000000018001b3b0 f   sodium_runtime.obj
 0001:0001a450       ?bind_sodium_runtime_has_sse41_@@YA?AVValue@Napi@@AEBVCallbackInfo@2@@Z 000000018001b450 f   sodium_runtime.obj
 0001:0001a4f0       ?bind_sodium_runtime_has_avx_@@YA?AVValue@Napi@@AEBVCallbackInfo@2@@Z 000000018001b4f0 f   sodium_runtime.obj
 0001:0001a590       ?bind_sodium_runtime_has_avx2_@@YA?AVValue@Napi@@AEBVCallbackInfo@2@@Z 000000018001b590 f   sodium_runtime.obj
 0001:0001a630       ?bind_sodium_runtime_has_pclmul_@@YA?AVValue@Napi@@AEBVCallbackInfo@2@@Z 000000018001b630 f   sodium_runtime.obj
 0001:0001a6d0       ?register_runtime@@YAXVEnv@Napi@@VObject@2@@Z 000000018001b6d0 f   sodium_runtime.obj
 0001:0001ac30       ?bind_crypto_auth_bytes_@@YA?AVValue@Napi@@AEBVCallbackInfo@2@@Z 000000018001bc30 f   crypto_auth.obj
 0001:0001ace0       ?bind_crypto_auth_keybytes_@@YA?AVValue@Napi@@AEBVCallbackInfo@2@@Z 000000018001bce0 f   crypto_auth.obj
 0001:0001ad90       ?bind_crypto_auth_primitive_@@YA?AVValue@Napi@@AEBVCallbackInfo@2@@Z 000000018001bd90 f   crypto_auth.obj
 0001:0001ae40       ?register_crypto_auth@@YAXVEnv@Napi@@VObject@2@@Z 000000018001be40 f   crypto_auth.obj
 0001:0001b510       ?bind_crypto_auth_hmacsha256_@@YA?AVValue@Napi@@AEBVCallbackInfo@2@@Z 000000018001c510 f   crypto_auth_algos.obj
 0001:0001b810       ?bind_crypto_auth_hmacsha256_verify_@@YA?AVValue@Napi@@AEBVCallbackInfo@2@@Z 000000018001c810 f   crypto_auth_algos.obj
 0001:0001bba0       ?bind_crypto_auth_hmacsha256_init_@@YA?AVValue@Napi@@AEBVCallbackInfo@2@@Z 000000018001cba0 f   crypto_auth_algos.obj
 0001:0001bdf0       ?bind_crypto_auth_hmacsha256_update_@@YA?AVValue@Napi@@AEBVCallbackInfo@2@@Z 000000018001cdf0 f   crypto_auth_algos.obj
 0001:0001c160       ?bind_crypto_auth_hmacsha256_final_@@YA?AVValue@Napi@@AEBVCallbackInfo@2@@Z 000000018001d160 f   crypto_auth_algos.obj
 0001:0001c390       ?bind_crypto_auth_hmacsha256_statebytes_@@YA?AVValue@Napi@@AEBVCallbackInfo@2@@Z 000000018001d390 f   crypto_auth_algos.obj
 0001:0001c440       ?bind_crypto_auth_hmacsha256_keygen_@@YA?AVValue@Napi@@AEBVCallbackInfo@2@@Z 000000018001d440 f   crypto_auth_algos.obj
 0001:0001c440       ?bind_crypto_auth_hmacsha512256_keygen_@@YA?AVValue@Napi@@AEBVCallbackInfo@2@@Z 000000018001d440 f   crypto_auth_algos.obj
 0001:0001c440       ?bind_crypto_auth_hmacsha512_keygen_@@YA?AVValue@Napi@@AEBVCallbackInfo@2@@Z 000000018001d440 f   crypto_auth_algos.obj
 0001:0001c520       ?bind_crypto_auth_hmacsha256_bytes_@@YA?AVValue@Napi@@AEBVCallbackInfo@2@@Z 000000018001d520 f   crypto_auth_algos.obj
 0001:0001c5d0       ?bind_crypto_auth_hmacsha256_keybytes_@@YA?AVValue@Napi@@AEBVCallbackInfo@2@@Z 000000018001d5d0 f   crypto_auth_algos.obj
 0001:0001c680       ?bind_crypto_auth_hmacsha512_@@YA?AVValue@Napi@@AEBVCallbackInfo@2@@Z 000000018001d680 f   crypto_auth_algos.obj
 0001:0001c980       ?bind_crypto_auth_hmacsha512_verify_@@YA?AVValue@Napi@@AEBVCallbackInfo@2@@Z 000000018001d980 f   crypto_auth_algos.obj
 0001:0001cd10       ?bind_crypto_auth_hmacsha512_init_@@YA?AVValue@Napi@@AEBVCallbackInfo@2@@Z 000000018001dd10 f   crypto_auth_algos.obj
 0001:0001cf60       ?bind_crypto_auth_hmacsha512_update_@@YA?AVValue@Napi@@AEBVCallbackInfo@2@@Z 000000018001df60 f   crypto_auth_algos.obj
 0001:0001d2d0       ?bind_crypto_auth_hmacsha512_final_@@YA?AVValue@Napi@@AEBVCallbackInfo@2@@Z 000000018001e2d0 f   crypto_auth_algos.obj
 0001:0001d500       ?bind_crypto_auth_hmacsha512_statebytes_@@YA?AVValue@Napi@@AEBVCallbackInfo@2@@Z 000000018001e500 f   crypto_auth_algos.obj
 0001:0001d5b0       ?bind_crypto_auth_hmacsha512_bytes_@@YA?AVValue@Napi@@AEBVCallbackInfo@2@@Z 000000018001e5b0 f   crypto_auth_algos.obj
 0001:0001d660       ?bind_crypto_auth_hmacsha512_keybytes_@@YA?AVValue@Napi@@AEBVCallbackInfo@2@@Z 000000018001e660 f   crypto_auth_algos.obj
 0001:0001d710       ?bind_crypto_auth_hmacsha512256_@@YA?AVValue@Napi@@AEBVCallbackInfo@2@@Z 000000018001e710 f   crypto_auth_algos.obj
 0001:0001da10       ?bind_crypto_auth_hmacsha512256_verify_@@YA?AVValue@Napi@@AEBVCallbackInfo@2@@Z 000000018001ea10 f   crypto_auth_algos.obj
 0001:0001dda0       ?bind_crypto_auth_hmacsha512256_init_@@YA?AVValue@Napi@@AEBVCallbackInfo@2@@Z 000000018001eda0 f   crypto_auth_algos.obj
 0001:0001dff0       ?bind_crypto_auth_hmacsha512256_update_@@YA?AVValue@Napi@@AEBVCallbackInfo@2@@Z 000000018001eff0 f   crypto_auth_algos.obj
 0001:0001e360       ?bind_crypto_auth_hmacsha512256_final_@@YA?AVValue@Napi@@AEBVCallbackInfo@2@@Z 000000018001f360 f   crypto_auth_algos.obj
 0001:0001e590       ?bind_crypto_auth_hmacsha512256_statebytes_@@YA?AVValue@Napi@@AEBVCallbackInfo@2@@Z 000000018001f590 f   crypto_auth_algos.obj
 0001:0001e640       ?bind_crypto_auth_hmacsha512256_bytes_@@YA?AVValue@Napi@@AEBVCallbackInfo@2@@Z 000000018001f640 f   crypto_auth_algos.obj
 0001:0001e6f0       ?bind_crypto_auth_hmacsha512256_keybytes_@@YA?AVValue@Napi@@AEBVCallbackInfo@2@@Z 000000018001f6f0 f   crypto_auth_algos.obj
 0001:0001e7a0       ?register_crypto_auth_algos@@YAXVEnv@Napi@@VObject@2@@Z 000000018001f7a0 f   crypto_auth_algos.obj
 0001:0001fdf0       ?bind_crypto_core_hchacha20_@@YA?AVValue@Napi@@AEBVCallbackInfo@2@@Z 0000000180020df0 f   crypto_core.obj
 0001:00020250       ?bind_crypto_core_hchacha20_constbytes_@@YA?AVValue@Napi@@AEBVCallbackInfo@2@@Z 0000000180021250 f   crypto_core.obj
 0001:00020300       ?bind_crypto_core_hchacha20_inputbytes_@@YA?AVValue@Napi@@AEBVCallbackInfo@2@@Z 0000000180021300 f   crypto_core.obj
 0001:000203b0       ?bind_crypto_core_hchacha20_keybytes_@@YA?AVValue@Napi@@AEBVCallbackInfo@2@@Z 00000001800213b0 f   crypto_core.obj
 0001:00020460       ?bind_crypto_core_hchacha20_outputbytes_@@YA?AVValue@Napi@@AEBVCallbackInfo@2@@Z 0000000180021460 f   crypto_core.obj
 0001:00020510       ?bind_crypto_core_hsalsa20_@@YA?AVValue@Napi@@AEBVCallbackInfo@2@@Z 0000000180021510 f   crypto_core.obj
 0001:00020970       ?bind_crypto_core_hsalsa20_constbytes_@@YA?AVValue@Napi@@AEBVCallbackInfo@2@@Z 0000000180021970 f   crypto_core.obj
 0001:00020a20       ?bind_crypto_core_hsalsa20_inputbytes_@@YA?AVValue@Napi@@AEBVCallbackInfo@2@@Z 0000000180021a20 f   crypto_core.obj
 0001:00020ad0       ?bind_crypto_core_hsalsa20_keybytes_@@YA?AVValue@Napi@@AEBVCallbackInfo@2@@Z 0000000180021ad0 f   crypto_core.obj
 0001:00020b80       ?bind_crypto_core_hsalsa20_outputbytes_@@YA?AVValue@Napi@@AEBVCallbackInfo@2@@Z 0000000180021b80 f   crypto_core.obj
 0001:00020c30       ?bind_crypto_core_salsa20_@@YA?AVValue@Napi@@AEBVCallbackInfo@2@@Z 0000000180021c30 f   crypto_core.obj
 0001:00021090       ?bind_crypto_core_salsa20_constbytes_@@YA?AVValue@Napi@@AEBVCallbackInfo@2@@Z 0000000180022090 f   crypto_core.obj
 0001:00021140       ?bind_crypto_core_salsa20_inputbytes_@@YA?AVValue@Napi@@AEBVCallbackInfo@2@@Z 0000000180022140 f   crypto_core.obj
 0001:000211f0       ?bind_crypto_core_salsa20_keybytes_@@YA?AVValue@Napi@@AEBVCallbackInfo@2@@Z 00000001800221f0 f   crypto_core.obj
 0001:000212a0       ?bind_crypto_core_salsa20_outputbytes_@@YA?AVValue@Napi@@AEBVCallbackInfo@2@@Z 00000001800222a0 f   crypto_core.obj
 0001:00021350       ?bind_crypto_core_salsa2012_@@YA?AVValue@Napi@@AEBVCallbackInfo@2@@Z 0000000180022350 f   crypto_core.obj
 0001:000217b0       ?bind_crypto_core_salsa2012_constbytes_@@YA?AVValue@Napi@@AEBVCallbackInfo@2@@Z 00000001800227b0 f   crypto_core.obj
 0001:00021860       ?bind_crypto_core_salsa2012_inputbytes_@@YA?AVValue@Napi@@AEBVCallbackInfo@2@@Z 0000000180022860 f   crypto_core.obj
 0001:00021910       ?bind_crypto_core_salsa2012_keybytes_@@YA?AVValue@Napi@@AEBVCallbackInfo@2@@Z 0000000180022910 f   crypto_core.obj
 0001:000219c0       ?bind_crypto_core_salsa2012_outputbytes_@@YA?AVValue@Napi@@AEBVCallbackInfo@2@@Z 00000001800229c0 f   crypto_core.obj
 0001:00021a70       ?bind_crypto_core_salsa208_@@YA?AVValue@Napi@@AEBVCallbackInfo@2@@Z 0000000180022a70 f   crypto_core.obj
 0001:00021ed0       ?bind_crypto_core_salsa208_constbytes_@@YA?AVValue@Napi@@AEBVCallbackInfo@2@@Z 0000000180022ed0 f   crypto_core.obj
 0001:00021f80       ?bind_crypto_core_salsa208_inputbytes_@@YA?AVValue@Napi@@AEBVCallbackInfo@2@@Z 0000000180022f80 f   crypto_core.obj
 0001:00022030       ?bind_crypto_core_salsa208_keybytes_@@YA?AVValue@Napi@@AEBVCallbackInfo@2@@Z 0000000180023030 f   crypto_core.obj
 0001:000220e0       ?bind_crypto_core_salsa208_outputbytes_@@YA?AVValue@Napi@@AEBVCallbackInfo@2@@Z 00000001800230e0 f   crypto_core.obj
 0001:00022190       ?register_crypto_core@@YAXVEnv@Napi@@VObject@2@@Z 0000000180023190 f   crypto_core.obj
 0001:00024580       ?bind_crypto_scalarmult_curve25519_base_@@YA?AVValue@Napi@@AEBVCallbackInfo@2@@Z 0000000180025580 f   crypto_scalarmult_curve25519.obj
 0001:00024810       ?bind_crypto_scalarmult_curve25519_@@YA?AVValue@Napi@@AEBVCallbackInfo@2@@Z 0000000180025810 f   crypto_scalarmult_curve25519.obj
 0001:00024b50       ?register_crypto_scalarmult_curve25519@@YAXVEnv@Napi@@VObject@2@@Z 0000000180025b50 f   crypto_scalarmult_curve25519.obj
 0001:00024ed0       ?register_crypto_scalarmult@@YAXVEnv@Napi@@VObject@2@@Z 0000000180025ed0 f   crypto_scalarmult.obj
 0001:00025350       ?bind_crypto_secretbox_xsalsa20poly1305_@@YA?AVValue@Napi@@AEBVCallbackInfo@2@@Z 0000000180026350 f   crypto_secretbox_xsalsa20poly1305.obj
 0001:000257c0       ?bind_crypto_secretbox_xsalsa20poly1305_open_@@YA?AVValue@Napi@@AEBVCallbackInfo@2@@Z 00000001800267c0 f   crypto_secretbox_xsalsa20poly1305.obj
 0001:00025c60       ?register_crypto_secretbox_xsalsa20poly1305@@YAXVEnv@Napi@@VObject@2@@Z 0000000180026c60 f   crypto_secretbox_xsalsa20poly1305.obj
 0001:000262f0       ?bind_crypto_secretbox_@@YA?AVValue@Napi@@AEBVCallbackInfo@2@@Z 00000001800272f0 f   crypto_secretbox.obj
 0001:00026760       ?bind_crypto_secretbox_open_@@YA?AVValue@Napi@@AEBVCallbackInfo@2@@Z 0000000180027760 f   crypto_secretbox.obj
 0001:00026c00       ?bind_crypto_secretbox_easy_@@YA?AVValue@Napi@@AEBVCallbackInfo@2@@Z 0000000180027c00 f   crypto_secretbox.obj
 0001:00026fe0       ?bind_crypto_secretbox_open_easy_@@YA?AVValue@Napi@@AEBVCallbackInfo@2@@Z 0000000180027fe0 f   crypto_secretbox.obj
 0001:000273c0       ?bind_crypto_secretbox_detached_@@YA?AVValue@Napi@@AEBVCallbackInfo@2@@Z 00000001800283c0 f   crypto_secretbox.obj
 0001:000278a0       ?bind_crypto_secretbox_open_detached_@@YA?AVValue@Napi@@AEBVCallbackInfo@2@@Z 00000001800288a0 f   crypto_secretbox.obj
 0001:00027d80       ?register_crypto_secretbox@@YAXVEnv@Napi@@VObject@2@@Z 0000000180028d80 f   crypto_secretbox.obj
 0001:00028760       ?RegisterModule@@YA?AVObject@Napi@@VEnv@2@V12@@Z 0000000180029760 f   sodium.obj
 0001:00028a50       ?__napi_RegisterModule@@YAPEAUnapi_value__@@PEAUnapi_env__@@PEAU1@@Z 0000000180029a50 f   sodium.obj
 0001:00028ac0       ??$WrapCallback@V<lambda_8c7377a71108815b2eee34f099f4cb99>@@@details@Napi@@YAPEAUnapi_value__@@V<lambda_8c7377a71108815b2eee34f099f4cb99>@@@Z 0000000180029ac0 f i sodium.obj
 0001:00028b10       ?bind_crypto_stream_keybytes_@@YA?AVValue@Napi@@AEBVCallbackInfo@2@@Z 0000000180029b10 f   crypto_stream.obj
 0001:00028bc0       ?bind_crypto_stream_noncebytes_@@YA?AVValue@Napi@@AEBVCallbackInfo@2@@Z 0000000180029bc0 f   crypto_stream.obj
 0001:00028c70       ?bind_crypto_stream_primitive_@@YA?AVValue@Napi@@AEBVCallbackInfo@2@@Z 0000000180029c70 f   crypto_stream.obj
 0001:00028d20       ?register_crypto_stream@@YAXVEnv@Napi@@VObject@2@@Z 0000000180029d20 f   crypto_stream.obj
 0001:00029360       ?Uint32Value@Number@Napi@@QEBAIXZ 000000018002a360 f i crypto_streams.obj
 0001:000293d0       ?bind_crypto_stream_salsa20_@@YA?AVValue@Napi@@AEBVCallbackInfo@2@@Z 000000018002a3d0 f   crypto_streams.obj
 0001:000297a0       ?bind_crypto_stream_salsa20_xor_@@YA?AVValue@Napi@@AEBVCallbackInfo@2@@Z 000000018002a7a0 f   crypto_streams.obj
 0001:00029b80       ?bind_crypto_stream_salsa20_keybytes_@@YA?AVValue@Napi@@AEBVCallbackInfo@2@@Z 000000018002ab80 f   crypto_streams.obj
 0001:00029c30       ?bind_crypto_stream_salsa20_noncebytes_@@YA?AVValue@Napi@@AEBVCallbackInfo@2@@Z 000000018002ac30 f   crypto_streams.obj
 0001:00029ce0       ?bind_crypto_stream_salsa20_xor_ic_@@YA?AVValue@Napi@@AEBVCallbackInfo@2@@Z 000000018002ace0 f   crypto_streams.obj
 0001:0002a130       ?bind_crypto_stream_xsalsa20_@@YA?AVValue@Napi@@AEBVCallbackInfo@2@@Z 000000018002b130 f   crypto_streams.obj
 0001:0002a500       ?bind_crypto_stream_xsalsa20_xor_@@YA?AVValue@Napi@@AEBVCallbackInfo@2@@Z 000000018002b500 f   crypto_streams.obj
 0001:0002a8e0       ?bind_crypto_stream_xsalsa20_keybytes_@@YA?AVValue@Napi@@AEBVCallbackInfo@2@@Z 000000018002b8e0 f   crypto_streams.obj
 0001:0002a990       ?bind_crypto_stream_xsalsa20_noncebytes_@@YA?AVValue@Napi@@AEBVCallbackInfo@2@@Z 000000018002b990 f   crypto_streams.obj
 0001:0002aa40       ?bind_crypto_stream_xsalsa20_xor_ic_@@YA?AVValue@Napi@@AEBVCallbackInfo@2@@Z 000000018002ba40 f   crypto_streams.obj
 0001:0002ae90       ?bind_crypto_stream_salsa208_@@YA?AVValue@Napi@@AEBVCallbackInfo@2@@Z 000000018002be90 f   crypto_streams.obj
 0001:0002b260       ?bind_crypto_stream_salsa208_xor_@@YA?AVValue@Napi@@AEBVCallbackInfo@2@@Z 000000018002c260 f   crypto_streams.obj
 0001:0002b640       ?bind_crypto_stream_salsa208_keybytes_@@YA?AVValue@Napi@@AEBVCallbackInfo@2@@Z 000000018002c640 f   crypto_streams.obj
 0001:0002b6f0       ?bind_crypto_stream_salsa208_noncebytes_@@YA?AVValue@Napi@@AEBVCallbackInfo@2@@Z 000000018002c6f0 f   crypto_streams.obj
 0001:0002b7a0       ?bind_crypto_stream_salsa2012_@@YA?AVValue@Napi@@AEBVCallbackInfo@2@@Z 000000018002c7a0 f   crypto_streams.obj
 0001:0002bb70       ?bind_crypto_stream_salsa2012_xor_@@YA?AVValue@Napi@@AEBVCallbackInfo@2@@Z 000000018002cb70 f   crypto_streams.obj
 0001:0002bf50       ?bind_crypto_stream_salsa2012_keybytes_@@YA?AVValue@Napi@@AEBVCallbackInfo@2@@Z 000000018002cf50 f   crypto_streams.obj
 0001:0002c000       ?bind_crypto_stream_salsa2012_noncebytes_@@YA?AVValue@Napi@@AEBVCallbackInfo@2@@Z 000000018002d000 f   crypto_streams.obj
 0001:0002c0b0       ?bind_crypto_stream_chacha20_@@YA?AVValue@Napi@@AEBVCallbackInfo@2@@Z 000000018002d0b0 f   crypto_streams.obj
 0001:0002c480       ?bind_crypto_stream_chacha20_xor_@@YA?AVValue@Napi@@AEBVCallbackInfo@2@@Z 000000018002d480 f   crypto_streams.obj
 0001:0002c860       ?bind_crypto_stream_chacha20_keybytes_@@YA?AVValue@Napi@@AEBVCallbackInfo@2@@Z 000000018002d860 f   crypto_streams.obj
 0001:0002c910       ?bind_crypto_stream_chacha20_noncebytes_@@YA?AVValue@Napi@@AEBVCallbackInfo@2@@Z 000000018002d910 f   crypto_streams.obj
 0001:0002c9c0       ?bind_crypto_stream_chacha20_xor_ic_@@YA?AVValue@Napi@@AEBVCallbackInfo@2@@Z 000000018002d9c0 f   crypto_streams.obj
 0001:0002ce10       ?bind_crypto_stream_chacha20_ietf_@@YA?AVValue@Napi@@AEBVCallbackInfo@2@@Z 000000018002de10 f   crypto_streams.obj
 0001:0002d1e0       ?bind_crypto_stream_chacha20_ietf_xor_@@YA?AVValue@Napi@@AEBVCallbackInfo@2@@Z 000000018002e1e0 f   crypto_streams.obj
 0001:0002d5c0       ?bind_crypto_stream_chacha20_ietf_keybytes_@@YA?AVValue@Napi@@AEBVCallbackInfo@2@@Z 000000018002e5c0 f   crypto_streams.obj
 0001:0002d670       ?bind_crypto_stream_chacha20_ietf_noncebytes_@@YA?AVValue@Napi@@AEBVCallbackInfo@2@@Z 000000018002e670 f   crypto_streams.obj
 0001:0002d720       ?bind_crypto_stream_chacha20_ietf_xor_ic_@@YA?AVValue@Napi@@AEBVCallbackInfo@2@@Z 000000018002e720 f   crypto_streams.obj
 0001:0002db70       ?register_crypto_streams@@YAXVEnv@Napi@@VObject@2@@Z 000000018002eb70 f   crypto_streams.obj
 0001:0002f8a0       ?bind_sodium_version_string_@@YA?AVValue@Napi@@AEBVCallbackInfo@2@@Z 00000001800308a0 f   helpers.obj
 0001:0002f950       ?bind_sodium_library_version_minor_@@YA?AVValue@Napi@@AEBVCallbackInfo@2@@Z 0000000180030950 f   helpers.obj
 0001:0002f9f0       ?bind_sodium_library_version_major_@@YA?AVValue@Napi@@AEBVCallbackInfo@2@@Z 00000001800309f0 f   helpers.obj
 0001:0002fa90       ?bind_memzero_@@YA?AVValue@Napi@@AEBVCallbackInfo@2@@Z 0000000180030a90 f   helpers.obj
 0001:0002fca0       ?bind_memcmp_@@YA?AVValue@Napi@@AEBVCallbackInfo@2@@Z 0000000180030ca0 f   helpers.obj
 0001:00030000       ?bind_bin2hex_@@YA?AVValue@Napi@@AEBVCallbackInfo@2@@Z 0000000180031000 f   helpers.obj
 0001:00030000       ?bind_hex2bin_@@YA?AVValue@Napi@@AEBVCallbackInfo@2@@Z 0000000180031000 f   helpers.obj
 0001:000300f0       ?bind_crypto_verify_16_@@YA?AVValue@Napi@@AEBVCallbackInfo@2@@Z 00000001800310f0 f   helpers.obj
 0001:00030420       ?bind_crypto_verify_32_@@YA?AVValue@Napi@@AEBVCallbackInfo@2@@Z 0000000180031420 f   helpers.obj
 0001:00030750       ?bind_crypto_verify_64_@@YA?AVValue@Napi@@AEBVCallbackInfo@2@@Z 0000000180031750 f   helpers.obj
 0001:00030a80       ?bind_increment_@@YA?AVValue@Napi@@AEBVCallbackInfo@2@@Z 0000000180031a80 f   helpers.obj
 0001:00030c90       ?bind_compare_@@YA?AVValue@Napi@@AEBVCallbackInfo@2@@Z 0000000180031c90 f   helpers.obj
 0001:00030fa0       ?bind_add_@@YA?AVValue@Napi@@AEBVCallbackInfo@2@@Z 0000000180031fa0 f   helpers.obj
 0001:000312a0       ?bind_is_zero_@@YA?AVValue@Napi@@AEBVCallbackInfo@2@@Z 00000001800322a0 f   helpers.obj
 0001:000314d0       ?register_helpers@@YAXVEnv@Napi@@VObject@2@@Z 00000001800324d0 f   helpers.obj
 0001:00032010       ?bind_randombytes_buf_@@YA?AVValue@Napi@@AEBVCallbackInfo@2@@Z 0000000180033010 f   randombytes.obj
 0001:00032220       ?bind_randombytes_stir_@@YA?AVValue@Napi@@AEBVCallbackInfo@2@@Z 0000000180033220 f   randombytes.obj
 0001:000322b0       ?bind_randombytes_close_@@YA?AVValue@Napi@@AEBVCallbackInfo@2@@Z 00000001800332b0 f   randombytes.obj
 0001:00032350       ?bind_randombytes_random_@@YA?AVValue@Napi@@AEBVCallbackInfo@2@@Z 0000000180033350 f   randombytes.obj
 0001:00032400       ?bind_randombytes_uniform_@@YA?AVValue@Napi@@AEBVCallbackInfo@2@@Z 0000000180033400 f   randombytes.obj
 0001:000325f0       ?bind_randombytes_buf_deterministic_@@YA?AVValue@Napi@@AEBVCallbackInfo@2@@Z 00000001800335f0 f   randombytes.obj
 0001:000328f0       ?register_randombytes@@YAXVEnv@Napi@@VObject@2@@Z 00000001800338f0 f   randombytes.obj
 0001:00032e30       ??$From@I@Value@Napi@@SA?AV01@PEAUnapi_env__@@AEBI@Z 0000000180033e30 f i randombytes.obj
 0001:00032ed0       ?bind_crypto_pwhash_argon2i_@@YA?AVValue@Napi@@AEBVCallbackInfo@2@@Z 0000000180033ed0 f   crypto_pwhash_algos.obj
 0001:00033420       ?bind_crypto_pwhash_argon2i_str_@@YA?AVValue@Napi@@AEBVCallbackInfo@2@@Z 0000000180034420 f   crypto_pwhash_algos.obj
 0001:00033810       ?bind_crypto_pwhash_argon2i_str_verify_@@YA?AVValue@Napi@@AEBVCallbackInfo@2@@Z 0000000180034810 f   crypto_pwhash_algos.obj
 0001:00033b20       ?bind_crypto_pwhash_argon2i_str_needs_rehash_@@YA?AVValue@Napi@@AEBVCallbackInfo@2@@Z 0000000180034b20 f   crypto_pwhash_algos.obj
 0001:00033e90       ?bind_crypto_pwhash_argon2i_bytes_max_@@YA?AVValue@Napi@@AEBVCallbackInfo@2@@Z 0000000180034e90 f   crypto_pwhash_algos.obj
 0001:00033f40       ?bind_crypto_pwhash_argon2i_bytes_min_@@YA?AVValue@Napi@@AEBVCallbackInfo@2@@Z 0000000180034f40 f   crypto_pwhash_algos.obj
 0001:00033ff0       ?bind_crypto_pwhash_argon2i_opslimit_max_@@YA?AVValue@Napi@@AEBVCallbackInfo@2@@Z 0000000180034ff0 f   crypto_pwhash_algos.obj
 0001:000340a0       ?bind_crypto_pwhash_argon2i_opslimit_min_@@YA?AVValue@Napi@@AEBVCallbackInfo@2@@Z 00000001800350a0 f   crypto_pwhash_algos.obj
 0001:00034150       ?bind_crypto_pwhash_argon2i_opslimit_interactive_@@YA?AVValue@Napi@@AEBVCallbackInfo@2@@Z 0000000180035150 f   crypto_pwhash_algos.obj
 0001:00034200       ?bind_crypto_pwhash_argon2i_opslimit_sensitive_@@YA?AVValue@Napi@@AEBVCallbackInfo@2@@Z 0000000180035200 f   crypto_pwhash_algos.obj
 0001:000342b0       ?bind_crypto_pwhash_argon2i_memlimit_max_@@YA?AVValue@Napi@@AEBVCallbackInfo@2@@Z 00000001800352b0 f   crypto_pwhash_algos.obj
 0001:00034360       ?bind_crypto_pwhash_argon2i_memlimit_min_@@YA?AVValue@Napi@@AEBVCallbackInfo@2@@Z 0000000180035360 f   crypto_pwhash_algos.obj
 0001:00034410       ?bind_crypto_pwhash_argon2i_memlimit_interactive_@@YA?AVValue@Napi@@AEBVCallbackInfo@2@@Z 0000000180035410 f   crypto_pwhash_algos.obj
 0001:000344c0       ?bind_crypto_pwhash_argon2i_memlimit_sensitive_@@YA?AVValue@Napi@@AEBVCallbackInfo@2@@Z 00000001800354c0 f   crypto_pwhash_algos.obj
 0001:00034570       ?bind_crypto_pwhash_argon2i_passwd_max_@@YA?AVValue@Napi@@AEBVCallbackInfo@2@@Z 0000000180035570 f   crypto_pwhash_algos.obj
 0001:00034620       ?bind_crypto_pwhash_argon2i_passwd_min_@@YA?AVValue@Napi@@AEBVCallbackInfo@2@@Z 0000000180035620 f   crypto_pwhash_algos.obj
 0001:000346d0       ?bind_crypto_pwhash_argon2i_saltbytes_@@YA?AVValue@Napi@@AEBVCallbackInfo@2@@Z 00000001800356d0 f   crypto_pwhash_algos.obj
 0001:00034780       ?bind_crypto_pwhash_argon2i_strbytes_@@YA?AVValue@Napi@@AEBVCallbackInfo@2@@Z 0000000180035780 f   crypto_pwhash_algos.obj
 0001:00034830       ?bind_crypto_pwhash_argon2i_strprefix_@@YA?AVValue@Napi@@AEBVCallbackInfo@2@@Z 0000000180035830 f   crypto_pwhash_algos.obj
 0001:000348e0       ?bind_crypto_pwhash_argon2i_opslimit_moderate_@@YA?AVValue@Napi@@AEBVCallbackInfo@2@@Z 00000001800358e0 f   crypto_pwhash_algos.obj
 0001:00034990       ?bind_crypto_pwhash_argon2i_memlimit_moderate_@@YA?AVValue@Napi@@AEBVCallbackInfo@2@@Z 0000000180035990 f   crypto_pwhash_algos.obj
 0001:00034a40       ?bind_crypto_pwhash_argon2i_alg_argon2i13_@@YA?AVValue@Napi@@AEBVCallbackInfo@2@@Z 0000000180035a40 f   crypto_pwhash_algos.obj
 0001:00034ae0       ?bind_crypto_pwhash_argon2id_@@YA?AVValue@Napi@@AEBVCallbackInfo@2@@Z 0000000180035ae0 f   crypto_pwhash_algos.obj
 0001:00035030       ?bind_crypto_pwhash_argon2id_str_@@YA?AVValue@Napi@@AEBVCallbackInfo@2@@Z 0000000180036030 f   crypto_pwhash_algos.obj
 0001:00035420       ?bind_crypto_pwhash_argon2id_str_verify_@@YA?AVValue@Napi@@AEBVCallbackInfo@2@@Z 0000000180036420 f   crypto_pwhash_algos.obj
 0001:00035730       ?bind_crypto_pwhash_argon2id_str_needs_rehash_@@YA?AVValue@Napi@@AEBVCallbackInfo@2@@Z 0000000180036730 f   crypto_pwhash_algos.obj
 0001:00035aa0       ?bind_crypto_pwhash_argon2id_bytes_max_@@YA?AVValue@Napi@@AEBVCallbackInfo@2@@Z 0000000180036aa0 f   crypto_pwhash_algos.obj
 0001:00035b50       ?bind_crypto_pwhash_argon2id_bytes_min_@@YA?AVValue@Napi@@AEBVCallbackInfo@2@@Z 0000000180036b50 f   crypto_pwhash_algos.obj
 0001:00035c00       ?bind_crypto_pwhash_argon2id_opslimit_max_@@YA?AVValue@Napi@@AEBVCallbackInfo@2@@Z 0000000180036c00 f   crypto_pwhash_algos.obj
 0001:00035cb0       ?bind_crypto_pwhash_argon2id_opslimit_min_@@YA?AVValue@Napi@@AEBVCallbackInfo@2@@Z 0000000180036cb0 f   crypto_pwhash_algos.obj
 0001:00035d60       ?bind_crypto_pwhash_argon2id_opslimit_interactive_@@YA?AVValue@Napi@@AEBVCallbackInfo@2@@Z 0000000180036d60 f   crypto_pwhash_algos.obj
 0001:00035e10       ?bind_crypto_pwhash_argon2id_opslimit_sensitive_@@YA?AVValue@Napi@@AEBVCallbackInfo@2@@Z 0000000180036e10 f   crypto_pwhash_algos.obj
 0001:00035ec0       ?bind_crypto_pwhash_argon2id_memlimit_max_@@YA?AVValue@Napi@@AEBVCallbackInfo@2@@Z 0000000180036ec0 f   crypto_pwhash_algos.obj
 0001:00035f70       ?bind_crypto_pwhash_argon2id_memlimit_min_@@YA?AVValue@Napi@@AEBVCallbackInfo@2@@Z 0000000180036f70 f   crypto_pwhash_algos.obj
 0001:00036020       ?bind_crypto_pwhash_argon2id_memlimit_interactive_@@YA?AVValue@Napi@@AEBVCallbackInfo@2@@Z 0000000180037020 f   crypto_pwhash_algos.obj
 0001:000360d0       ?bind_crypto_pwhash_argon2id_memlimit_sensitive_@@YA?AVValue@Napi@@AEBVCallbackInfo@2@@Z 00000001800370d0 f   crypto_pwhash_algos.obj
 0001:00036180       ?bind_crypto_pwhash_argon2id_passwd_max_@@YA?AVValue@Napi@@AEBVCallbackInfo@2@@Z 0000000180037180 f   crypto_pwhash_algos.obj
 0001:00036230       ?bind_crypto_pwhash_argon2id_passwd_min_@@YA?AVValue@Napi@@AEBVCallbackInfo@2@@Z 0000000180037230 f   crypto_pwhash_algos.obj
 0001:000362e0       ?bind_crypto_pwhash_argon2id_saltbytes_@@YA?AVValue@Napi@@AEBVCallbackInfo@2@@Z 00000001800372e0 f   crypto_pwhash_algos.obj
 0001:00036390       ?bind_crypto_pwhash_argon2id_strbytes_@@YA?AVValue@Napi@@AEBVCallbackInfo@2@@Z 0000000180037390 f   crypto_pwhash_algos.obj
 0001:00036440       ?bind_crypto_pwhash_argon2id_strprefix_@@YA?AVValue@Napi@@AEBVCallbackInfo@2@@Z 0000000180037440 f   crypto_pwhash_algos.obj
 0001:000364f0       ?bind_crypto_pwhash_argon2id_opslimit_moderate_@@YA?AVValue@Napi@@AEBVCallbackInfo@2@@Z 00000001800374f0 f   crypto_pwhash_algos.obj
 0001:000365a0       ?bind_crypto_pwhash_argon2id_memlimit_moderate_@@YA?AVValue@Napi@@AEBVCallbackInfo@2@@Z 00000001800375a0 f   crypto_pwhash_algos.obj
 0001:00036650       ?bind_crypto_pwhash_argon2id_alg_argon2id13_@@YA?AVValue@Napi@@AEBVCallbackInfo@2@@Z 0000000180037650 f   crypto_pwhash_algos.obj
 0001:000366f0       ?bind_crypto_pwhash_scryptsalsa208sha256_@@YA?AVValue@Napi@@AEBVCallbackInfo@2@@Z 00000001800376f0 f   crypto_pwhash_algos.obj
 0001:00036bc0       ?bind_crypto_pwhash_scryptsalsa208sha256_str_@@YA?AVValue@Napi@@AEBVCallbackInfo@2@@Z 0000000180037bc0 f   crypto_pwhash_algos.obj
 0001:00036fb0       ?bind_crypto_pwhash_scryptsalsa208sha256_str_verify_@@YA?AVValue@Napi@@AEBVCallbackInfo@2@@Z 0000000180037fb0 f   crypto_pwhash_algos.obj
 0001:000372c0       ?bind_crypto_pwhash_scryptsalsa208sha256_str_needs_rehash_@@YA?AVValue@Napi@@AEBVCallbackInfo@2@@Z 00000001800382c0 f   crypto_pwhash_algos.obj
 0001:00037630       ?bind_crypto_pwhash_scryptsalsa208sha256_bytes_max_@@YA?AVValue@Napi@@AEBVCallbackInfo@2@@Z 0000000180038630 f   crypto_pwhash_algos.obj
 0001:000376e0       ?bind_crypto_pwhash_scryptsalsa208sha256_bytes_min_@@YA?AVValue@Napi@@AEBVCallbackInfo@2@@Z 00000001800386e0 f   crypto_pwhash_algos.obj
 0001:00037790       ?bind_crypto_pwhash_scryptsalsa208sha256_opslimit_max_@@YA?AVValue@Napi@@AEBVCallbackInfo@2@@Z 0000000180038790 f   crypto_pwhash_algos.obj
 0001:00037840       ?bind_crypto_pwhash_scryptsalsa208sha256_opslimit_min_@@YA?AVValue@Napi@@AEBVCallbackInfo@2@@Z 0000000180038840 f   crypto_pwhash_algos.obj
 0001:000378f0       ?bind_crypto_pwhash_scryptsalsa208sha256_opslimit_interactive_@@YA?AVValue@Napi@@AEBVCallbackInfo@2@@Z 00000001800388f0 f   crypto_pwhash_algos.obj
 0001:000379a0       ?bind_crypto_pwhash_scryptsalsa208sha256_opslimit_sensitive_@@YA?AVValue@Napi@@AEBVCallbackInfo@2@@Z 00000001800389a0 f   crypto_pwhash_algos.obj
 0001:00037a50       ?bind_crypto_pwhash_scryptsalsa208sha256_memlimit_max_@@YA?AVValue@Napi@@AEBVCallbackInfo@2@@Z 0000000180038a50 f   crypto_pwhash_algos.obj
 0001:00037b00       ?bind_crypto_pwhash_scryptsalsa208sha256_memlimit_min_@@YA?AVValue@Napi@@AEBVCallbackInfo@2@@Z 0000000180038b00 f   crypto_pwhash_algos.obj
 0001:00037bb0       ?bind_crypto_pwhash_scryptsalsa208sha256_memlimit_interactive_@@YA?AVValue@Napi@@AEBVCallbackInfo@2@@Z 0000000180038bb0 f   crypto_pwhash_algos.obj
 0001:00037c60       ?bind_crypto_pwhash_scryptsalsa208sha256_memlimit_sensitive_@@YA?AVValue@Napi@@AEBVCallbackInfo@2@@Z 0000000180038c60 f   crypto_pwhash_algos.obj
 0001:00037d10       ?bind_crypto_pwhash_scryptsalsa208sha256_passwd_max_@@YA?AVValue@Napi@@AEBVCallbackInfo@2@@Z 0000000180038d10 f   crypto_pwhash_algos.obj
 0001:00037dc0       ?bind_crypto_pwhash_scryptsalsa208sha256_passwd_min_@@YA?AVValue@Napi@@AEBVCallbackInfo@2@@Z 0000000180038dc0 f   crypto_pwhash_algos.obj
 0001:00037e70       ?bind_crypto_pwhash_scryptsalsa208sha256_saltbytes_@@YA?AVValue@Napi@@AEBVCallbackInfo@2@@Z 0000000180038e70 f   crypto_pwhash_algos.obj
 0001:00037f20       ?bind_crypto_pwhash_scryptsalsa208sha256_strbytes_@@YA?AVValue@Napi@@AEBVCallbackInfo@2@@Z 0000000180038f20 f   crypto_pwhash_algos.obj
 0001:00037fd0       ?bind_crypto_pwhash_scryptsalsa208sha256_strprefix_@@YA?AVValue@Napi@@AEBVCallbackInfo@2@@Z 0000000180038fd0 f   crypto_pwhash_algos.obj
 0001:00038080       ?bind_crypto_pwhash_scryptsalsa208sha256_ll_@@YA?AVValue@Napi@@AEBVCallbackInfo@2@@Z 0000000180039080 f   crypto_pwhash_algos.obj
 0001:00038590       ?register_crypto_pwhash_algos@@YAXVEnv@Napi@@VObject@2@@Z 0000000180039590 f   crypto_pwhash_algos.obj
 0001:00040090       ?Length@?$Buffer@D@Napi@@QEBA_KXZ 0000000180041090 f i crypto_pwhash_algos.obj
 0001:00040120       ?Data@?$Buffer@D@Napi@@QEBAPEADXZ 0000000180041120 f i crypto_pwhash_algos.obj
 0001:000401b0       ?bind_crypto_pwhash_@@YA?AVValue@Napi@@AEBVCallbackInfo@2@@Z 00000001800411b0 f   crypto_pwhash.obj
 0001:00040700       ?bind_crypto_pwhash_str_@@YA?AVValue@Napi@@AEBVCallbackInfo@2@@Z 0000000180041700 f   crypto_pwhash.obj
 0001:00040af0       ?bind_crypto_pwhash_str_verify_@@YA?AVValue@Napi@@AEBVCallbackInfo@2@@Z 0000000180041af0 f   crypto_pwhash.obj
 0001:00040e00       ?bind_crypto_pwhash_str_needs_rehash_@@YA?AVValue@Napi@@AEBVCallbackInfo@2@@Z 0000000180041e00 f   crypto_pwhash.obj
 0001:00041170       ?bind_crypto_pwhash_str_alg_@@YA?AVValue@Napi@@AEBVCallbackInfo@2@@Z 0000000180042170 f   crypto_pwhash.obj
 0001:000415e0       ?bind_crypto_pwhash_bytes_max_@@YA?AVValue@Napi@@AEBVCallbackInfo@2@@Z 00000001800425e0 f   crypto_pwhash.obj
 0001:00041690       ?bind_crypto_pwhash_bytes_min_@@YA?AVValue@Napi@@AEBVCallbackInfo@2@@Z 0000000180042690 f   crypto_pwhash.obj
 0001:00041740       ?bind_crypto_pwhash_opslimit_max_@@YA?AVValue@Napi@@AEBVCallbackInfo@2@@Z 0000000180042740 f   crypto_pwhash.obj
 0001:000417f0       ?bind_crypto_pwhash_opslimit_min_@@YA?AVValue@Napi@@AEBVCallbackInfo@2@@Z 00000001800427f0 f   crypto_pwhash.obj
 0001:000418a0       ?bind_crypto_pwhash_opslimit_interactive_@@YA?AVValue@Napi@@AEBVCallbackInfo@2@@Z 00000001800428a0 f   crypto_pwhash.obj
 0001:00041950       ?bind_crypto_pwhash_opslimit_sensitive_@@YA?AVValue@Napi@@AEBVCallbackInfo@2@@Z 0000000180042950 f   crypto_pwhash.obj
 0001:00041a00       ?bind_crypto_pwhash_memlimit_max_@@YA?AVValue@Napi@@AEBVCallbackInfo@2@@Z 0000000180042a00 f   crypto_pwhash.obj
 0001:00041ab0       ?bind_crypto_pwhash_memlimit_min_@@YA?AVValue@Napi@@AEBVCallbackInfo@2@@Z 0000000180042ab0 f   crypto_pwhash.obj
 0001:00041b60       ?bind_crypto_pwhash_memlimit_interactive_@@YA?AVValue@Napi@@AEBVCallbackInfo@2@@Z 0000000180042b60 f   crypto_pwhash.obj
 0001:00041c10       ?bind_crypto_pwhash_memlimit_sensitive_@@YA?AVValue@Napi@@AEBVCallbackInfo@2@@Z 0000000180042c10 f   crypto_pwhash.obj
 0001:00041cc0       ?bind_crypto_pwhash_passwd_max_@@YA?AVValue@Napi@@AEBVCallbackInfo@2@@Z 0000000180042cc0 f   crypto_pwhash.obj
 0001:00041d70       ?bind_crypto_pwhash_passwd_min_@@YA?AVValue@Napi@@AEBVCallbackInfo@2@@Z 0000000180042d70 f   crypto_pwhash.obj
 0001:00041e20       ?bind_crypto_pwhash_saltbytes_@@YA?AVValue@Napi@@AEBVCallbackInfo@2@@Z 0000000180042e20 f   crypto_pwhash.obj
 0001:00041ed0       ?bind_crypto_pwhash_strbytes_@@YA?AVValue@Napi@@AEBVCallbackInfo@2@@Z 0000000180042ed0 f   crypto_pwhash.obj
 0001:00041f80       ?bind_crypto_pwhash_alg_default_@@YA?AVValue@Napi@@AEBVCallbackInfo@2@@Z 0000000180042f80 f   crypto_pwhash.obj
 0001:00042020       ?bind_crypto_pwhash_alg_argon2i13_@@YA?AVValue@Napi@@AEBVCallbackInfo@2@@Z 0000000180043020 f   crypto_pwhash.obj
 0001:000420c0       ?bind_crypto_pwhash_alg_argon2id13_@@YA?AVValue@Napi@@AEBVCallbackInfo@2@@Z 00000001800430c0 f   crypto_pwhash.obj
 0001:00042160       ?bind_crypto_pwhash_strprefix_@@YA?AVValue@Napi@@AEBVCallbackInfo@2@@Z 0000000180043160 f   crypto_pwhash.obj
 0001:00042210       ?bind_crypto_pwhash_primitive_@@YA?AVValue@Napi@@AEBVCallbackInfo@2@@Z 0000000180043210 f   crypto_pwhash.obj
 0001:000422c0       ?register_crypto_pwhash@@YAXVEnv@Napi@@VObject@2@@Z 00000001800432c0 f   crypto_pwhash.obj
 0001:000446f0       ?bind_crypto_hash_@@YA?AVValue@Napi@@AEBVCallbackInfo@2@@Z 00000001800456f0 f   crypto_hash.obj
 0001:00044930       ?bind_crypto_hash_bytes_@@YA?AVValue@Napi@@AEBVCallbackInfo@2@@Z 0000000180045930 f   crypto_hash.obj
 0001:000449e0       ?bind_crypto_hash_primitive_@@YA?AVValue@Napi@@AEBVCallbackInfo@2@@Z 00000001800459e0 f   crypto_hash.obj
 0001:00044a90       ?register_crypto_hash@@YAXVEnv@Napi@@VObject@2@@Z 0000000180045a90 f   crypto_hash.obj
 0001:00044ea0       ?bind_crypto_hash_sha256_@@YA?AVValue@Napi@@AEBVCallbackInfo@2@@Z 0000000180045ea0 f   crypto_hash_sha256.obj
 0001:000450e0       ?bind_crypto_hash_sha256_init_@@YA?AVValue@Napi@@AEBVCallbackInfo@2@@Z 00000001800460e0 f   crypto_hash_sha256.obj
 0001:00045210       ?bind_crypto_hash_sha256_update_@@YA?AVValue@Napi@@AEBVCallbackInfo@2@@Z 0000000180046210 f   crypto_hash_sha256.obj
 0001:00045530       ?bind_crypto_hash_sha256_bytes_@@YA?AVValue@Napi@@AEBVCallbackInfo@2@@Z 0000000180046530 f   crypto_hash_sha256.obj
 0001:000455e0       ?bind_crypto_hash_sha256_statebytes_@@YA?AVValue@Napi@@AEBVCallbackInfo@2@@Z 00000001800465e0 f   crypto_hash_sha256.obj
 0001:00045690       ?bind_crypto_hash_sha256_final_@@YA?AVValue@Napi@@AEBVCallbackInfo@2@@Z 0000000180046690 f   crypto_hash_sha256.obj
 0001:00045900       ?register_crypto_hash_sha256@@YAXVEnv@Napi@@VObject@2@@Z 0000000180046900 f   crypto_hash_sha256.obj
 0001:00045db0       ?bind_crypto_hash_sha512_@@YA?AVValue@Napi@@AEBVCallbackInfo@2@@Z 0000000180046db0 f   crypto_hash_sha512.obj
 0001:00045ff0       ?bind_crypto_hash_sha512_init_@@YA?AVValue@Napi@@AEBVCallbackInfo@2@@Z 0000000180046ff0 f   crypto_hash_sha512.obj
 0001:00046120       ?bind_crypto_hash_sha512_update_@@YA?AVValue@Napi@@AEBVCallbackInfo@2@@Z 0000000180047120 f   crypto_hash_sha512.obj
 0001:00046440       ?bind_crypto_hash_sha512_final_@@YA?AVValue@Napi@@AEBVCallbackInfo@2@@Z 0000000180047440 f   crypto_hash_sha512.obj
 0001:00046670       ?bind_crypto_hash_sha512_bytes_@@YA?AVValue@Napi@@AEBVCallbackInfo@2@@Z 0000000180047670 f   crypto_hash_sha512.obj
 0001:00046720       ?bind_crypto_hash_sha512_statebytes_@@YA?AVValue@Napi@@AEBVCallbackInfo@2@@Z 0000000180047720 f   crypto_hash_sha512.obj
 0001:000467d0       ?register_crypto_hash_sha512@@YAXVEnv@Napi@@VObject@2@@Z 00000001800477d0 f   crypto_hash_sha512.obj
 0001:00046c80       ?bind_crypto_shorthash_@@YA?AVValue@Napi@@AEBVCallbackInfo@2@@Z 0000000180047c80 f   crypto_shorthash.obj
 0001:00046fb0       ?register_crypto_shorthash@@YAXVEnv@Napi@@VObject@2@@Z 0000000180047fb0 f   crypto_shorthash.obj
 0001:000473a0       ?bind_crypto_shorthash_siphash24_@@YA?AVValue@Napi@@AEBVCallbackInfo@2@@Z 00000001800483a0 f   crypto_shorthash_siphash24.obj
 0001:000476d0       ?register_crypto_shorthash_siphash24@@YAXVEnv@Napi@@VObject@2@@Z 00000001800486d0 f   crypto_shorthash_siphash24.obj
 0001:000479c0       ?bind_crypto_generichash_@@YA?AVValue@Napi@@AEBVCallbackInfo@2@@Z 00000001800489c0 f   crypto_generichash.obj
 0001:00047e60       ?bind_crypto_generichash_init_@@YA?AVValue@Napi@@AEBVCallbackInfo@2@@Z 0000000180048e60 f   crypto_generichash.obj
 0001:00048230       ?bind_crypto_generichash_update_@@YA?AVValue@Napi@@AEBVCallbackInfo@2@@Z 0000000180049230 f   crypto_generichash.obj
 0001:00048550       ?bind_crypto_generichash_final_@@YA?AVValue@Napi@@AEBVCallbackInfo@2@@Z 0000000180049550 f   crypto_generichash.obj
 0001:00048890       ?bind_crypto_generichash_primitive_@@YA?AVValue@Napi@@AEBVCallbackInfo@2@@Z 0000000180049890 f   crypto_generichash.obj
 0001:00048940       ?bind_crypto_generichash_statebytes_@@YA?AVValue@Napi@@AEBVCallbackInfo@2@@Z 0000000180049940 f   crypto_generichash.obj
 0001:000489f0       ?bind_crypto_generichash_bytes_@@YA?AVValue@Napi@@AEBVCallbackInfo@2@@Z 00000001800499f0 f   crypto_generichash.obj
 0001:00048aa0       ?bind_crypto_generichash_bytes_min_@@YA?AVValue@Napi@@AEBVCallbackInfo@2@@Z 0000000180049aa0 f   crypto_generichash.obj
 0001:00048b50       ?bind_crypto_generichash_bytes_max_@@YA?AVValue@Napi@@AEBVCallbackInfo@2@@Z 0000000180049b50 f   crypto_generichash.obj
 0001:00048c00       ?bind_crypto_generichash_keybytes_@@YA?AVValue@Napi@@AEBVCallbackInfo@2@@Z 0000000180049c00 f   crypto_generichash.obj
 0001:00048cb0       ?bind_crypto_generichash_keybytes_min_@@YA?AVValue@Napi@@AEBVCallbackInfo@2@@Z 0000000180049cb0 f   crypto_generichash.obj
 0001:00048d60       ?bind_crypto_generichash_keybytes_max_@@YA?AVValue@Napi@@AEBVCallbackInfo@2@@Z 0000000180049d60 f   crypto_generichash.obj
 0001:00048e10       ?bind_crypto_generichash_keygen_@@YA?AVValue@Napi@@AEBVCallbackInfo@2@@Z 0000000180049e10 f   crypto_generichash.obj
 0001:00048ef0       ?register_crypto_generichash@@YAXVEnv@Napi@@VObject@2@@Z 0000000180049ef0 f   crypto_generichash.obj
 0001:00049db0       ?bind_crypto_generichash_blake2b_@@YA?AVValue@Napi@@AEBVCallbackInfo@2@@Z 000000018004adb0 f   crypto_generichash_blake2b.obj
 0001:0004a250       ?bind_crypto_generichash_blake2b_init_@@YA?AVValue@Napi@@AEBVCallbackInfo@2@@Z 000000018004b250 f   crypto_generichash_blake2b.obj
 0001:0004a620       ?bind_crypto_generichash_blake2b_update_@@YA?AVValue@Napi@@AEBVCallbackInfo@2@@Z 000000018004b620 f   crypto_generichash_blake2b.obj
 0001:0004a940       ?bind_crypto_generichash_blake2b_final_@@YA?AVValue@Napi@@AEBVCallbackInfo@2@@Z 000000018004b940 f   crypto_generichash_blake2b.obj
 0001:0004ac80       ?bind_crypto_generichash_blake2b_salt_personal_@@YA?AVValue@Napi@@AEBVCallbackInfo@2@@Z 000000018004bc80 f   crypto_generichash_blake2b.obj
 0001:0004b290       ?bind_crypto_generichash_blake2b_bytes_@@YA?AVValue@Napi@@AEBVCallbackInfo@2@@Z 000000018004c290 f   crypto_generichash_blake2b.obj
 0001:0004b340       ?bind_crypto_generichash_blake2b_bytes_min_@@YA?AVValue@Napi@@AEBVCallbackInfo@2@@Z 000000018004c340 f   crypto_generichash_blake2b.obj
 0001:0004b3f0       ?bind_crypto_generichash_blake2b_bytes_max_@@YA?AVValue@Napi@@AEBVCallbackInfo@2@@Z 000000018004c3f0 f   crypto_generichash_blake2b.obj
 0001:0004b4a0       ?bind_crypto_generichash_blake2b_keybytes_@@YA?AVValue@Napi@@AEBVCallbackInfo@2@@Z 000000018004c4a0 f   crypto_generichash_blake2b.obj
 0001:0004b550       ?bind_crypto_generichash_blake2b_keybytes_min_@@YA?AVValue@Napi@@AEBVCallbackInfo@2@@Z 000000018004c550 f   crypto_generichash_blake2b.obj
 0001:0004b600       ?bind_crypto_generichash_blake2b_keybytes_max_@@YA?AVValue@Napi@@AEBVCallbackInfo@2@@Z 000000018004c600 f   crypto_generichash_blake2b.obj
 0001:0004b6b0       ?bind_crypto_generichash_blake2b_saltbytes_@@YA?AVValue@Napi@@AEBVCallbackInfo@2@@Z 000000018004c6b0 f   crypto_generichash_blake2b.obj
 0001:0004b760       ?bind_crypto_generichash_blake2b_personalbytes_@@YA?AVValue@Napi@@AEBVCallbackInfo@2@@Z 000000018004c760 f   crypto_generichash_blake2b.obj
 0001:0004b810       ?bind_crypto_generichash_blake2b_statebytes_@@YA?AVValue@Napi@@AEBVCallbackInfo@2@@Z 000000018004c810 f   crypto_generichash_blake2b.obj
 0001:0004b8c0       ?bind_crypto_generichash_blake2b_keygen_@@YA?AVValue@Napi@@AEBVCallbackInfo@2@@Z 000000018004c8c0 f   crypto_generichash_blake2b.obj
 0001:0004b9a0       ?register_crypto_generichash_blake2b@@YAXVEnv@Napi@@VObject@2@@Z 000000018004c9a0 f   crypto_generichash_blake2b.obj
 0001:0004cb20       ?register_crypto_onetimeauth@@YAXVEnv@Napi@@VObject@2@@Z 000000018004db20 f   crypto_onetimeauth.obj
 0001:0004d1f0       ?bind_crypto_onetimeauth_poly1305_@@YA?AVValue@Napi@@AEBVCallbackInfo@2@@Z 000000018004e1f0 f   crypto_onetimeauth_poly1305.obj
 0001:0004d520       ?bind_crypto_onetimeauth_poly1305_verify_@@YA?AVValue@Napi@@AEBVCallbackInfo@2@@Z 000000018004e520 f   crypto_onetimeauth_poly1305.obj
 0001:0004d8e0       ?bind_crypto_onetimeauth_poly1305_init_@@YA?AVValue@Napi@@AEBVCallbackInfo@2@@Z 000000018004e8e0 f   crypto_onetimeauth_poly1305.obj
 0001:0004db70       ?bind_crypto_onetimeauth_poly1305_update_@@YA?AVValue@Napi@@AEBVCallbackInfo@2@@Z 000000018004eb70 f   crypto_onetimeauth_poly1305.obj
 0001:0004de90       ?bind_crypto_onetimeauth_poly1305_final_@@YA?AVValue@Napi@@AEBVCallbackInfo@2@@Z 000000018004ee90 f   crypto_onetimeauth_poly1305.obj
 0001:0004e0c0       ?bind_crypto_onetimeauth_poly1305_bytes_@@YA?AVValue@Napi@@AEBVCallbackInfo@2@@Z 000000018004f0c0 f   crypto_onetimeauth_poly1305.obj
 0001:0004e170       ?bind_crypto_onetimeauth_poly1305_keybytes_@@YA?AVValue@Napi@@AEBVCallbackInfo@2@@Z 000000018004f170 f   crypto_onetimeauth_poly1305.obj
 0001:0004e220       ?bind_crypto_onetimeauth_poly1305_statebytes_@@YA?AVValue@Napi@@AEBVCallbackInfo@2@@Z 000000018004f220 f   crypto_onetimeauth_poly1305.obj
 0001:0004e2d0       ?bind_crypto_onetimeauth_poly1305_keygen_@@YA?AVValue@Napi@@AEBVCallbackInfo@2@@Z 000000018004f2d0 f   crypto_onetimeauth_poly1305.obj
 0001:0004e3b0       ?register_crypto_onetimeauth_poly1305@@YAXVEnv@Napi@@VObject@2@@Z 000000018004f3b0 f   crypto_onetimeauth_poly1305.obj
 0001:0004eb7c       __imp_load_napi_create_function 000000018004fb7c f   node:node.exe
 0001:0004eb88       __tailMerge_node_exe       000000018004fb88 f i node:node.exe
 0001:0004ec01       __imp_load_napi_open_handle_scope 000000018004fc01 f   node:node.exe
 0001:0004ec0d       __imp_load_napi_get_boolean 000000018004fc0d f   node:node.exe
 0001:0004ec19       __imp_load_napi_get_last_error_info 000000018004fc19 f   node:node.exe
 0001:0004ec25       __imp_load_napi_create_error 000000018004fc25 f   node:node.exe
 0001:0004ec31       __imp_load_napi_is_buffer  000000018004fc31 f   node:node.exe
 0001:0004ec3d       __imp_load_napi_get_null   000000018004fc3d f   node:node.exe
 0001:0004ec49       __imp_load_napi_delete_reference 000000018004fc49 f   node:node.exe
 0001:0004ec55       __imp_load_napi_fatal_error 000000018004fc55 f   node:node.exe
 0001:0004ec61       __imp_load_napi_is_exception_pending 000000018004fc61 f   node:node.exe
 0001:0004ec6d       __imp_load_napi_create_symbol 000000018004fc6d f   node:node.exe
 0001:0004ec79       __imp_load_napi_get_value_string_utf8 000000018004fc79 f   node:node.exe
 0001:0004ec85       __imp_load_napi_close_escapable_handle_scope 000000018004fc85 f   node:node.exe
 0001:0004ec91       __imp_load_napi_escape_handle 000000018004fc91 f   node:node.exe
 0001:0004ec9d       __imp_load_napi_get_buffer_info 000000018004fc9d f   node:node.exe
 0001:0004eca9       __imp_load_napi_create_type_error 000000018004fca9 f   node:node.exe
 0001:0004ecb5       __imp_load_napi_create_external 000000018004fcb5 f   node:node.exe
 0001:0004ecc1       __imp_load_napi_create_string_utf8 000000018004fcc1 f   node:node.exe
 0001:0004eccd       __imp_load_napi_create_buffer 000000018004fccd f   node:node.exe
 0001:0004ecd9       __imp_load_napi_get_named_property 000000018004fcd9 f   node:node.exe
 0001:0004ece5       __imp_load_napi_define_properties 000000018004fce5 f   node:node.exe
 0001:0004ecf1       __imp_load_napi_typeof     000000018004fcf1 f   node:node.exe
 0001:0004ecfd       __imp_load_napi_throw      000000018004fcfd f   node:node.exe
 0001:0004ed09       __imp_load_napi_get_and_clear_last_exception 000000018004fd09 f   node:node.exe
 0001:0004ed15       __imp_load_napi_create_object 000000018004fd15 f   node:node.exe
 0001:0004ed21       __imp_load_napi_get_undefined 000000018004fd21 f   node:node.exe
 0001:0004ed2d       __imp_load_napi_get_typedarray_info 000000018004fd2d f   node:node.exe
 0001:0004ed39       __imp_load_napi_set_property 000000018004fd39 f   node:node.exe
 0001:0004ed45       __imp_load_napi_get_cb_info 000000018004fd45 f   node:node.exe
 0001:0004ed51       __imp_load_napi_open_escapable_handle_scope 000000018004fd51 f   node:node.exe
 0001:0004ed5d       __imp_load_napi_create_reference 000000018004fd5d f   node:node.exe
 0001:0004ed69       __imp_load_napi_close_handle_scope 000000018004fd69 f   node:node.exe
 0001:0004ed75       __imp_load_napi_create_double 000000018004fd75 f   node:node.exe
 0001:0004ed81       __imp_load_napi_get_reference_value 000000018004fd81 f   node:node.exe
 0001:0004ed8d       __imp_load_napi_module_register 000000018004fd8d f   node:node.exe
 0001:0004ed99       __imp_load_napi_get_value_uint32 000000018004fd99 f   node:node.exe
 0001:0004eda8       ??0bad_alloc@std@@QEAA@AEBV01@@Z 000000018004fda8 f i libcpmt:xthrow.obj
 0001:0004ede8       ??0bad_alloc@std@@QEAA@XZ  000000018004fde8 f i libcpmt:xthrow.obj
 0001:0004ee08       ??0exception@std@@QEAA@AEBV01@@Z 000000018004fe08 f i libcpmt:xthrow.obj
 0001:0004ee40       ??0length_error@std@@QEAA@AEBV01@@Z 000000018004fe40 f i libcpmt:xthrow.obj
 0001:0004ee80       ??0length_error@std@@QEAA@PEBD@Z 000000018004fe80 f i libcpmt:xthrow.obj
 0001:0004eecc       ??0logic_error@std@@QEAA@AEBV01@@Z 000000018004fecc f i libcpmt:xthrow.obj
 0001:0004ef0c       ??_Ebad_exception@std@@UEAAPEAXI@Z 000000018004ff0c f i libvcruntime:frame.obj
 0001:0004ef0c       ??_Elength_error@std@@UEAAPEAXI@Z 000000018004ff0c f i libcpmt:xthrow.obj
 0001:0004ef0c       ??_Gexception@std@@UEAAPEAXI@Z 000000018004ff0c f i libcpmt:xthrow.obj
 0001:0004ef0c       ??_Glogic_error@std@@UEAAPEAXI@Z 000000018004ff0c f i libcpmt:xthrow.obj
 0001:0004ef0c       ??_Gbad_array_new_length@std@@UEAAPEAXI@Z 000000018004ff0c f i LIBCMT:throw_bad_alloc.obj
 0001:0004ef0c       ??_Ebad_alloc@std@@UEAAPEAXI@Z 000000018004ff0c f i libcpmt:xthrow.obj
 0001:0004ef0c       ??_Gbad_alloc@std@@UEAAPEAXI@Z 000000018004ff0c f i libcpmt:xthrow.obj
 0001:0004ef0c       ??_Gbad_exception@std@@UEAAPEAXI@Z 000000018004ff0c f i libvcruntime:frame.obj
 0001:0004ef0c       ??_Elogic_error@std@@UEAAPEAXI@Z 000000018004ff0c f i libcpmt:xthrow.obj
 0001:0004ef0c       ??_Eexception@std@@UEAAPEAXI@Z 000000018004ff0c f i libcpmt:xthrow.obj
 0001:0004ef0c       ??_Glength_error@std@@UEAAPEAXI@Z 000000018004ff0c f i libcpmt:xthrow.obj
 0001:0004ef0c       ??_Ebad_array_new_length@std@@UEAAPEAXI@Z 000000018004ff0c f i LIBCMT:throw_bad_alloc.obj
 0001:0004ef50       ?_Xlength_error@std@@YAXPEBD@Z 000000018004ff50 f   libcpmt:xthrow.obj
 0001:0004ef74       ?what@exception@std@@UEBAPEBDXZ 000000018004ff74 f i libcpmt:xthrow.obj
 0001:0004efa0       __security_check_cookie    000000018004ffa0 f   LIBCMT:_amdsecgs_.obj
 0001:0004efc4       ??3@YAXPEAX_K@Z            000000018004ffc4 f   LIBCMT:delete_scalar_size.obj
 0001:0004efc4       ??_V@YAXPEAX@Z             000000018004ffc4 f   LIBCMT:delete_array.obj
 0001:0004efcc       ??2@YAPEAX_K@Z             000000018004ffcc f   LIBCMT:new_scalar.obj
 0001:0004f008       ??3@YAXPEAX@Z              0000000180050008 f   LIBCMT:delete_scalar.obj
 0001:0004f010       ??_U@YAPEAX_K@Z            0000000180050010 f   LIBCMT:new_array.obj
 0001:0004f018       ??_Gtype_info@@UEAAPEAXI@Z 0000000180050018 f i LIBCMT:std_type_info_static.obj
 0001:0004f018       ??_Etype_info@@UEAAPEAXI@Z 0000000180050018 f i LIBCMT:std_type_info_static.obj
 0001:0004f390       _DllMainCRTStartup         0000000180050390 f   LIBCMT:dll_dllmain.obj
 0001:0004f3d0       __raise_securityfailure    00000001800503d0 f   LIBCMT:gs_report.obj
 0001:0004f404       __report_gsfailure         0000000180050404 f   LIBCMT:gs_report.obj
 0001:0004f4d8       __report_rangecheckfailure 00000001800504d8 f   LIBCMT:gs_report.obj
 0001:0004f4ec       __report_securityfailure   00000001800504ec f   LIBCMT:gs_report.obj
 0001:0004f66c       ??0bad_array_new_length@std@@QEAA@AEBV01@@Z 000000018005066c f i LIBCMT:throw_bad_alloc.obj
 0001:0004f6ac       ??0bad_array_new_length@std@@QEAA@XZ 00000001800506ac f i LIBCMT:throw_bad_alloc.obj
 0001:0004f6cc       ?_Xbad_alloc@std@@YAXXZ    00000001800506cc f   libcpmt:xthrow.obj
 0001:0004f6cc       ?__scrt_throw_std_bad_alloc@@YAXXZ 00000001800506cc f   LIBCMT:throw_bad_alloc.obj
 0001:0004f6ec       ?__scrt_throw_std_bad_array_new_length@@YAXXZ 00000001800506ec f   LIBCMT:throw_bad_alloc.obj
 0001:0004f70c       __scrt_acquire_startup_lock 000000018005070c f   LIBCMT:utility.obj
 0001:0004f748       __scrt_dllmain_after_initialize_c 0000000180050748 f   LIBCMT:utility.obj
 0001:0004f77c       __scrt_dllmain_before_initialize_c 000000018005077c f   LIBCMT:utility.obj
 0001:0004f794       __scrt_dllmain_crt_thread_attach 0000000180050794 f   LIBCMT:utility.obj
 0001:0004f7bc       __scrt_dllmain_crt_thread_detach 00000001800507bc f   LIBCMT:utility.obj
 0001:0004f7d4       __scrt_dllmain_exception_filter 00000001800507d4 f   LIBCMT:utility.obj
 0001:0004f838       __scrt_dllmain_uninitialize_c 0000000180050838 f   LIBCMT:utility.obj
 0001:0004f868       __scrt_dllmain_uninitialize_critical 0000000180050868 f   LIBCMT:utility.obj
 0001:0004f87c       __scrt_initialize_crt      000000018005087c f   LIBCMT:utility.obj
 0001:0004f8c8       __scrt_initialize_onexit_tables 00000001800508c8 f   LIBCMT:utility.obj
 0001:0004f994       __scrt_is_nonwritable_in_current_image 0000000180050994 f   LIBCMT:utility.obj
 0001:0004fa30       __scrt_release_startup_lock 0000000180050a30 f   LIBCMT:utility.obj
 0001:0004fa54       __scrt_uninitialize_crt    0000000180050a54 f   LIBCMT:utility.obj
 0001:0004fa80       _onexit                    0000000180050a80 f   LIBCMT:utility.obj
 0001:0004fad0       atexit                     0000000180050ad0 f   LIBCMT:utility.obj
 0001:0004fae8       __security_init_cookie     0000000180050ae8 f   LIBCMT:gs_support.obj
 0001:0004fb94       _get_startup_argv_mode     0000000180050b94 f   LIBCMT:argv_mode.obj
 0001:0004fb94       DllMain                    0000000180050b94 f   LIBCMT:dll_dllmain_stub.obj
 0001:0004fb9c       ?__scrt_initialize_type_info@@YAXXZ 0000000180050b9c f   LIBCMT:tncleanup.obj
 0001:0004fbac       ?__scrt_uninitialize_type_info@@YAXXZ 0000000180050bac f   LIBCMT:tncleanup.obj
 0001:0004fbb8       __local_stdio_printf_options 0000000180050bb8 f i LIBCMT:default_local_stdio_options.obj
 0001:0004fbc0       __local_stdio_scanf_options 0000000180050bc0 f i LIBCMT:default_local_stdio_options.obj
 0001:0004fbc8       __scrt_initialize_default_local_stdio_options 0000000180050bc8 f   LIBCMT:default_local_stdio_options.obj
 0001:0004fbe4       __scrt_get_dyn_tls_init_callback 0000000180050be4 f   LIBCMT:dyn_tls_init.obj
 0001:0004fbec       __crt_debugger_hook        0000000180050bec f   LIBCMT:utility_desktop.obj
 0001:0004fbf4       __scrt_fastfail            0000000180050bf4 f   LIBCMT:utility_desktop.obj
 0001:0004fd3c       _RTC_Initialize            0000000180050d3c f   LIBCMT:_initsect_.obj
 0001:0004fd88       _RTC_Terminate             0000000180050d88 f   LIBCMT:_initsect_.obj
 0001:0004fdd4       _guard_check_icall         0000000180050dd4 f i LIBCMT:checkcfg.obj
 0001:0004fddc       __isa_available_init       0000000180050ddc f   LIBCMT:_cpu_disp_.obj
 0001:0004ffa4       __scrt_is_ucrt_dll_in_use  0000000180050fa4 f   LIBCMT:ucrt_detection.obj
 0001:0004ffc0       memcpy                     0000000180050fc0 f   libvcruntime:memcpy.obj
 0001:0004ffc0       memmove                    0000000180050fc0 f   libvcruntime:memcpy.obj
 0001:000503f8       __DestructExceptionObject  00000001800513f8 f   libvcruntime:frame.obj
 0001:00050480       ??0bad_exception@std@@QEAA@AEBV01@@Z 0000000180051480 f i libvcruntime:frame.obj
 0001:000504c0       ??0bad_exception@std@@QEAA@XZ 00000001800514c0 f i libvcruntime:frame.obj
 0001:000504e0       ??1bad_array_new_length@std@@UEAA@XZ 00000001800514e0 f i LIBCMT:throw_bad_alloc.obj
 0001:000504e0       ??1bad_exception@std@@UEAA@XZ 00000001800514e0 f i libvcruntime:frame.obj
 0001:000504e0       ??1bad_alloc@std@@UEAA@XZ  00000001800514e0 f i libcpmt:xthrow.obj
 0001:000504e0       ??1length_error@std@@UEAA@XZ 00000001800514e0 f i libcpmt:xthrow.obj
 0001:00050e50       ?_CallMemberFunction0@@YAXPEAXP6AX0@Z@Z 0000000180051e50 f i libvcruntime:frame.obj
 0001:00050e54       ?_CallMemberFunction1@@YAXPEAXP6AX0@Z0@Z 0000000180051e54 f i libvcruntime:frame.obj
 0001:00050e60       ?_CallMemberFunction2@@YAXPEAXP6AX0@Z0H@Z 0000000180051e60 f i libvcruntime:frame.obj
 0001:00050e70       __AdjustPointer            0000000180051e70 f   libvcruntime:frame.obj
 0001:00050e94       __BuildCatchObject         0000000180051e94 f   libvcruntime:frame.obj
 0001:00050f58       __BuildCatchObjectHelper   0000000180051f58 f   libvcruntime:frame.obj
 0001:00051138       __CxxCallCatchBlock        0000000180052138 f   libvcruntime:frame.obj
 0001:00051324       __FrameUnwindFilter        0000000180052324 f   libvcruntime:frame.obj
 0001:00051370       __FrameUnwindToState       0000000180052370 f   libvcruntime:frame.obj
 0001:00051504       __InternalCxxFrameHandler  0000000180052504 f   libvcruntime:frame.obj
 0001:0005175c       __TypeMatch                000000018005275c f   libvcruntime:frame.obj
 0001:0005189c       __std_exception_copy       000000018005289c f   libvcruntime:std_exception.obj
 0001:0005192c       __std_exception_destroy    000000018005292c f   libvcruntime:std_exception.obj
 0001:00051954       _CxxThrowException         0000000180052954 f   libvcruntime:throw.obj
 0001:00051a2c       __C_specific_handler       0000000180052a2c f   libvcruntime:_chandler_.obj
 0001:00051c28       __vcrt_initialize          0000000180052c28 f   libvcruntime:initialization.obj
 0001:00051c5c       __vcrt_thread_attach       0000000180052c5c f   libvcruntime:initialization.obj
 0001:00051c70       __vcrt_thread_detach       0000000180052c70 f   libvcruntime:initialization.obj
 0001:00051c84       __vcrt_uninitialize        0000000180052c84 f   libvcruntime:initialization.obj
 0001:00051ca4       __vcrt_uninitialize_critical 0000000180052ca4 f   libvcruntime:initialization.obj
 0001:00051cb4       __std_type_info_compare    0000000180052cb4 f   libvcruntime:std_type_info.obj
 0001:00051cdc       __std_type_info_destroy_list 0000000180052cdc f   libvcruntime:std_type_info.obj
 0001:00051d20       memset                     0000000180052d20 f   libvcruntime:memset.obj
 0001:00051ec0       __vcrt_freefls             0000000180052ec0 f   libvcruntime:per_thread_data.obj
 0001:00051ee0       __vcrt_freeptd             0000000180052ee0 f   libvcruntime:per_thread_data.obj
 0001:00051f30       __vcrt_getptd              0000000180052f30 f   libvcruntime:per_thread_data.obj
 0001:00051f4c       __vcrt_getptd_noexit       0000000180052f4c f   libvcruntime:per_thread_data.obj
 0001:00052004       __vcrt_initialize_ptd      0000000180053004 f   libvcruntime:per_thread_data.obj
 0001:00052044       __vcrt_uninitialize_ptd    0000000180053044 f   libvcruntime:per_thread_data.obj
 0001:00052068       ?__GetCurrentState@@YAHPEA_KPEAU_xDISPATCHER_CONTEXT@@PEBU_s_FuncInfo@@@Z 0000000180053068 f   libvcruntime:ehstate.obj
 0001:00052090       ?__GetUnwindTryBlock@@YAHPEA_KPEAU_xDISPATCHER_CONTEXT@@PEBU_s_FuncInfo@@@Z 0000000180053090 f   libvcruntime:ehstate.obj
 0001:000520bc       ?__SetState@@YAXPEA_KPEAU_xDISPATCHER_CONTEXT@@PEBU_s_FuncInfo@@H@Z 00000001800530bc f   libvcruntime:ehstate.obj
 0001:000520c8       ?__SetUnwindTryBlock@@YAXPEA_KPEAU_xDISPATCHER_CONTEXT@@PEBU_s_FuncInfo@@H@Z 00000001800530c8 f   libvcruntime:ehstate.obj
 0001:00052104       ?__StateFromControlPc@@YAHPEBU_s_FuncInfo@@PEAU_xDISPATCHER_CONTEXT@@@Z 0000000180053104 f   libvcruntime:ehstate.obj
 0001:0005210c       ?__StateFromIp@@YAHPEBU_s_FuncInfo@@PEAU_xDISPATCHER_CONTEXT@@_J@Z 000000018005310c f   libvcruntime:ehstate.obj
 0001:00052190       _CallSettingFrame          0000000180053190 f   libvcruntime:handlers.obj
 0001:000521d0       ?_ExecutionInCatch@@YAHPEAU_xDISPATCHER_CONTEXT@@PEBU_s_FuncInfo@@@Z 00000001800531d0 f   libvcruntime:trnsctrl.obj
 0001:00052244       ?_GetEstablisherFrame@@YAPEA_KPEA_KPEAU_xDISPATCHER_CONTEXT@@PEBU_s_FuncInfo@@0@Z 0000000180053244 f   libvcruntime:trnsctrl.obj
 0001:00052310       ?_GetRangeOfTrysToCheck@@YAPEBU_s_TryBlockMapEntry@@PEA_KPEBU_s_FuncInfo@@HHPEAI2PEAU_xDISPATCHER_CONTEXT@@@Z 0000000180053310 f   libvcruntime:trnsctrl.obj
 0001:0005243c       ?__FrameUnwindToEmptyState@@YAXPEA_KPEAU_xDISPATCHER_CONTEXT@@PEBU_s_FuncInfo@@@Z 000000018005343c f   libvcruntime:trnsctrl.obj
 0001:000524d0       ?__SehTransFilter@@YAHPEAU_EXCEPTION_POINTERS@@PEAUEHExceptionRecord@@PEA_KPEAU_CONTEXT@@PEAU_xDISPATCHER_CONTEXT@@PEBU_s_FuncInfo@@PEAH@Z 00000001800534d0 f   libvcruntime:trnsctrl.obj
 0001:00052568       _CallSETranslator          0000000180053568 f   libvcruntime:trnsctrl.obj
 0001:000525c0       _CreateFrameInfo           00000001800535c0 f   libvcruntime:trnsctrl.obj
 0001:000525fc       _FindAndUnlinkFrame        00000001800535fc f   libvcruntime:trnsctrl.obj
 0001:00052654       _GetImageBase              0000000180053654 f   libvcruntime:trnsctrl.obj
 0001:00052668       _GetThrowImageBase         0000000180053668 f   libvcruntime:trnsctrl.obj
 0001:0005267c       _IsExceptionObjectToBeDestroyed 000000018005367c f   libvcruntime:trnsctrl.obj
 0001:000526ac       _SetImageBase              00000001800536ac f   libvcruntime:trnsctrl.obj
 0001:000526c4       _SetThrowImageBase         00000001800536c4 f   libvcruntime:trnsctrl.obj
 0001:000526dc       _UnwindNestedFrames        00000001800536dc f   libvcruntime:trnsctrl.obj
 0001:00052800       __CxxFrameHandler3         0000000180053800 f   libvcruntime:trnsctrl.obj
 0001:00052890       _local_unwind              0000000180053890 f   libvcruntime:_jmpuwind_.obj
 0001:000528c0       _NLG_Notify                00000001800538c0 f   libvcruntime:_jmpuwind_.obj
 0001:000528e0       __NLG_Dispatch2            00000001800538e0 f   libvcruntime:_jmpuwind_.obj
 0001:000528f0       __NLG_Return2              00000001800538f0 f   libvcruntime:_jmpuwind_.obj
 0001:000528f4       __vcrt_initialize_locks    00000001800538f4 f   libvcruntime:locks.obj
 0001:0005293c       __vcrt_uninitialize_locks  000000018005393c f   libvcruntime:locks.obj
 0001:00052b3c       __vcrt_FlsAlloc            0000000180053b3c f   libvcruntime:winapi_downlevel.obj
 0001:00052b90       __vcrt_FlsFree             0000000180053b90 f   libvcruntime:winapi_downlevel.obj
 0001:00052be4       __vcrt_FlsGetValue         0000000180053be4 f   libvcruntime:winapi_downlevel.obj
 0001:00052c38       __vcrt_FlsSetValue         0000000180053c38 f   libvcruntime:winapi_downlevel.obj
 0001:00052ca0       __vcrt_InitializeCriticalSectionEx 0000000180053ca0 f   libvcruntime:winapi_downlevel.obj
 0001:00052d18       __vcrt_initialize_winapi_thunks 0000000180053d18 f   libvcruntime:winapi_downlevel.obj
 0001:00052d64       __vcrt_uninitialize_winapi_thunks 0000000180053d64 f   libvcruntime:winapi_downlevel.obj
 0001:00052da4       __vcrt_initialize_pure_virtual_call_handler 0000000180053da4 f   libvcruntime:purevirt_data.obj
 0001:00052dc8       __acrt_call_reportfault    0000000180053dc8 f   libucrt:invalid_parameter.obj
 0001:00052f24       __acrt_initialize_invalid_parameter_handler 0000000180053f24 f   libucrt:invalid_parameter.obj
 0001:00052f2c       _invalid_parameter         0000000180053f2c f   libucrt:invalid_parameter.obj
 0001:00052fd4       _invalid_parameter_noinfo  0000000180053fd4 f   libucrt:invalid_parameter.obj
 0001:00052ff4       _invalid_parameter_noinfo_noreturn 0000000180053ff4 f   libucrt:invalid_parameter.obj
 0001:00053024       _invoke_watson             0000000180054024 f   libucrt:invalid_parameter.obj
 0001:0005306c       ??0_LocaleUpdate@@QEAA@QEAU__crt_locale_pointers@@@Z 000000018005406c f i libucrt:stricmp.obj
 0001:000530fc       __ascii_stricmp            00000001800540fc f   libucrt:stricmp.obj
 0001:00053138       _stricmp                   0000000180054138 f   libucrt:stricmp.obj
 0001:00053180       _stricmp_l                 0000000180054180 f   libucrt:stricmp.obj
 0001:00053234       __acrt_initialize_new_handler 0000000180054234 f   libucrt:new_handler.obj
 0001:0005323c       _callnewh                  000000018005423c f   libucrt:new_handler.obj
 0001:0005327c       _query_new_handler         000000018005427c f   libucrt:new_handler.obj
 0001:000532b0       malloc                     00000001800542b0 f   libucrt:malloc.obj
 0001:000532b8       free                       00000001800542b8 f   libucrt:free.obj
 0001:000532c0       _initterm                  00000001800542c0 f   libucrt:initterm.obj
 0001:00053338       _initterm_e                0000000180054338 f   libucrt:initterm.obj
 0001:00053384       _seh_filter_dll            0000000180054384 f   libucrt:exception_filter.obj
 0001:00053398       _seh_filter_exe            0000000180054398 f   libucrt:exception_filter.obj
 0001:00053758       __acrt_initialize_thread_local_exit_callback 0000000180054758 f   libucrt:exit.obj
 0001:00053760       _cexit                     0000000180054760 f   libucrt:exit.obj
 0001:00053770       _exit                      0000000180054770 f   libucrt:exit.obj
 0001:0005377c       _is_c_termination_complete 000000018005477c f   libucrt:exit.obj
 0001:00053940       __acrt_allocate_buffer_for_argv 0000000180054940 f   libucrt:argv_parsing.obj
 0001:000539a4       _configure_narrow_argv     00000001800549a4 f   libucrt:argv_parsing.obj
 0001:00053d00       __dcrt_uninitialize_environments_nolock 0000000180054d00 f   libucrt:environment_initialization.obj
 0001:00053d38       _initialize_narrow_environment 0000000180054d38 f   libucrt:environment_initialization.obj
 0001:00053d40       ??$?RV<lambda_b8c45f8f788dd370798f47cfe8ac3a86>@@AEAV<lambda_4e60a939b0d047cfe11ddc22648dfba9>@@V<lambda_332c3edc96d0294ec56c57d38c1cdfd5>@@@?$__crt_seh_guarded_call@H@@QEAAH$$QEAV<lambda_b8c45f8f788dd370798f47cfe8ac3a86>@@AEAV<lambda_4e60a939b0d047cfe11ddc22648dfba9>@@$$QEAV<lambda_332c3edc96d0294ec56c57d38c1cdfd5>@@@Z 0000000180054d40 f i libucrt:onexit.obj
 0001:00053d7c       ??$?RV<lambda_e24bbb7b643b32fcea6fa61b31d4c984>@@AEAV<lambda_275893d493268fdec8709772e3fcec0e>@@V<lambda_9d71df4d7cf3f480f8d633942495c3b0>@@@?$__crt_seh_guarded_call@H@@QEAAH$$QEAV<lambda_e24bbb7b643b32fcea6fa61b31d4c984>@@AEAV<lambda_275893d493268fdec8709772e3fcec0e>@@$$QEAV<lambda_9d71df4d7cf3f480f8d633942495c3b0>@@@Z 0000000180054d7c f i libucrt:onexit.obj
 0001:000540f8       _crt_atexit                00000001800550f8 f   libucrt:onexit.obj
 0001:00054108       _execute_onexit_table      0000000180055108 f   libucrt:onexit.obj
 0001:00054144       _initialize_onexit_table   0000000180055144 f   libucrt:onexit.obj
 0001:00054184       _register_onexit_function  0000000180055184 f   libucrt:onexit.obj
 0001:00054300       __acrt_initialize          0000000180055300 f   libucrt:initialization.obj
 0001:00054314       __acrt_thread_attach       0000000180055314 f   libucrt:initialization.obj
 0001:00054328       __acrt_thread_detach       0000000180055328 f   libucrt:initialization.obj
 0001:00054338       __acrt_uninitialize        0000000180055338 f   libucrt:initialization.obj
 0001:0005434c       __acrt_uninitialize_critical 000000018005534c f   libucrt:initialization.obj
 0001:0005435c       terminate                  000000018005535c f   libucrt:terminate.obj
 0001:00054384       strcpy_s                   0000000180055384 f   libucrt:strcpy_s.obj
 0001:000543e4       _free_base                 00000001800553e4 f   libucrt:free_base.obj
 0001:00054424       _malloc_base               0000000180055424 f   libucrt:malloc_base.obj
 0001:00054484       abort                      0000000180055484 f   libucrt:abort.obj
 0001:000544dc       _calloc_base               00000001800554dc f   libucrt:calloc_base.obj
 0001:00054554       ??$?RV<lambda_46352004c1216016012b18bd6f87e700>@@AEAV<lambda_3bd07e1a1191394380780325891bf33f>@@V<lambda_334532d3f185bcaa59b5be82d7d22bff>@@@?$__crt_seh_guarded_call@X@@QEAAX$$QEAV<lambda_46352004c1216016012b18bd6f87e700>@@AEAV<lambda_3bd07e1a1191394380780325891bf33f>@@$$QEAV<lambda_334532d3f185bcaa59b5be82d7d22bff>@@@Z 0000000180055554 f i libucrt:per_thread_data.obj
 0001:000545b4       ??$?RV<lambda_5e887d1dcbef67a5eb4283622ba103bf>@@AEAV<lambda_4466841279450cc726390878d4a41900>@@V<lambda_341c25c0346d94847f1f3c463c57e077>@@@?$__crt_seh_guarded_call@X@@QEAAX$$QEAV<lambda_5e887d1dcbef67a5eb4283622ba103bf>@@AEAV<lambda_4466841279450cc726390878d4a41900>@@$$QEAV<lambda_341c25c0346d94847f1f3c463c57e077>@@@Z 00000001800555b4 f i libucrt:per_thread_data.obj
 0001:000545fc       ??$?RV<lambda_72d1df2b273a38828b1ce30cbf4cdab5>@@AEAV<lambda_876a65b173b8412d3a47c70a915b0cf4>@@V<lambda_41932305e351933ebe8f8be3ed8bb5dc>@@@?$__crt_seh_guarded_call@X@@QEAAX$$QEAV<lambda_72d1df2b273a38828b1ce30cbf4cdab5>@@AEAV<lambda_876a65b173b8412d3a47c70a915b0cf4>@@$$QEAV<lambda_41932305e351933ebe8f8be3ed8bb5dc>@@@Z 00000001800555fc f i libucrt:per_thread_data.obj
 0001:0005463c       ??$?RV<lambda_fb3a7dec4e47f37f22dae91bb15c9095>@@AEAV<lambda_698284760c8add0bfb0756c19673e34b>@@V<lambda_dfb8eca1e75fef3034a8fb18dd509707>@@@?$__crt_seh_guarded_call@X@@QEAAX$$QEAV<lambda_fb3a7dec4e47f37f22dae91bb15c9095>@@AEAV<lambda_698284760c8add0bfb0756c19673e34b>@@$$QEAV<lambda_dfb8eca1e75fef3034a8fb18dd509707>@@@Z 000000018005563c f i libucrt:per_thread_data.obj
 0001:000548cc       __acrt_freeptd             00000001800558cc f   libucrt:per_thread_data.obj
 0001:00054910       __acrt_getptd              0000000180055910 f   libucrt:per_thread_data.obj
 0001:000549a4       __acrt_getptd_noexit       00000001800559a4 f   libucrt:per_thread_data.obj
 0001:00054a44       __acrt_initialize_ptd      0000000180055a44 f   libucrt:per_thread_data.obj
 0001:00054a80       __acrt_uninitialize_ptd    0000000180055a80 f   libucrt:per_thread_data.obj
 0001:00054aa4       __acrt_errno_from_os_error 0000000180055aa4 f   libucrt:errno.obj
 0001:00054aec       __acrt_errno_map_os_error  0000000180055aec f   libucrt:errno.obj
 0001:00054b3c       __doserrno                 0000000180055b3c f   libucrt:errno.obj
 0001:00054b5c       _errno                     0000000180055b5c f   libucrt:errno.obj
 0001:00054bcc       _tolower_l                 0000000180055bcc f   libucrt:tolower_toupper.obj
 0001:00054d0c       __acrt_update_locale_info  0000000180055d0c f   libucrt:locale_update.obj
 0001:00054d40       __acrt_update_multibyte_info 0000000180055d40 f   libucrt:locale_update.obj
 0001:00054d74       __acrt_set_locale_changed  0000000180055d74 f   libucrt:wsetlocale.obj
 0001:00054d80       __acrt_uninitialize_locale 0000000180055d80 f   libucrt:wsetlocale.obj
 0001:00054dc8       __acrt_initialize_locks    0000000180055dc8 f   libucrt:locks.obj
 0001:00054e10       __acrt_lock                0000000180055e10 f   libucrt:locks.obj
 0001:00054e2c       __acrt_uninitialize_locks  0000000180055e2c f   libucrt:locks.obj
 0001:00054e64       __acrt_unlock              0000000180055e64 f   libucrt:locks.obj
 0001:00055020       __acrt_FlsAlloc            0000000180056020 f   libucrt:winapi_thunks.obj
 0001:00055078       __acrt_FlsFree             0000000180056078 f   libucrt:winapi_thunks.obj
 0001:000550d0       __acrt_FlsGetValue         00000001800560d0 f   libucrt:winapi_thunks.obj
 0001:00055128       __acrt_FlsSetValue         0000000180056128 f   libucrt:winapi_thunks.obj
 0001:00055190       __acrt_InitializeCriticalSectionEx 0000000180056190 f   libucrt:winapi_thunks.obj
 0001:00055208       __acrt_LCMapStringEx       0000000180056208 f   libucrt:winapi_thunks.obj
 0001:000552f8       __acrt_LocaleNameToLCID    00000001800562f8 f   libucrt:winapi_thunks.obj
 0001:00055360       __acrt_initialize_winapi_thunks 0000000180056360 f   libucrt:winapi_thunks.obj
 0001:00055398       __acrt_is_packaged_app     0000000180056398 f   libucrt:winapi_thunks.obj
 0001:00055420       __acrt_uninitialize_winapi_thunks 0000000180056420 f   libucrt:winapi_thunks.obj
 0001:00055940       ?expand_if_necessary@?$argument_list@D@?A0xca0879c4@@AEAAHXZ 0000000180056940 f i libucrt:argv_wildcards.obj
 0001:00055a08       __acrt_expand_narrow_argv_wildcards 0000000180056a08 f   libucrt:argv_wildcards.obj
 0001:00055a10       ??$?RV<lambda_99476a1ad63dd22509b5d3e65b0ffc95>@@AEAV<lambda_ad1ced32f4ac17aa236e5ef05d6b3b7c>@@V<lambda_f7424dd8d45958661754dc4f2697e9c3>@@@?$__crt_seh_guarded_call@X@@QEAAX$$QEAV<lambda_99476a1ad63dd22509b5d3e65b0ffc95>@@AEAV<lambda_ad1ced32f4ac17aa236e5ef05d6b3b7c>@@$$QEAV<lambda_f7424dd8d45958661754dc4f2697e9c3>@@@Z 0000000180056a10 f i libucrt:mbctype.obj
 0001:0005610c       __acrt_initialize_multibyte 000000018005710c f   libucrt:mbctype.obj
 0001:00056134       __acrt_update_thread_multibyte_data 0000000180057134 f   libucrt:mbctype.obj
 0001:000561f4       _setmbcp_nolock            00000001800571f4 f   libucrt:mbctype.obj
 0001:00056514       _ismbblead                 0000000180057514 f   libucrt:ismbbyte.obj
 0001:00056528       __acrt_initialize_command_line 0000000180057528 f   libucrt:argv_data.obj
 0001:00056550       __acrt_uninitialize_command_line 0000000180057550 f   libucrt:argv_data.obj
 0001:00056554       __dcrt_get_narrow_environment_from_os 0000000180057554 f   libucrt:get_environment_from_os.obj
 0001:00056658       _recalloc                  0000000180057658 f   libucrt:recalloc.obj
 0001:00056660       _recalloc_base             0000000180057660 f   libucrt:recalloc.obj
 0001:000566f8       __acrt_initialize_heap     00000001800576f8 f   libucrt:heap_handle.obj
 0001:00056714       __acrt_uninitialize_heap   0000000180057714 f   libucrt:heap_handle.obj
 0001:00056908       __acrt_initialize_lowio    0000000180057908 f   libucrt:ioinit.obj
 0001:00056944       __acrt_uninitialize_lowio  0000000180057944 f   libucrt:ioinit.obj
 0001:00056984       __acrt_execute_initializers 0000000180057984 f   libucrt:shared_initialization.obj
 0001:00056a18       __acrt_execute_uninitializers 0000000180057a18 f   libucrt:shared_initialization.obj
 0001:00056a68       ??$?RV<lambda_c36588078e9f5dfd39652860aa6b3aaf>@@AEAV<lambda_ec61778202f4f5fc7e7711acc23c3bca>@@V<lambda_dc9d2797ccde5d239b4a0efae8ebd7db>@@@?$__crt_seh_guarded_call@P6AXH@Z@@QEAAP6AXH@Z$$QEAV<lambda_c36588078e9f5dfd39652860aa6b3aaf>@@AEAV<lambda_ec61778202f4f5fc7e7711acc23c3bca>@@$$QEAV<lambda_dc9d2797ccde5d239b4a0efae8ebd7db>@@@Z 0000000180057a68 f i libucrt:signal.obj
 0001:00056ab0       __acrt_get_sigabrt_handler 0000000180057ab0 f   libucrt:signal.obj
 0001:00056ae0       __acrt_initialize_signal_handlers 0000000180057ae0 f   libucrt:signal.obj
 0001:00056b00       raise                      0000000180057b00 f   libucrt:signal.obj
 0001:00056d9c       __acrt_has_user_matherr    0000000180057d9c f   libucrt:matherr.obj
 0001:00056dbc       __acrt_initialize_user_matherr 0000000180057dbc f   libucrt:matherr.obj
 0001:00056dc4       __acrt_invoke_user_matherr 0000000180057dc4 f   libucrt:matherr.obj
 0001:00056e0c       _query_new_mode            0000000180057e0c f   libucrt:new_mode.obj
 0001:00056e14       _mbtowc_l                  0000000180057e14 f   libucrt:mbtowc.obj
 0001:00056f5c       mbtowc                     0000000180057f5c f   libucrt:mbtowc.obj
 0001:00056f64       _fileno                    0000000180057f64 f   libucrt:fileno.obj
 0001:00056f8c       __acrt_initialize_stdio    0000000180057f8c f   libucrt:_file.obj
 0001:000570ac       __acrt_uninitialize_stdio  00000001800580ac f   libucrt:_file.obj
 0001:00057108       _lock_file                 0000000180058108 f   libucrt:_file.obj
 0001:00057114       _unlock_file               0000000180058114 f   libucrt:_file.obj
 0001:00057120       __pctype_func              0000000180058120 f   libucrt:ctype.obj
 0001:00057150       _isctype_l                 0000000180058150 f   libucrt:isctype.obj
 0001:00057260       __acrt_add_locale_ref      0000000180058260 f   libucrt:locale_refcounting.obj
 0001:000572ec       __acrt_free_locale         00000001800582ec f   libucrt:locale_refcounting.obj
 0001:00057464       __acrt_locale_add_lc_time_reference 0000000180058464 f   libucrt:locale_refcounting.obj
 0001:0005748c       __acrt_locale_free_lc_time_if_unreferenced 000000018005848c f   libucrt:locale_refcounting.obj
 0001:000574c4       __acrt_locale_release_lc_time_reference 00000001800584c4 f   libucrt:locale_refcounting.obj
 0001:000574ec       __acrt_release_locale_ref  00000001800584ec f   libucrt:locale_refcounting.obj
 0001:00057594       __acrt_update_thread_locale_data 0000000180058594 f   libucrt:locale_refcounting.obj
 0001:00057604       _updatetlocinfoEx_nolock   0000000180058604 f   libucrt:locale_refcounting.obj
 0001:0005766c       _isleadbyte_l              000000018005866c f i libucrt:_wctype.obj
 0001:00057a08       __acrt_LCMapStringA        0000000180058a08 f   libucrt:lcmapstringa.obj
 0001:00057aa0       __acrt_locale_free_monetary 0000000180058aa0 f   libucrt:initmon.obj
 0001:00057bac       __acrt_locale_free_numeric 0000000180058bac f   libucrt:initnum.obj
 0001:00057c70       __acrt_locale_free_time    0000000180058c70 f   libucrt:inittime.obj
 0001:00057d78       __acrt_GetStringTypeA      0000000180058d78 f   libucrt:getstringtypea.obj
 0001:00057ff4       __acrt_DownlevelLocaleNameToLCID 0000000180058ff4 f   libucrt:lcidtoname_downlevel.obj
 0001:00058100       qsort                      0000000180059100 f   libucrt:qsort.obj
 0001:00058434       strncpy_s                  0000000180059434 f   libucrt:strncpy_s.obj
 0001:00058508       strpbrk                    0000000180059508 f   libucrt:strpbrk.obj
 0001:000585a8       _mbsdec                    00000001800595a8 f   libucrt:mbsdec.obj
 0001:000585b0       _mbsdec_l                  00000001800595b0 f   libucrt:mbsdec.obj
 0001:00058660       _msize                     0000000180059660 f   libucrt:msize.obj
 0001:0005869c       _realloc_base              000000018005969c f   libucrt:realloc_base.obj
 0001:00058720       __acrt_lowio_create_handle_array 0000000180059720 f   libucrt:osfinfo.obj
 0001:000587b8       __acrt_lowio_destroy_handle_array 00000001800597b8 f   libucrt:osfinfo.obj
 0001:00058808       __acrt_lowio_ensure_fh_exists 0000000180059808 f   libucrt:osfinfo.obj
 0001:000588c0       __acrt_lowio_lock_fh       00000001800598c0 f   libucrt:osfinfo.obj
 0001:000588e4       __acrt_lowio_unlock_fh     00000001800598e4 f   libucrt:osfinfo.obj
 0001:00058908       _free_osfhnd               0000000180059908 f   libucrt:osfinfo.obj
 0001:000589c4       _get_osfhandle             00000001800599c4 f   libucrt:osfinfo.obj
 0001:00058a3c       _isatty                    0000000180059a3c f   libucrt:isatty.obj
 0001:00058a9c       __acrt_stdio_flush_nolock  0000000180059a9c f   libucrt:fflush.obj
 0001:00058b14       _fflush_nolock             0000000180059b14 f   libucrt:fflush.obj
 0001:00058b60       _flushall                  0000000180059b60 f   libucrt:fflush.obj
 0001:00058c50       _fcloseall                 0000000180059c50 f   libucrt:closeall.obj
 0001:00058d04       __acrt_stdio_free_buffer_nolock 0000000180059d04 f   libucrt:_freebuf.obj
 0001:00058d44       __strncnt                  0000000180059d44 f   libucrt:strncnt.obj
 0001:00058d5c       _query_app_type            0000000180059d5c f   libucrt:report_runtime_error.obj
 0001:00058d64       ??$?RV<lambda_b521505b218e5242e90febf6bfebc422>@@AEAV<lambda_6978c1fb23f02e42e1d9e99668cc68aa>@@V<lambda_314360699dd331753a4119843814e9a7>@@@?$__crt_seh_guarded_call@H@@QEAAH$$QEAV<lambda_b521505b218e5242e90febf6bfebc422>@@AEAV<lambda_6978c1fb23f02e42e1d9e99668cc68aa>@@$$QEAV<lambda_314360699dd331753a4119843814e9a7>@@@Z 0000000180059d64 f i libucrt:commit.obj
 0001:00058df0       _commit                    0000000180059df0 f   libucrt:commit.obj
 0001:00059424       _write                     000000018005a424 f   libucrt:write.obj
 0001:00059510       _write_nolock              000000018005a510 f   libucrt:write.obj
 0001:00059800       log10                      000000018005a800 f   libucrt:log10.obj
 0001:00059e48       _lseeki64_nolock           000000018005ae48 f   libucrt:lseek.obj
 0001:00059e50       _fclose_nolock             000000018005ae50 f   libucrt:fclose.obj
 0001:00059ed4       fclose                     000000018005aed4 f   libucrt:fclose.obj
 0001:00059f40       _putwch_nolock             000000018005af40 f   libucrt:putwch.obj
 0001:0005a0c0       _handle_error              000000018005b0c0 f   libucrt:libm_error.obj
 0001:0005a1f0       __acrt_initialize_fma3     000000018005b1f0 f   libucrt:fma3_available.obj
 0001:0005a260       _log10_special             000000018005b260 f   libucrt:log_special.obj
 0001:0005a318       ??$?RV<lambda_bfedae4ebbf01fab1bb6dcc6a9e276e0>@@AEAV<lambda_2fe9b910cf3cbf4a0ab98a02ba45b3ec>@@V<lambda_237c231691f317818eb88cc1d5d642d6>@@@?$__crt_seh_guarded_call@H@@QEAAH$$QEAV<lambda_bfedae4ebbf01fab1bb6dcc6a9e276e0>@@AEAV<lambda_2fe9b910cf3cbf4a0ab98a02ba45b3ec>@@$$QEAV<lambda_237c231691f317818eb88cc1d5d642d6>@@@Z 000000018005b318 f i libucrt:close.obj
 0001:0005a38c       _close                     000000018005b38c f   libucrt:close.obj
 0001:0005a430       _close_nolock              000000018005b430 f   libucrt:close.obj
 0001:0005a4ec       ?__acrt_stdio_free_stream@@YAXV__crt_stdio_stream@@@Z 000000018005b4ec f   libucrt:stream.obj
 0001:0005a530       __dcrt_lowio_initialize_console_output 000000018005b530 f   libucrt:initcon.obj
 0001:0005a56c       __dcrt_terminate_console_output 000000018005b56c f   libucrt:initcon.obj
 0001:0005a5a0       _get_fpsr                  000000018005b5a0 f   libucrt:fpsr.obj
 0001:0005a5b0       _set_fpsr                  000000018005b5b0 f   libucrt:fpsr.obj
 0001:0005a5ba       _fclrf                     000000018005b5ba f   libucrt:fpsr.obj
 0001:0005a5ce       _frnd                      000000018005b5ce f   libucrt:fpsr.obj
 0001:0005a5f0       _raise_exc                 000000018005b5f0 f   libucrt:fpexcept.obj
 0001:0005a618       _raise_exc_ex              000000018005b618 f   libucrt:fpexcept.obj
 0001:0005a920       _set_errno_from_matherr    000000018005b920 f   libucrt:fpexcept.obj
 0001:0005a950       _clrfp                     000000018005b950 f   libucrt:fpctrl.obj
 0001:0005a970       _ctrlfp                    000000018005b970 f   libucrt:fpctrl.obj
 0001:0005a9ec       _set_statfp                000000018005b9ec f   libucrt:fpctrl.obj
 0001:0005aa0c       _statfp                    000000018005ba0c f   libucrt:fpctrl.obj
 0001:0005aa1e       IsProcessorFeaturePresent  000000018005ba1e f   kernel32:KERNEL32.dll
 0001:0005aa24       RtlUnwindEx                000000018005ba24 f   kernel32:KERNEL32.dll
 0001:0005aa2c       ?DloadAcquireSectionWriteAccess@@YAXXZ 000000018005ba2c f i DelayImp:delayhlp.obj
 0001:0005aae8       ?DloadGetSRWLockFunctionPointers@@YAEXZ 000000018005bae8 f i DelayImp:delayhlp.obj
 0001:0005ab84       ?DloadMakePermanentImageCommit@@YAXPEAX_K@Z 000000018005bb84 f i DelayImp:delayhlp.obj
 0001:0005ac1c       ?DloadObtainSection@@YAPEAXPEAK0@Z 000000018005bc1c f i DelayImp:delayhlp.obj
 0001:0005acb4       ?DloadProtectSection@@YAXKPEAK@Z 000000018005bcb4 f i DelayImp:delayhlp.obj
 0001:0005ad44       ?DloadReleaseSectionWriteAccess@@YAXXZ 000000018005bd44 f i DelayImp:delayhlp.obj
 0001:0005ade8       __delayLoadHelper2         000000018005bde8 f   DelayImp:delayhlp.obj
 0001:0005b0f0       _FindPESection             000000018005c0f0 f   LIBCMT:pesect.obj
 0001:0005b140       _IsNonwritableInCurrentImage 000000018005c140 f   LIBCMT:pesect.obj
 0001:0005b190       _ValidateImageBase         000000018005c190 f   LIBCMT:pesect.obj
 0001:0005b1c0       __GSHandlerCheck           000000018005c1c0 f   LIBCMT:_gshandler_.obj
 0001:0005b1e0       __GSHandlerCheckCommon     000000018005c1e0 f   LIBCMT:_gshandler_.obj
 0001:0005b250       __chkstk                   000000018005c250 f   LIBCMT:_chkstk_.obj
 0001:0005b250       _alloca_probe              000000018005c250 f   LIBCMT:_chkstk_.obj
 0001:0005b2c0       memcmp                     000000018005c2c0 f   libvcruntime:memcmp.obj
 0001:0005b388       __GSHandlerCheck_EH        000000018005c388 f   LIBCMT:gshandlereh.obj
 0001:0005b420       _guard_dispatch_icall_nop  000000018005c420 f   LIBCMT:_guard_dispatch_.obj
 0002:00000000       __imp_GetModuleHandleA     000000018005e000     kernel32:KERNEL32.dll
 0002:00000008       __imp_VirtualQuery         000000018005e008     kernel32:KERNEL32.dll
 0002:00000010       __imp_VirtualProtect       000000018005e010     kernel32:KERNEL32.dll
 0002:00000018       __imp_GetSystemInfo        000000018005e018     kernel32:KERNEL32.dll
 0002:00000020       __imp_CreateFileW          000000018005e020     kernel32:KERNEL32.dll
 0002:00000028       __imp_WriteConsoleW        000000018005e028     kernel32:KERNEL32.dll
 0002:00000030       __imp_CloseHandle          000000018005e030     kernel32:KERNEL32.dll
 0002:00000038       __imp_SetFilePointerEx     000000018005e038     kernel32:KERNEL32.dll
 0002:00000040       __imp_GetConsoleMode       000000018005e040     kernel32:KERNEL32.dll
 0002:00000048       __imp_GetConsoleCP         000000018005e048     kernel32:KERNEL32.dll
 0002:00000050       __imp_FlushFileBuffers     000000018005e050     kernel32:KERNEL32.dll
 0002:00000058       __imp_WriteFile            000000018005e058     kernel32:KERNEL32.dll
 0002:00000060       __imp_SetStdHandle         000000018005e060     kernel32:KERNEL32.dll
 0002:00000068       __imp_HeapReAlloc          000000018005e068     kernel32:KERNEL32.dll
 0002:00000070       __imp_HeapSize             000000018005e070     kernel32:KERNEL32.dll
 0002:00000078       __imp_GetStringTypeW       000000018005e078     kernel32:KERNEL32.dll
 0002:00000080       __imp_GetFileType          000000018005e080     kernel32:KERNEL32.dll
 0002:00000088       __imp_GetStdHandle         000000018005e088     kernel32:KERNEL32.dll
 0002:00000090       __imp_GetProcessHeap       000000018005e090     kernel32:KERNEL32.dll
 0002:00000098       __imp_FreeEnvironmentStringsW 000000018005e098     kernel32:KERNEL32.dll
 0002:000000a0       __imp_GetEnvironmentStringsW 000000018005e0a0     kernel32:KERNEL32.dll
 0002:000000a8       __imp_GetCommandLineW      000000018005e0a8     kernel32:KERNEL32.dll
 0002:000000b0       __imp_GetCommandLineA      000000018005e0b0     kernel32:KERNEL32.dll
 0002:000000b8       __imp_GetCPInfo            000000018005e0b8     kernel32:KERNEL32.dll
 0002:000000c0       __imp_GetOEMCP             000000018005e0c0     kernel32:KERNEL32.dll
 0002:000000c8       __imp_IsValidCodePage      000000018005e0c8     kernel32:KERNEL32.dll
 0002:000000d0       __imp_FindNextFileA        000000018005e0d0     kernel32:KERNEL32.dll
 0002:000000d8       __imp_FindFirstFileExA     000000018005e0d8     kernel32:KERNEL32.dll
 0002:000000e0       __imp_FindClose            000000018005e0e0     kernel32:KERNEL32.dll
 0002:000000e8       __imp_LCMapStringW         000000018005e0e8     kernel32:KERNEL32.dll
 0002:000000f0       __imp_GetACP               000000018005e0f0     kernel32:KERNEL32.dll
 0002:000000f8       __imp_HeapAlloc            000000018005e0f8     kernel32:KERNEL32.dll
 0002:00000100       __imp_HeapFree             000000018005e100     kernel32:KERNEL32.dll
 0002:00000108       __imp_WideCharToMultiByte  000000018005e108     kernel32:KERNEL32.dll
 0002:00000110       __imp_MultiByteToWideChar  000000018005e110     kernel32:KERNEL32.dll
 0002:00000118       __imp_GetModuleFileNameA   000000018005e118     kernel32:KERNEL32.dll
 0002:00000120       __imp_GetModuleHandleExW   000000018005e120     kernel32:KERNEL32.dll
 0002:00000128       __imp_ExitProcess          000000018005e128     kernel32:KERNEL32.dll
 0002:00000130       __imp_LoadLibraryExW       000000018005e130     kernel32:KERNEL32.dll
 0002:00000138       __imp_GetProcAddress       000000018005e138     kernel32:KERNEL32.dll
 0002:00000140       __imp_FreeLibrary          000000018005e140     kernel32:KERNEL32.dll
 0002:00000148       __imp_TlsFree              000000018005e148     kernel32:KERNEL32.dll
 0002:00000150       __imp_TlsSetValue          000000018005e150     kernel32:KERNEL32.dll
 0002:00000158       __imp_TlsGetValue          000000018005e158     kernel32:KERNEL32.dll
 0002:00000160       __imp_TlsAlloc             000000018005e160     kernel32:KERNEL32.dll
 0002:00000168       __imp_InitializeCriticalSectionAndSpinCount 000000018005e168     kernel32:KERNEL32.dll
 0002:00000170       __imp_DeleteCriticalSection 000000018005e170     kernel32:KERNEL32.dll
 0002:00000178       __imp_LeaveCriticalSection 000000018005e178     kernel32:KERNEL32.dll
 0002:00000180       __imp_EnterCriticalSection 000000018005e180     kernel32:KERNEL32.dll
 0002:00000188       __imp_SetLastError         000000018005e188     kernel32:KERNEL32.dll
 0002:00000190       __imp_GetLastError         000000018005e190     kernel32:KERNEL32.dll
 0002:00000198       __imp_InterlockedFlushSList 000000018005e198     kernel32:KERNEL32.dll
 0002:000001a0       __imp_RtlUnwindEx          000000018005e1a0     kernel32:KERNEL32.dll
 0002:000001a8       __imp_RaiseException       000000018005e1a8     kernel32:KERNEL32.dll
 0002:000001b0       __imp_EncodePointer        000000018005e1b0     kernel32:KERNEL32.dll
 0002:000001b8       __imp_RtlPcToFileHeader    000000018005e1b8     kernel32:KERNEL32.dll
 0002:000001c0       __imp_GetModuleHandleW     000000018005e1c0     kernel32:KERNEL32.dll
 0002:000001c8       __imp_GetStartupInfoW      000000018005e1c8     kernel32:KERNEL32.dll
 0002:000001d0       __imp_IsDebuggerPresent    000000018005e1d0     kernel32:KERNEL32.dll
 0002:000001d8       __imp_InitializeSListHead  000000018005e1d8     kernel32:KERNEL32.dll
 0002:000001e0       __imp_GetSystemTimeAsFileTime 000000018005e1e0     kernel32:KERNEL32.dll
 0002:000001e8       __imp_GetCurrentThreadId   000000018005e1e8     kernel32:KERNEL32.dll
 0002:000001f0       __imp_GetCurrentProcessId  000000018005e1f0     kernel32:KERNEL32.dll
 0002:000001f8       __imp_QueryPerformanceCounter 000000018005e1f8     kernel32:KERNEL32.dll
 0002:00000200       __imp_IsProcessorFeaturePresent 000000018005e200     kernel32:KERNEL32.dll
 0002:00000208       __imp_TerminateProcess     000000018005e208     kernel32:KERNEL32.dll
 0002:00000210       __imp_GetCurrentProcess    000000018005e210     kernel32:KERNEL32.dll
 0002:00000218       __imp_SetUnhandledExceptionFilter 000000018005e218     kernel32:KERNEL32.dll
 0002:00000220       __imp_UnhandledExceptionFilter 000000018005e220     kernel32:KERNEL32.dll
 0002:00000228       __imp_RtlVirtualUnwind     000000018005e228     kernel32:KERNEL32.dll
 0002:00000230       __imp_RtlLookupFunctionEntry 000000018005e230     kernel32:KERNEL32.dll
 0002:00000238       __imp_RtlCaptureContext    000000018005e238     kernel32:KERNEL32.dll
 0002:00000240       __imp_LoadLibraryExA       000000018005e240     kernel32:KERNEL32.dll
 0002:00000248       \177KERNEL32_NULL_THUNK_DATA 000000018005e248     kernel32:KERNEL32.dll
 0002:00000250       __imp_crypto_box_curve25519xsalsa20poly1305_publickeybytes 000000018005e250     libsodium:libsodium.dll
 0002:00000258       __imp_crypto_box_curve25519xsalsa20poly1305_boxzerobytes 000000018005e258     libsodium:libsodium.dll
 0002:00000260       __imp_crypto_box_curve25519xsalsa20poly1305_macbytes 000000018005e260     libsodium:libsodium.dll
 0002:00000268       __imp_crypto_box_curve25519xsalsa20poly1305_keypair 000000018005e268     libsodium:libsodium.dll
 0002:00000270       __imp_crypto_box_curve25519xsalsa20poly1305 000000018005e270     libsodium:libsodium.dll
 0002:00000278       __imp_crypto_box_curve25519xsalsa20poly1305_noncebytes 000000018005e278     libsodium:libsodium.dll
 0002:00000280       __imp_crypto_box_curve25519xsalsa20poly1305_afternm 000000018005e280     libsodium:libsodium.dll
 0002:00000288       __imp_crypto_box_curve25519xsalsa20poly1305_beforenm 000000018005e288     libsodium:libsodium.dll
 0002:00000290       __imp_crypto_box_curve25519xsalsa20poly1305_beforenmbytes 000000018005e290     libsodium:libsodium.dll
 0002:00000298       __imp_crypto_box_curve25519xsalsa20poly1305_seedbytes 000000018005e298     libsodium:libsodium.dll
 0002:000002a0       __imp_sodium_runtime_has_aesni 000000018005e2a0     libsodium:libsodium.dll
 0002:000002a8       __imp_sodium_runtime_has_neon 000000018005e2a8     libsodium:libsodium.dll
 0002:000002b0       __imp_sodium_runtime_has_ssse3 000000018005e2b0     libsodium:libsodium.dll
 0002:000002b8       __imp_sodium_runtime_has_sse3 000000018005e2b8     libsodium:libsodium.dll
 0002:000002c0       __imp_sodium_runtime_has_sse41 000000018005e2c0     libsodium:libsodium.dll
 0002:000002c8       __imp_sodium_runtime_has_sse2 000000018005e2c8     libsodium:libsodium.dll
 0002:000002d0       __imp_sodium_runtime_has_avx 000000018005e2d0     libsodium:libsodium.dll
 0002:000002d8       __imp_sodium_runtime_has_avx2 000000018005e2d8     libsodium:libsodium.dll
 0002:000002e0       __imp_sodium_runtime_has_pclmul 000000018005e2e0     libsodium:libsodium.dll
 0002:000002e8       __imp_crypto_auth_keybytes 000000018005e2e8     libsodium:libsodium.dll
 0002:000002f0       __imp_crypto_auth_bytes    000000018005e2f0     libsodium:libsodium.dll
 0002:000002f8       __imp_crypto_auth_primitive 000000018005e2f8     libsodium:libsodium.dll
 0002:00000300       __imp_crypto_auth_hmacsha256_bytes 000000018005e300     libsodium:libsodium.dll
 0002:00000308       __imp_crypto_auth_hmacsha512_init 000000018005e308     libsodium:libsodium.dll
 0002:00000310       __imp_crypto_auth_hmacsha512 000000018005e310     libsodium:libsodium.dll
 0002:00000318       __imp_crypto_auth_hmacsha512_final 000000018005e318     libsodium:libsodium.dll
 0002:00000320       __imp_crypto_auth_hmacsha512_statebytes 000000018005e320     libsodium:libsodium.dll
 0002:00000328       __imp_crypto_auth_hmacsha512_keybytes 000000018005e328     libsodium:libsodium.dll
 0002:00000330       __imp_crypto_auth_hmacsha512256_bytes 000000018005e330     libsodium:libsodium.dll
 0002:00000338       __imp_crypto_auth_hmacsha256_statebytes 000000018005e338     libsodium:libsodium.dll
 0002:00000340       __imp_crypto_auth_hmacsha256_update 000000018005e340     libsodium:libsodium.dll
 0002:00000348       __imp_crypto_auth_hmacsha256_final 000000018005e348     libsodium:libsodium.dll
 0002:00000350       __imp_crypto_auth_hmacsha256_init 000000018005e350     libsodium:libsodium.dll
 0002:00000358       __imp_crypto_auth_hmacsha512256_update 000000018005e358     libsodium:libsodium.dll
 0002:00000360       __imp_crypto_auth_hmacsha512_bytes 000000018005e360     libsodium:libsodium.dll
 0002:00000368       __imp_crypto_auth_hmacsha256_verify 000000018005e368     libsodium:libsodium.dll
 0002:00000370       __imp_crypto_auth_hmacsha512256_verify 000000018005e370     libsodium:libsodium.dll
 0002:00000378       __imp_crypto_auth_hmacsha512256 000000018005e378     libsodium:libsodium.dll
 0002:00000380       __imp_randombytes_buf      000000018005e380     libsodium:libsodium.dll
 0002:00000388       __imp_crypto_auth_hmacsha512_update 000000018005e388     libsodium:libsodium.dll
 0002:00000390       __imp_crypto_auth_hmacsha256 000000018005e390     libsodium:libsodium.dll
 0002:00000398       __imp_crypto_auth_hmacsha512256_final 000000018005e398     libsodium:libsodium.dll
 0002:000003a0       __imp_crypto_auth_hmacsha512256_keybytes 000000018005e3a0     libsodium:libsodium.dll
 0002:000003a8       __imp_crypto_auth_hmacsha512_verify 000000018005e3a8     libsodium:libsodium.dll
 0002:000003b0       __imp_crypto_auth_hmacsha512256_statebytes 000000018005e3b0     libsodium:libsodium.dll
 0002:000003b8       __imp_crypto_auth_hmacsha256_keybytes 000000018005e3b8     libsodium:libsodium.dll
 0002:000003c0       __imp_crypto_auth_hmacsha512256_init 000000018005e3c0     libsodium:libsodium.dll
 0002:000003c8       __imp_crypto_core_hsalsa20_keybytes 000000018005e3c8     libsodium:libsodium.dll
 0002:000003d0       __imp_crypto_core_salsa20_outputbytes 000000018005e3d0     libsodium:libsodium.dll
 0002:000003d8       __imp_crypto_core_hchacha20_outputbytes 000000018005e3d8     libsodium:libsodium.dll
 0002:000003e0       __imp_crypto_core_salsa2012_keybytes 000000018005e3e0     libsodium:libsodium.dll
 0002:000003e8       __imp_crypto_core_hchacha20_keybytes 000000018005e3e8     libsodium:libsodium.dll
 0002:000003f0       __imp_crypto_core_salsa2012 000000018005e3f0     libsodium:libsodium.dll
 0002:000003f8       __imp_crypto_core_hsalsa20_outputbytes 000000018005e3f8     libsodium:libsodium.dll
 0002:00000400       __imp_crypto_core_salsa2012_constbytes 000000018005e400     libsodium:libsodium.dll
 0002:00000408       __imp_crypto_core_hchacha20_inputbytes 000000018005e408     libsodium:libsodium.dll
 0002:00000410       __imp_crypto_core_salsa208_keybytes 000000018005e410     libsodium:libsodium.dll
 0002:00000418       __imp_crypto_core_hsalsa20 000000018005e418     libsodium:libsodium.dll
 0002:00000420       __imp_crypto_core_hsalsa20_inputbytes 000000018005e420     libsodium:libsodium.dll
 0002:00000428       __imp_crypto_core_hsalsa20_constbytes 000000018005e428     libsodium:libsodium.dll
 0002:00000430       __imp_crypto_core_salsa208 000000018005e430     libsodium:libsodium.dll
 0002:00000438       __imp_crypto_core_salsa20_inputbytes 000000018005e438     libsodium:libsodium.dll
 0002:00000440       __imp_crypto_core_salsa20_keybytes 000000018005e440     libsodium:libsodium.dll
 0002:00000448       __imp_crypto_core_hchacha20 000000018005e448     libsodium:libsodium.dll
 0002:00000450       __imp_crypto_core_salsa20_constbytes 000000018005e450     libsodium:libsodium.dll
 0002:00000458       __imp_crypto_core_hchacha20_constbytes 000000018005e458     libsodium:libsodium.dll
 0002:00000460       __imp_crypto_core_salsa208_constbytes 000000018005e460     libsodium:libsodium.dll
 0002:00000468       __imp_crypto_core_salsa2012_inputbytes 000000018005e468     libsodium:libsodium.dll
 0002:00000470       __imp_crypto_core_salsa208_outputbytes 000000018005e470     libsodium:libsodium.dll
 0002:00000478       __imp_crypto_core_salsa208_inputbytes 000000018005e478     libsodium:libsodium.dll
 0002:00000480       __imp_crypto_core_salsa20  000000018005e480     libsodium:libsodium.dll
 0002:00000488       __imp_crypto_core_salsa2012_outputbytes 000000018005e488     libsodium:libsodium.dll
 0002:00000490       __imp_crypto_scalarmult_curve25519_base 000000018005e490     libsodium:libsodium.dll
 0002:00000498       __imp_crypto_scalarmult_curve25519 000000018005e498     libsodium:libsodium.dll
 0002:000004a0       __imp_crypto_secretbox_xsalsa20poly1305 000000018005e4a0     libsodium:libsodium.dll
 0002:000004a8       __imp_crypto_secretbox_xsalsa20poly1305_open 000000018005e4a8     libsodium:libsodium.dll
 0002:000004b0       __imp_crypto_secretbox_open 000000018005e4b0     libsodium:libsodium.dll
 0002:000004b8       __imp_crypto_secretbox_open_detached 000000018005e4b8     libsodium:libsodium.dll
 0002:000004c0       __imp_crypto_secretbox     000000018005e4c0     libsodium:libsodium.dll
 0002:000004c8       __imp_crypto_secretbox_easy 000000018005e4c8     libsodium:libsodium.dll
 0002:000004d0       __imp_crypto_secretbox_open_easy 000000018005e4d0     libsodium:libsodium.dll
 0002:000004d8       __imp_crypto_secretbox_detached 000000018005e4d8     libsodium:libsodium.dll
 0002:000004e0       __imp_sodium_init          000000018005e4e0     libsodium:libsodium.dll
 0002:000004e8       __imp_randombytes_stir     000000018005e4e8     libsodium:libsodium.dll
 0002:000004f0       __imp_crypto_stream_primitive 000000018005e4f0     libsodium:libsodium.dll
 0002:000004f8       __imp_crypto_stream_noncebytes 000000018005e4f8     libsodium:libsodium.dll
 0002:00000500       __imp_crypto_stream_keybytes 000000018005e500     libsodium:libsodium.dll
 0002:00000508       __imp_crypto_stream_chacha20_ietf_keybytes 000000018005e508     libsodium:libsodium.dll
 0002:00000510       __imp_crypto_stream_chacha20_ietf_xor 000000018005e510     libsodium:libsodium.dll
 0002:00000518       __imp_crypto_stream_salsa20_xor 000000018005e518     libsodium:libsodium.dll
 0002:00000520       __imp_crypto_stream_xsalsa20_xor_ic 000000018005e520     libsodium:libsodium.dll
 0002:00000528       __imp_crypto_stream_salsa20_keybytes 000000018005e528     libsodium:libsodium.dll
 0002:00000530       __imp_crypto_stream_salsa2012_noncebytes 000000018005e530     libsodium:libsodium.dll
 0002:00000538       __imp_crypto_stream_salsa20_noncebytes 000000018005e538     libsodium:libsodium.dll
 0002:00000540       __imp_crypto_stream_chacha20_noncebytes 000000018005e540     libsodium:libsodium.dll
 0002:00000548       __imp_crypto_stream_salsa2012_keybytes 000000018005e548     libsodium:libsodium.dll
 0002:00000550       __imp_crypto_stream_salsa208_xor 000000018005e550     libsodium:libsodium.dll
 0002:00000558       __imp_crypto_stream_salsa208_noncebytes 000000018005e558     libsodium:libsodium.dll
 0002:00000560       __imp_crypto_stream_chacha20_keybytes 000000018005e560     libsodium:libsodium.dll
 0002:00000568       __imp_crypto_stream_chacha20 000000018005e568     libsodium:libsodium.dll
 0002:00000570       __imp_crypto_stream_xsalsa20_xor 000000018005e570     libsodium:libsodium.dll
 0002:00000578       __imp_crypto_stream_salsa20_xor_ic 000000018005e578     libsodium:libsodium.dll
 0002:00000580       __imp_crypto_stream_salsa208_keybytes 000000018005e580     libsodium:libsodium.dll
 0002:00000588       __imp_crypto_stream_salsa2012_xor 000000018005e588     libsodium:libsodium.dll
 0002:00000590       __imp_crypto_stream_xsalsa20 000000018005e590     libsodium:libsodium.dll
 0002:00000598       __imp_crypto_stream_salsa2012 000000018005e598     libsodium:libsodium.dll
 0002:000005a0       __imp_crypto_stream_xsalsa20_noncebytes 000000018005e5a0     libsodium:libsodium.dll
 0002:000005a8       __imp_crypto_stream_salsa208 000000018005e5a8     libsodium:libsodium.dll
 0002:000005b0       __imp_crypto_stream_chacha20_xor 000000018005e5b0     libsodium:libsodium.dll
 0002:000005b8       __imp_crypto_stream_chacha20_ietf_xor_ic 000000018005e5b8     libsodium:libsodium.dll
 0002:000005c0       __imp_crypto_stream_chacha20_ietf_noncebytes 000000018005e5c0     libsodium:libsodium.dll
 0002:000005c8       __imp_crypto_stream_salsa20 000000018005e5c8     libsodium:libsodium.dll
 0002:000005d0       __imp_crypto_stream_chacha20_ietf 000000018005e5d0     libsodium:libsodium.dll
 0002:000005d8       __imp_crypto_stream_xsalsa20_keybytes 000000018005e5d8     libsodium:libsodium.dll
 0002:000005e0       __imp_crypto_stream_chacha20_xor_ic 000000018005e5e0     libsodium:libsodium.dll
 0002:000005e8       __imp_crypto_verify_32     000000018005e5e8     libsodium:libsodium.dll
 0002:000005f0       __imp_sodium_compare       000000018005e5f0     libsodium:libsodium.dll
 0002:000005f8       __imp_sodium_library_version_major 000000018005e5f8     libsodium:libsodium.dll
 0002:00000600       __imp_sodium_increment     000000018005e600     libsodium:libsodium.dll
 0002:00000608       __imp_sodium_version_string 000000018005e608     libsodium:libsodium.dll
 0002:00000610       __imp_sodium_memcmp        000000018005e610     libsodium:libsodium.dll
 0002:00000618       __imp_crypto_verify_16     000000018005e618     libsodium:libsodium.dll
 0002:00000620       __imp_sodium_library_version_minor 000000018005e620     libsodium:libsodium.dll
 0002:00000628       __imp_sodium_add           000000018005e628     libsodium:libsodium.dll
 0002:00000630       __imp_crypto_verify_64     000000018005e630     libsodium:libsodium.dll
 0002:00000638       __imp_sodium_is_zero       000000018005e638     libsodium:libsodium.dll
 0002:00000640       __imp_randombytes_close    000000018005e640     libsodium:libsodium.dll
 0002:00000648       __imp_randombytes_buf_deterministic 000000018005e648     libsodium:libsodium.dll
 0002:00000650       __imp_randombytes_random   000000018005e650     libsodium:libsodium.dll
 0002:00000658       __imp_randombytes_uniform  000000018005e658     libsodium:libsodium.dll
 0002:00000660       __imp_crypto_pwhash_argon2i_opslimit_sensitive 000000018005e660     libsodium:libsodium.dll
 0002:00000668       __imp_crypto_pwhash_argon2i_memlimit_min 000000018005e668     libsodium:libsodium.dll
 0002:00000670       __imp_crypto_pwhash_argon2i_memlimit_max 000000018005e670     libsodium:libsodium.dll
 0002:00000678       __imp_crypto_pwhash_scryptsalsa208sha256_bytes_min 000000018005e678     libsodium:libsodium.dll
 0002:00000680       __imp_crypto_pwhash_argon2id_bytes_max 000000018005e680     libsodium:libsodium.dll
 0002:00000688       __imp_crypto_box_curve25519xsalsa20poly1305_open 000000018005e688     libsodium:libsodium.dll
 0002:00000690       __imp_crypto_pwhash_scryptsalsa208sha256_opslimit_max 000000018005e690     libsodium:libsodium.dll
 0002:00000698       __imp_crypto_pwhash_argon2i_opslimit_interactive 000000018005e698     libsodium:libsodium.dll
 0002:000006a0       __imp_crypto_pwhash_argon2id_opslimit_sensitive 000000018005e6a0     libsodium:libsodium.dll
 0002:000006a8       __imp_crypto_pwhash_scryptsalsa208sha256_strprefix 000000018005e6a8     libsodium:libsodium.dll
 0002:000006b0       __imp_crypto_pwhash_scryptsalsa208sha256_ll 000000018005e6b0     libsodium:libsodium.dll
 0002:000006b8       __imp_crypto_pwhash_scryptsalsa208sha256_opslimit_min 000000018005e6b8     libsodium:libsodium.dll
 0002:000006c0       __imp_crypto_pwhash_scryptsalsa208sha256_passwd_min 000000018005e6c0     libsodium:libsodium.dll
 0002:000006c8       __imp_crypto_pwhash_scryptsalsa208sha256_bytes_max 000000018005e6c8     libsodium:libsodium.dll
 0002:000006d0       __imp_crypto_pwhash_scryptsalsa208sha256_str 000000018005e6d0     libsodium:libsodium.dll
 0002:000006d8       __imp_crypto_pwhash_argon2i_strbytes 000000018005e6d8     libsodium:libsodium.dll
 0002:000006e0       __imp_crypto_pwhash_argon2id_passwd_max 000000018005e6e0     libsodium:libsodium.dll
 0002:000006e8       __imp_crypto_pwhash_argon2id_saltbytes 000000018005e6e8     libsodium:libsodium.dll
 0002:000006f0       __imp_crypto_pwhash_scryptsalsa208sha256_opslimit_interactive 000000018005e6f0     libsodium:libsodium.dll
 0002:000006f8       __imp_crypto_pwhash_argon2id_str_verify 000000018005e6f8     libsodium:libsodium.dll
 0002:00000700       __imp_crypto_pwhash_argon2i_str 000000018005e700     libsodium:libsodium.dll
 0002:00000708       __imp_crypto_pwhash_scryptsalsa208sha256_str_needs_rehash 000000018005e708     libsodium:libsodium.dll
 0002:00000710       __imp_crypto_pwhash_scryptsalsa208sha256_memlimit_min 000000018005e710     libsodium:libsodium.dll
 0002:00000718       __imp_crypto_pwhash_argon2i_memlimit_interactive 000000018005e718     libsodium:libsodium.dll
 0002:00000720       __imp_crypto_pwhash_argon2id_bytes_min 000000018005e720     libsodium:libsodium.dll
 0002:00000728       __imp_crypto_pwhash_scryptsalsa208sha256_memlimit_sensitive 000000018005e728     libsodium:libsodium.dll
 0002:00000730       __imp_crypto_pwhash_argon2i_bytes_min 000000018005e730     libsodium:libsodium.dll
 0002:00000738       __imp_crypto_pwhash_argon2id_strprefix 000000018005e738     libsodium:libsodium.dll
 0002:00000740       __imp_crypto_pwhash_argon2id_memlimit_max 000000018005e740     libsodium:libsodium.dll
 0002:00000748       __imp_crypto_pwhash_argon2i_str_verify 000000018005e748     libsodium:libsodium.dll
 0002:00000750       __imp_crypto_pwhash_argon2i_memlimit_moderate 000000018005e750     libsodium:libsodium.dll
 0002:00000758       __imp_crypto_pwhash_argon2id_memlimit_interactive 000000018005e758     libsodium:libsodium.dll
 0002:00000760       __imp_crypto_pwhash_argon2i 000000018005e760     libsodium:libsodium.dll
 0002:00000768       __imp_crypto_pwhash_argon2i_saltbytes 000000018005e768     libsodium:libsodium.dll
 0002:00000770       __imp_crypto_pwhash_argon2id 000000018005e770     libsodium:libsodium.dll
 0002:00000778       __imp_crypto_pwhash_argon2i_bytes_max 000000018005e778     libsodium:libsodium.dll
 0002:00000780       __imp_crypto_pwhash_argon2id_passwd_min 000000018005e780     libsodium:libsodium.dll
 0002:00000788       __imp_crypto_pwhash_argon2id_str_needs_rehash 000000018005e788     libsodium:libsodium.dll
 0002:00000790       __imp_crypto_pwhash_scryptsalsa208sha256_strbytes 000000018005e790     libsodium:libsodium.dll
 0002:00000798       __imp_crypto_pwhash_argon2i_str_needs_rehash 000000018005e798     libsodium:libsodium.dll
 0002:000007a0       __imp_crypto_pwhash_scryptsalsa208sha256_str_verify 000000018005e7a0     libsodium:libsodium.dll
 0002:000007a8       __imp_crypto_pwhash_scryptsalsa208sha256_passwd_max 000000018005e7a8     libsodium:libsodium.dll
 0002:000007b0       __imp_crypto_pwhash_argon2id_opslimit_interactive 000000018005e7b0     libsodium:libsodium.dll
 0002:000007b8       __imp_crypto_pwhash_argon2id_alg_argon2id13 000000018005e7b8     libsodium:libsodium.dll
 0002:000007c0       __imp_crypto_pwhash_scryptsalsa208sha256_opslimit_sensitive 000000018005e7c0     libsodium:libsodium.dll
 0002:000007c8       __imp_crypto_pwhash_argon2i_opslimit_moderate 000000018005e7c8     libsodium:libsodium.dll
 0002:000007d0       __imp_crypto_pwhash_argon2i_passwd_max 000000018005e7d0     libsodium:libsodium.dll
 0002:000007d8       __imp_crypto_pwhash_scryptsalsa208sha256 000000018005e7d8     libsodium:libsodium.dll
 0002:000007e0       __imp_crypto_pwhash_argon2id_opslimit_max 000000018005e7e0     libsodium:libsodium.dll
 0002:000007e8       __imp_crypto_pwhash_argon2id_opslimit_moderate 000000018005e7e8     libsodium:libsodium.dll
 0002:000007f0       __imp_crypto_pwhash_scryptsalsa208sha256_saltbytes 000000018005e7f0     libsodium:libsodium.dll
 0002:000007f8       __imp_crypto_pwhash_argon2i_strprefix 000000018005e7f8     libsodium:libsodium.dll
 0002:00000800       __imp_crypto_pwhash_argon2id_str 000000018005e800     libsodium:libsodium.dll
 0002:00000808       __imp_crypto_pwhash_argon2id_memlimit_min 000000018005e808     libsodium:libsodium.dll
 0002:00000810       __imp_crypto_pwhash_argon2id_opslimit_min 000000018005e810     libsodium:libsodium.dll
 0002:00000818       __imp_crypto_pwhash_argon2id_memlimit_moderate 000000018005e818     libsodium:libsodium.dll
 0002:00000820       __imp_crypto_pwhash_argon2i_passwd_min 000000018005e820     libsodium:libsodium.dll
 0002:00000828       __imp_crypto_pwhash_argon2i_memlimit_sensitive 000000018005e828     libsodium:libsodium.dll
 0002:00000830       __imp_crypto_pwhash_scryptsalsa208sha256_memlimit_max 000000018005e830     libsodium:libsodium.dll
 0002:00000838       __imp_crypto_pwhash_argon2i_opslimit_min 000000018005e838     libsodium:libsodium.dll
 0002:00000840       __imp_crypto_pwhash_scryptsalsa208sha256_memlimit_interactive 000000018005e840     libsodium:libsodium.dll
 0002:00000848       __imp_crypto_pwhash_argon2i_opslimit_max 000000018005e848     libsodium:libsodium.dll
 0002:00000850       __imp_crypto_pwhash_argon2id_memlimit_sensitive 000000018005e850     libsodium:libsodium.dll
 0002:00000858       __imp_crypto_pwhash_argon2id_strbytes 000000018005e858     libsodium:libsodium.dll
 0002:00000860       __imp_crypto_pwhash_alg_default 000000018005e860     libsodium:libsodium.dll
 0002:00000868       __imp_crypto_pwhash_passwd_min 000000018005e868     libsodium:libsodium.dll
 0002:00000870       __imp_crypto_pwhash_opslimit_max 000000018005e870     libsodium:libsodium.dll
 0002:00000878       __imp_crypto_pwhash_str_needs_rehash 000000018005e878     libsodium:libsodium.dll
 0002:00000880       __imp_crypto_pwhash_saltbytes 000000018005e880     libsodium:libsodium.dll
 0002:00000888       __imp_crypto_pwhash_alg_argon2id13 000000018005e888     libsodium:libsodium.dll
 0002:00000890       __imp_crypto_pwhash_str_verify 000000018005e890     libsodium:libsodium.dll
 0002:00000898       __imp_crypto_pwhash_alg_argon2i13 000000018005e898     libsodium:libsodium.dll
 0002:000008a0       __imp_crypto_pwhash_str_alg 000000018005e8a0     libsodium:libsodium.dll
 0002:000008a8       __imp_crypto_pwhash_bytes_min 000000018005e8a8     libsodium:libsodium.dll
 0002:000008b0       __imp_crypto_pwhash        000000018005e8b0     libsodium:libsodium.dll
 0002:000008b8       __imp_crypto_pwhash_memlimit_max 000000018005e8b8     libsodium:libsodium.dll
 0002:000008c0       __imp_crypto_pwhash_strbytes 000000018005e8c0     libsodium:libsodium.dll
 0002:000008c8       __imp_crypto_pwhash_bytes_max 000000018005e8c8     libsodium:libsodium.dll
 0002:000008d0       __imp_crypto_pwhash_opslimit_sensitive 000000018005e8d0     libsodium:libsodium.dll
 0002:000008d8       __imp_crypto_pwhash_primitive 000000018005e8d8     libsodium:libsodium.dll
 0002:000008e0       __imp_crypto_pwhash_memlimit_interactive 000000018005e8e0     libsodium:libsodium.dll
 0002:000008e8       __imp_crypto_pwhash_memlimit_min 000000018005e8e8     libsodium:libsodium.dll
 0002:000008f0       __imp_crypto_pwhash_strprefix 000000018005e8f0     libsodium:libsodium.dll
 0002:000008f8       __imp_crypto_pwhash_memlimit_sensitive 000000018005e8f8     libsodium:libsodium.dll
 0002:00000900       __imp_crypto_pwhash_opslimit_min 000000018005e900     libsodium:libsodium.dll
 0002:00000908       __imp_crypto_pwhash_str    000000018005e908     libsodium:libsodium.dll
 0002:00000910       __imp_crypto_pwhash_passwd_max 000000018005e910     libsodium:libsodium.dll
 0002:00000918       __imp_crypto_pwhash_opslimit_interactive 000000018005e918     libsodium:libsodium.dll
 0002:00000920       __imp_crypto_hash_bytes    000000018005e920     libsodium:libsodium.dll
 0002:00000928       __imp_crypto_hash          000000018005e928     libsodium:libsodium.dll
 0002:00000930       __imp_crypto_hash_primitive 000000018005e930     libsodium:libsodium.dll
 0002:00000938       __imp_crypto_hash_sha256_update 000000018005e938     libsodium:libsodium.dll
 0002:00000940       __imp_crypto_hash_sha256_bytes 000000018005e940     libsodium:libsodium.dll
 0002:00000948       __imp_crypto_hash_sha256_statebytes 000000018005e948     libsodium:libsodium.dll
 0002:00000950       __imp_crypto_hash_sha256_init 000000018005e950     libsodium:libsodium.dll
 0002:00000958       __imp_crypto_hash_sha256   000000018005e958     libsodium:libsodium.dll
 0002:00000960       __imp_crypto_hash_sha256_final 000000018005e960     libsodium:libsodium.dll
 0002:00000968       __imp_crypto_hash_sha512_bytes 000000018005e968     libsodium:libsodium.dll
 0002:00000970       __imp_crypto_hash_sha512_final 000000018005e970     libsodium:libsodium.dll
 0002:00000978       __imp_crypto_hash_sha512_update 000000018005e978     libsodium:libsodium.dll
 0002:00000980       __imp_crypto_hash_sha512_statebytes 000000018005e980     libsodium:libsodium.dll
 0002:00000988       __imp_crypto_hash_sha512   000000018005e988     libsodium:libsodium.dll
 0002:00000990       __imp_crypto_hash_sha512_init 000000018005e990     libsodium:libsodium.dll
 0002:00000998       __imp_crypto_shorthash     000000018005e998     libsodium:libsodium.dll
 0002:000009a0       __imp_crypto_shorthash_siphash24 000000018005e9a0     libsodium:libsodium.dll
 0002:000009a8       __imp_crypto_generichash_init 000000018005e9a8     libsodium:libsodium.dll
 0002:000009b0       __imp_crypto_generichash   000000018005e9b0     libsodium:libsodium.dll
 0002:000009b8       __imp_crypto_generichash_keygen 000000018005e9b8     libsodium:libsodium.dll
 0002:000009c0       __imp_crypto_generichash_statebytes 000000018005e9c0     libsodium:libsodium.dll
 0002:000009c8       __imp_crypto_generichash_update 000000018005e9c8     libsodium:libsodium.dll
 0002:000009d0       __imp_crypto_generichash_keybytes 000000018005e9d0     libsodium:libsodium.dll
 0002:000009d8       __imp_crypto_generichash_keybytes_max 000000018005e9d8     libsodium:libsodium.dll
 0002:000009e0       __imp_crypto_generichash_bytes_max 000000018005e9e0     libsodium:libsodium.dll
 0002:000009e8       __imp_crypto_generichash_final 000000018005e9e8     libsodium:libsodium.dll
 0002:000009f0       __imp_crypto_generichash_primitive 000000018005e9f0     libsodium:libsodium.dll
 0002:000009f8       __imp_crypto_generichash_keybytes_min 000000018005e9f8     libsodium:libsodium.dll
 0002:00000a00       __imp_crypto_generichash_bytes 000000018005ea00     libsodium:libsodium.dll
 0002:00000a08       __imp_crypto_generichash_bytes_min 000000018005ea08     libsodium:libsodium.dll
 0002:00000a10       __imp_crypto_generichash_blake2b_saltbytes 000000018005ea10     libsodium:libsodium.dll
 0002:00000a18       __imp_crypto_generichash_blake2b_init 000000018005ea18     libsodium:libsodium.dll
 0002:00000a20       __imp_crypto_generichash_blake2b_update 000000018005ea20     libsodium:libsodium.dll
 0002:00000a28       __imp_crypto_generichash_blake2b_personalbytes 000000018005ea28     libsodium:libsodium.dll
 0002:00000a30       __imp_crypto_generichash_blake2b_bytes_max 000000018005ea30     libsodium:libsodium.dll
 0002:00000a38       __imp_crypto_generichash_blake2b_keybytes 000000018005ea38     libsodium:libsodium.dll
 0002:00000a40       __imp_crypto_generichash_blake2b 000000018005ea40     libsodium:libsodium.dll
 0002:00000a48       __imp_crypto_generichash_blake2b_final 000000018005ea48     libsodium:libsodium.dll
 0002:00000a50       __imp_crypto_generichash_blake2b_bytes 000000018005ea50     libsodium:libsodium.dll
 0002:00000a58       __imp_crypto_generichash_blake2b_keybytes_min 000000018005ea58     libsodium:libsodium.dll
 0002:00000a60       __imp_crypto_generichash_blake2b_keygen 000000018005ea60     libsodium:libsodium.dll
 0002:00000a68       __imp_crypto_generichash_blake2b_statebytes 000000018005ea68     libsodium:libsodium.dll
 0002:00000a70       __imp_crypto_generichash_blake2b_bytes_min 000000018005ea70     libsodium:libsodium.dll
 0002:00000a78       __imp_crypto_generichash_blake2b_keybytes_max 000000018005ea78     libsodium:libsodium.dll
 0002:00000a80       __imp_crypto_generichash_blake2b_salt_personal 000000018005ea80     libsodium:libsodium.dll
 0002:00000a88       __imp_crypto_onetimeauth_poly1305_verify 000000018005ea88     libsodium:libsodium.dll
 0002:00000a90       __imp_crypto_onetimeauth_poly1305_keybytes 000000018005ea90     libsodium:libsodium.dll
 0002:00000a98       __imp_crypto_onetimeauth_poly1305_statebytes 000000018005ea98     libsodium:libsodium.dll
 0002:00000aa0       __imp_crypto_onetimeauth_poly1305_update 000000018005eaa0     libsodium:libsodium.dll
 0002:00000aa8       __imp_crypto_onetimeauth_poly1305_keygen 000000018005eaa8     libsodium:libsodium.dll
 0002:00000ab0       __imp_crypto_onetimeauth_poly1305_final 000000018005eab0     libsodium:libsodium.dll
 0002:00000ab8       __imp_crypto_onetimeauth_poly1305_init 000000018005eab8     libsodium:libsodium.dll
 0002:00000ac0       __imp_crypto_onetimeauth_poly1305 000000018005eac0     libsodium:libsodium.dll
 0002:00000ac8       __imp_crypto_onetimeauth_poly1305_bytes 000000018005eac8     libsodium:libsodium.dll
 0002:00000ad0       __imp_crypto_box_curve25519xsalsa20poly1305_messagebytes_max 000000018005ead0     libsodium:libsodium.dll
 0002:00000ad8       __imp_crypto_box_curve25519xsalsa20poly1305_zerobytes 000000018005ead8     libsodium:libsodium.dll
 0002:00000ae0       __imp_crypto_box_curve25519xsalsa20poly1305_secretkeybytes 000000018005eae0     libsodium:libsodium.dll
 0002:00000ae8       __imp_crypto_box_curve25519xsalsa20poly1305_open_afternm 000000018005eae8     libsodium:libsodium.dll
 0002:00000af0       __imp_crypto_box_open_detached_afternm 000000018005eaf0     libsodium:libsodium.dll
 0002:00000af8       __imp_crypto_box           000000018005eaf8     libsodium:libsodium.dll
 0002:00000b00       __imp_crypto_box_primitive 000000018005eb00     libsodium:libsodium.dll
 0002:00000b08       __imp_crypto_box_sealbytes 000000018005eb08     libsodium:libsodium.dll
 0002:00000b10       __imp_crypto_box_afternm   000000018005eb10     libsodium:libsodium.dll
 0002:00000b18       __imp_crypto_box_beforenmbytes 000000018005eb18     libsodium:libsodium.dll
 0002:00000b20       __imp_crypto_box_keypair   000000018005eb20     libsodium:libsodium.dll
 0002:00000b28       __imp_crypto_box_open_afternm 000000018005eb28     libsodium:libsodium.dll
 0002:00000b30       __imp_crypto_box_easy      000000018005eb30     libsodium:libsodium.dll
 0002:00000b38       __imp_crypto_box_seed_keypair 000000018005eb38     libsodium:libsodium.dll
 0002:00000b40       __imp_crypto_box_boxzerobytes 000000018005eb40     libsodium:libsodium.dll
 0002:00000b48       __imp_crypto_box_detached  000000018005eb48     libsodium:libsodium.dll
 0002:00000b50       __imp_crypto_box_noncebytes 000000018005eb50     libsodium:libsodium.dll
 0002:00000b58       __imp_crypto_box_publickeybytes 000000018005eb58     libsodium:libsodium.dll
 0002:00000b60       __imp_crypto_box_seal      000000018005eb60     libsodium:libsodium.dll
 0002:00000b68       __imp_crypto_box_open_easy 000000018005eb68     libsodium:libsodium.dll
 0002:00000b70       __imp_crypto_box_open      000000018005eb70     libsodium:libsodium.dll
 0002:00000b78       __imp_crypto_box_easy_afternm 000000018005eb78     libsodium:libsodium.dll
 0002:00000b80       __imp_crypto_box_open_detached 000000018005eb80     libsodium:libsodium.dll
 0002:00000b88       __imp_crypto_box_seedbytes 000000018005eb88     libsodium:libsodium.dll
 0002:00000b90       __imp_crypto_box_seal_open 000000018005eb90     libsodium:libsodium.dll
 0002:00000b98       __imp_crypto_box_messagebytes_max 000000018005eb98     libsodium:libsodium.dll
 0002:00000ba0       __imp_crypto_box_macbytes  000000018005eba0     libsodium:libsodium.dll
 0002:00000ba8       __imp_crypto_box_zerobytes 000000018005eba8     libsodium:libsodium.dll
 0002:00000bb0       __imp_crypto_box_detached_afternm 000000018005ebb0     libsodium:libsodium.dll
 0002:00000bb8       __imp_crypto_box_open_easy_afternm 000000018005ebb8     libsodium:libsodium.dll
 0002:00000bc0       __imp_crypto_box_secretkeybytes 000000018005ebc0     libsodium:libsodium.dll
 0002:00000bc8       __imp_crypto_box_beforenm  000000018005ebc8     libsodium:libsodium.dll
 0002:00000bd0       __imp_crypto_sign_ed25519_pk_to_curve25519 000000018005ebd0     libsodium:libsodium.dll
 0002:00000bd8       __imp_crypto_sign_ed25519_open 000000018005ebd8     libsodium:libsodium.dll
 0002:00000be0       __imp_crypto_sign_ed25519  000000018005ebe0     libsodium:libsodium.dll
 0002:00000be8       __imp_crypto_sign_ed25519_keypair 000000018005ebe8     libsodium:libsodium.dll
 0002:00000bf0       __imp_crypto_sign_ed25519_sk_to_curve25519 000000018005ebf0     libsodium:libsodium.dll
 0002:00000bf8       __imp_crypto_sign_ed25519_detached 000000018005ebf8     libsodium:libsodium.dll
 0002:00000c00       __imp_crypto_sign_ed25519_verify_detached 000000018005ec00     libsodium:libsodium.dll
 0002:00000c08       __imp_crypto_sign_ed25519_sk_to_pk 000000018005ec08     libsodium:libsodium.dll
 0002:00000c10       __imp_crypto_sign_ed25519_seed_keypair 000000018005ec10     libsodium:libsodium.dll
 0002:00000c18       __imp_crypto_sign_ed25519_sk_to_seed 000000018005ec18     libsodium:libsodium.dll
 0002:00000c20       __imp_crypto_aead_chacha20poly1305_decrypt_detached 000000018005ec20     libsodium:libsodium.dll
 0002:00000c28       __imp_crypto_aead_aes256gcm_statebytes 000000018005ec28     libsodium:libsodium.dll
 0002:00000c30       __imp_crypto_aead_aes256gcm_keybytes 000000018005ec30     libsodium:libsodium.dll
 0002:00000c38       __imp_crypto_aead_chacha20poly1305_ietf_decrypt_detached 000000018005ec38     libsodium:libsodium.dll
 0002:00000c40       __imp_crypto_aead_chacha20poly1305_keybytes 000000018005ec40     libsodium:libsodium.dll
 0002:00000c48       __imp_crypto_aead_aes256gcm_keygen 000000018005ec48     libsodium:libsodium.dll
 0002:00000c50       __imp_crypto_aead_chacha20poly1305_encrypt_detached 000000018005ec50     libsodium:libsodium.dll
 0002:00000c58       __imp_crypto_aead_chacha20poly1305_ietf_messagebytes_max 000000018005ec58     libsodium:libsodium.dll
 0002:00000c60       __imp_crypto_aead_chacha20poly1305_ietf_keygen 000000018005ec60     libsodium:libsodium.dll
 0002:00000c68       __imp_crypto_aead_xchacha20poly1305_ietf_messagebytes_max 000000018005ec68     libsodium:libsodium.dll
 0002:00000c70       __imp_crypto_aead_xchacha20poly1305_ietf_encrypt_detached 000000018005ec70     libsodium:libsodium.dll
 0002:00000c78       __imp_crypto_aead_chacha20poly1305_messagebytes_max 000000018005ec78     libsodium:libsodium.dll
 0002:00000c80       __imp_crypto_aead_chacha20poly1305_nsecbytes 000000018005ec80     libsodium:libsodium.dll
 0002:00000c88       __imp_crypto_aead_xchacha20poly1305_ietf_npubbytes 000000018005ec88     libsodium:libsodium.dll
 0002:00000c90       __imp_crypto_aead_aes256gcm_abytes 000000018005ec90     libsodium:libsodium.dll
 0002:00000c98       __imp_crypto_aead_aes256gcm_encrypt_detached_afternm 000000018005ec98     libsodium:libsodium.dll
 0002:00000ca0       __imp_crypto_aead_aes256gcm_is_available 000000018005eca0     libsodium:libsodium.dll
 0002:00000ca8       __imp_crypto_aead_chacha20poly1305_encrypt 000000018005eca8     libsodium:libsodium.dll
 0002:00000cb0       __imp_crypto_aead_xchacha20poly1305_ietf_decrypt 000000018005ecb0     libsodium:libsodium.dll
 0002:00000cb8       __imp_crypto_aead_chacha20poly1305_npubbytes 000000018005ecb8     libsodium:libsodium.dll
 0002:00000cc0       __imp_crypto_aead_aes256gcm_nsecbytes 000000018005ecc0     libsodium:libsodium.dll
 0002:00000cc8       __imp_crypto_aead_chacha20poly1305_decrypt 000000018005ecc8     libsodium:libsodium.dll
 0002:00000cd0       __imp_crypto_aead_xchacha20poly1305_ietf_nsecbytes 000000018005ecd0     libsodium:libsodium.dll
 0002:00000cd8       __imp_crypto_aead_aes256gcm_encrypt 000000018005ecd8     libsodium:libsodium.dll
 0002:00000ce0       __imp_crypto_aead_xchacha20poly1305_ietf_decrypt_detached 000000018005ece0     libsodium:libsodium.dll
 0002:00000ce8       __imp_crypto_aead_chacha20poly1305_keygen 000000018005ece8     libsodium:libsodium.dll
 0002:00000cf0       __imp_crypto_aead_xchacha20poly1305_ietf_encrypt 000000018005ecf0     libsodium:libsodium.dll
 0002:00000cf8       __imp_crypto_aead_aes256gcm_beforenm 000000018005ecf8     libsodium:libsodium.dll
 0002:00000d00       __imp_crypto_aead_aes256gcm_decrypt 000000018005ed00     libsodium:libsodium.dll
 0002:00000d08       __imp_crypto_aead_chacha20poly1305_ietf_decrypt 000000018005ed08     libsodium:libsodium.dll
 0002:00000d10       __imp_crypto_aead_chacha20poly1305_ietf_encrypt 000000018005ed10     libsodium:libsodium.dll
 0002:00000d18       __imp_crypto_aead_aes256gcm_encrypt_afternm 000000018005ed18     libsodium:libsodium.dll
 0002:00000d20       __imp_crypto_aead_chacha20poly1305_ietf_abytes 000000018005ed20     libsodium:libsodium.dll
 0002:00000d28       __imp_crypto_aead_xchacha20poly1305_ietf_abytes 000000018005ed28     libsodium:libsodium.dll
 0002:00000d30       __imp_crypto_aead_aes256gcm_encrypt_detached 000000018005ed30     libsodium:libsodium.dll
 0002:00000d38       __imp_crypto_aead_xchacha20poly1305_ietf_keygen 000000018005ed38     libsodium:libsodium.dll
 0002:00000d40       __imp_crypto_aead_chacha20poly1305_abytes 000000018005ed40     libsodium:libsodium.dll
 0002:00000d48       __imp_crypto_aead_chacha20poly1305_ietf_encrypt_detached 000000018005ed48     libsodium:libsodium.dll
 0002:00000d50       __imp_crypto_aead_chacha20poly1305_ietf_keybytes 000000018005ed50     libsodium:libsodium.dll
 0002:00000d58       __imp_crypto_aead_chacha20poly1305_ietf_npubbytes 000000018005ed58     libsodium:libsodium.dll
 0002:00000d60       __imp_crypto_aead_aes256gcm_decrypt_detached_afternm 000000018005ed60     libsodium:libsodium.dll
 0002:00000d68       __imp_sodium_memzero       000000018005ed68     libsodium:libsodium.dll
 0002:00000d70       __imp_crypto_aead_chacha20poly1305_ietf_nsecbytes 000000018005ed70     libsodium:libsodium.dll
 0002:00000d78       __imp_crypto_aead_aes256gcm_messagebytes_max 000000018005ed78     libsodium:libsodium.dll
 0002:00000d80       __imp_crypto_aead_xchacha20poly1305_ietf_keybytes 000000018005ed80     libsodium:libsodium.dll
 0002:00000d88       __imp_crypto_aead_aes256gcm_decrypt_afternm 000000018005ed88     libsodium:libsodium.dll
 0002:00000d90       __imp_crypto_aead_aes256gcm_decrypt_detached 000000018005ed90     libsodium:libsodium.dll
 0002:00000d98       __imp_crypto_aead_aes256gcm_npubbytes 000000018005ed98     libsodium:libsodium.dll
 0002:00000da0       __imp_crypto_pwhash_argon2i_alg_argon2i13 000000018005eda0     libsodium:libsodium.dll
 0002:00000da8       \177libsodium_NULL_THUNK_DATA 000000018005eda8     libsodium:libsodium.dll
 0002:00000db0       __guard_check_icall_fptr   000000018005edb0     LIBCMT:guard_support.obj
 0002:00000db8       __guard_dispatch_icall_fptr 000000018005edb8     LIBCMT:guard_support.obj
 0002:00000dc0       __xc_a                     000000018005edc0     LIBCMT:initializers.obj
 0002:00000dc8       _register_sodium_          000000018005edc8     sodium.obj
 0002:00000dd0       __xc_z                     000000018005edd0     LIBCMT:initializers.obj
 0002:00000dd8       __xi_a                     000000018005edd8     LIBCMT:initializers.obj
 0002:00000de0       __acrt_multibyte_initializer 000000018005ede0     libucrt:multibyte_initializer.obj
 0002:00000de8       __acrt_stdio_initializer   000000018005ede8     libucrt:stdio_initializer.obj
 0002:00000df0       __acrt_tran_fma3_initializer 000000018005edf0     libucrt:fma3_initializer.obj
 0002:00000df8       __xi_z                     000000018005edf8     LIBCMT:initializers.obj
 0002:00000e00       __xp_a                     000000018005ee00     LIBCMT:initializers.obj
 0002:00000e08       __acrt_locale_terminator   000000018005ee08     libucrt:locale_initializer.obj
 0002:00000e10       __dcrt_console_output_terminator 000000018005ee10     libucrt:console_output_initializer.obj
 0002:00000e18       __acrt_stdio_terminator    000000018005ee18     libucrt:stdio_initializer.obj
 0002:00000e20       __xp_z                     000000018005ee20     LIBCMT:initializers.obj
 0002:00000e28       __xt_a                     000000018005ee28     LIBCMT:initializers.obj
 0002:00000e30       __xt_z                     000000018005ee30     LIBCMT:initializers.obj
 0002:00000e40       __sz_node_exe              000000018005ee40     node:node.exe
 0002:00000e58       ??_7exception@std@@6B@     000000018005ee58     libcpmt:xthrow.obj
 0002:00000e68       ??_C@_0BC@EOODALEL@Unknown?5exception?$AA@ 000000018005ee68     libcpmt:xthrow.obj
 0002:00000e88       ??_7bad_alloc@std@@6B@     000000018005ee88     libcpmt:xthrow.obj
 0002:00000e98       ??_C@_0P@GHFPNOJB@bad?5allocation?$AA@ 000000018005ee98     libcpmt:xthrow.obj
 0002:00000eb0       ??_7logic_error@std@@6B@   000000018005eeb0     libcpmt:xthrow.obj
 0002:00000ec8       ??_7length_error@std@@6B@  000000018005eec8     libcpmt:xthrow.obj
 0002:00000ee0       ??_7type_info@@6B@         000000018005eee0     LIBCMT:std_type_info_static.obj
 0002:00000ee8       _pRawDllMain               000000018005eee8     LIBCMT:dll_dllmain.obj
 0002:00000ee8       _pDefaultRawDllMain        000000018005eee8     LIBCMT:dll_dllmain.obj
 0002:00000f08       ??_7bad_array_new_length@std@@6B@ 000000018005ef08     LIBCMT:throw_bad_alloc.obj
 0002:00000f18       ??_C@_0BF@KINCDENJ@bad?5array?5new?5length?$AA@ 000000018005ef18     LIBCMT:throw_bad_alloc.obj
 0002:00000f30       _pDestructExceptionObject  000000018005ef30     libvcruntime:frame.obj
 0002:00000f40       ??_7bad_exception@std@@6B@ 000000018005ef40     libvcruntime:frame.obj
 0002:00000f50       ??_C@_0O@DPKOEFFH@bad?5exception?$AA@ 000000018005ef50     libvcruntime:frame.obj
 0002:00001058       ??_C@_1BC@DNHGCMLG@?$AAa?$AAd?$AAv?$AAa?$AAp?$AAi?$AA3?$AA2?$AA?$AA@ 000000018005f058     libvcruntime:winapi_downlevel.obj
 0002:00001070       ??_C@_1DM@KHCHBNEB@?$AAa?$AAp?$AAi?$AA?9?$AAm?$AAs?$AA?9?$AAw?$AAi?$AAn?$AA?9?$AAc?$AAo?$AAr?$AAe?$AA?9?$AAf?$AAi?$AAb?$AAe?$AAr?$AAs?$AA?9?$AAl?$AA1?$AA?9?$AA1?$AA?9?$AA1?$AA?$AA@ 000000018005f070     libvcruntime:winapi_downlevel.obj
 0002:000010b0       ??_C@_1DK@LPPGFMPP@?$AAa?$AAp?$AAi?$AA?9?$AAm?$AAs?$AA?9?$AAw?$AAi?$AAn?$AA?9?$AAc?$AAo?$AAr?$AAe?$AA?9?$AAs?$AAy?$AAn?$AAc?$AAh?$AA?9?$AAl?$AA1?$AA?9?$AA2?$AA?9?$AA0?$AA?$AA@ 000000018005f0b0     libvcruntime:winapi_downlevel.obj
 0002:000010f0       ??_C@_1BC@GDMECMAK@?$AAk?$AAe?$AAr?$AAn?$AAe?$AAl?$AA3?$AA2?$AA?$AA@ 000000018005f0f0     libvcruntime:winapi_downlevel.obj
 0002:00001110       ??_C@_08KNHFBNJ@FlsAlloc?$AA@ 000000018005f110     libvcruntime:winapi_downlevel.obj
 0002:00001128       ??_C@_07PEJMOBNF@FlsFree?$AA@ 000000018005f128     libvcruntime:winapi_downlevel.obj
 0002:00001138       ??_C@_0M@GDNOONDI@FlsGetValue?$AA@ 000000018005f138     libvcruntime:winapi_downlevel.obj
 0002:00001150       ??_C@_0M@JCPCPOEF@FlsSetValue?$AA@ 000000018005f150     libvcruntime:winapi_downlevel.obj
 0002:00001168       ??_C@_0BM@HCFOFFN@InitializeCriticalSectionEx?$AA@ 000000018005f168     libvcruntime:winapi_downlevel.obj
 0002:000014b0       ??_C@_08EHJDFFNH@__based?$CI?$AA@ 000000018005f4b0     libvcruntime:undname.obj
 0002:000014c0       ??_C@_07KOLFKCDI@__cdecl?$AA@ 000000018005f4c0     libvcruntime:undname.obj
 0002:000014c8       ??_C@_08GHMPAG@__pascal?$AA@ 000000018005f4c8     libvcruntime:undname.obj
 0002:000014d8       ??_C@_09IFJBGAPI@__stdcall?$AA@ 000000018005f4d8     libvcruntime:undname.obj
 0002:000014e8       ??_C@_0L@NPHFGOKO@__thiscall?$AA@ 000000018005f4e8     libvcruntime:undname.obj
 0002:000014f8       ??_C@_0L@JMKHOMEK@__fastcall?$AA@ 000000018005f4f8     libvcruntime:undname.obj
 0002:00001508       ??_C@_0N@BCKKPABJ@__vectorcall?$AA@ 000000018005f508     libvcruntime:undname.obj
 0002:00001518       ??_C@_09HIJEGCPM@__clrcall?$AA@ 000000018005f518     libvcruntime:undname.obj
 0002:00001524       ??_C@_06GHPCKEAG@__eabi?$AA@ 000000018005f524     libvcruntime:undname.obj
 0002:00001530       ??_C@_07JOMMBBKO@__ptr64?$AA@ 000000018005f530     libvcruntime:undname.obj
 0002:00001538       ??_C@_0L@PILCLIHE@__restrict?$AA@ 000000018005f538     libvcruntime:undname.obj
 0002:00001548       ??_C@_0M@GFIIJFMG@__unaligned?$AA@ 000000018005f548     libvcruntime:undname.obj
 0002:00001558       ??_C@_09DHDLOLLB@restrict?$CI?$AA@ 000000018005f558     libvcruntime:undname.obj
 0002:00001562       ??_C@_00CNPNBAHC@?$AA@     000000018005f562     libvcruntime:undname.obj
 0002:00001564       ??_C@_04NIHEBCM@?5new?$AA@ 000000018005f564     libvcruntime:undname.obj
 0002:00001570       ??_C@_07FPCDHGMM@?5delete?$AA@ 000000018005f570     libvcruntime:undname.obj
 0002:00001578       ??_C@_01NEMOKFLO@?$DN?$AA@ 000000018005f578     libvcruntime:undname.obj
 0002:0000157c       ??_C@_02GPIOPFAK@?$DO?$DO?$AA@ 000000018005f57c     libvcruntime:undname.obj
 0002:00001580       ??_C@_02FODMEDOG@?$DM?$DM?$AA@ 000000018005f580     libvcruntime:undname.obj
 0002:00001584       ??_C@_01DCLJPIOD@?$CB?$AA@ 000000018005f584     libvcruntime:undname.obj
 0002:00001588       ??_C@_02EGOFBIJA@?$DN?$DN?$AA@ 000000018005f588     libvcruntime:undname.obj
 0002:0000158c       ??_C@_02FDNJECIE@?$CB?$DN?$AA@ 000000018005f58c     libvcruntime:undname.obj
 0002:00001590       ??_C@_02GPECMEKF@?$FL?$FN?$AA@ 000000018005f590     libvcruntime:undname.obj
 0002:00001598       ??_C@_08LHJFAFGD@operator?$AA@ 000000018005f598     libvcruntime:undname.obj
 0002:000015a4       ??_C@_02HBOOOICD@?9?$DO?$AA@ 000000018005f5a4     libvcruntime:undname.obj
 0002:000015a8       ??_C@_01NBENCBCI@?$CK?$AA@ 000000018005f5a8     libvcruntime:undname.obj
 0002:000015ac       ??_C@_02ECNGHCIF@?$CL?$CL?$AA@ 000000018005f5ac     libvcruntime:undname.obj
 0002:000015b0       ??_C@_02BAABKJLB@?9?9?$AA@ 000000018005f5b0     libvcruntime:undname.obj
 0002:000015b4       ??_C@_01JOAMLHOP@?9?$AA@   000000018005f5b4     libvcruntime:undname.obj
 0002:000015b8       ??_C@_01MIFGBAGJ@?$CL?$AA@ 000000018005f5b8     libvcruntime:undname.obj
 0002:000015bc       ??_C@_01HNPIGOCE@?$CG?$AA@ 000000018005f5bc     libvcruntime:undname.obj
 0002:000015c0       ??_C@_03MNHNFDLC@?9?$DO?$CK?$AA@ 000000018005f5c0     libvcruntime:undname.obj
 0002:000015c4       ??_C@_01KMDKNFGN@?1?$AA@   000000018005f5c4     libvcruntime:undname.obj
 0002:000015c8       ??_C@_01FGNFDNOH@?$CF?$AA@ 000000018005f5c8     libvcruntime:undname.obj
 0002:000015cc       ??_C@_01MNNFJEPP@?$DM?$AA@ 000000018005f5cc     libvcruntime:undname.obj
 0002:000015d0       ??_C@_02EHCHHCKH@?$DM?$DN?$AA@ 000000018005f5d0     libvcruntime:undname.obj
 0002:000015d4       ??_C@_01PPODPGHN@?$DO?$AA@ 000000018005f5d4     libvcruntime:undname.obj
 0002:000015d8       ??_C@_02EEKDKGMJ@?$DO?$DN?$AA@ 000000018005f5d8     libvcruntime:undname.obj
 0002:000015dc       ??_C@_01IHBHIGKO@?0?$AA@   000000018005f5dc     libvcruntime:undname.obj
 0002:000015e0       ??_C@_02HCKGKOFO@?$CI?$CJ?$AA@ 000000018005f5e0     libvcruntime:undname.obj
 0002:000015e4       ??_C@_01PJKLJHI@?$HO?$AA@  000000018005f5e4     libvcruntime:undname.obj
 0002:000015e8       ??_C@_01JKBOJNNK@?$FO?$AA@ 000000018005f5e8     libvcruntime:undname.obj
 0002:000015ec       ??_C@_01DNKMNLPK@?$HM?$AA@ 000000018005f5ec     libvcruntime:undname.obj
 0002:000015f0       ??_C@_02PPKAJPJL@?$CG?$CG?$AA@ 000000018005f5f0     libvcruntime:undname.obj
 0002:000015f4       ??_C@_02NONPIBCD@?$HM?$HM?$AA@ 000000018005f5f4     libvcruntime:undname.obj
 0002:000015f8       ??_C@_02FPIMKNGF@?$CK?$DN?$AA@ 000000018005f5f8     libvcruntime:undname.obj
 0002:000015fc       ??_C@_02FOEOMHFC@?$CL?$DN?$AA@ 000000018005f5fc     libvcruntime:undname.obj
 0002:00001600       ??_C@_02FKMDLLOA@?9?$DN?$AA@ 000000018005f600     libvcruntime:undname.obj
 0002:00001604       ??_C@_02FJEHGPIO@?1?$DN?$AA@ 000000018005f604     libvcruntime:undname.obj
 0002:00001608       ??_C@_02FENAOKFI@?$CF?$DN?$AA@ 000000018005f608     libvcruntime:undname.obj
 0002:0000160c       ??_C@_03IKFCCPFF@?$DO?$DO?$DN?$AA@ 000000018005f60c     libvcruntime:undname.obj
 0002:00001610       ??_C@_03CDNPDDLA@?$DM?$DM?$DN?$AA@ 000000018005f610     libvcruntime:undname.obj
 0002:00001614       ??_C@_02FGJGFEAB@?$CG?$DN?$AA@ 000000018005f614     libvcruntime:undname.obj
 0002:00001618       ??_C@_02DHLNPPGH@?$HM?$DN?$AA@ 000000018005f618     libvcruntime:undname.obj
 0002:0000161c       ??_C@_02MHEGNOJ@?$FO?$DN?$AA@ 000000018005f61c     libvcruntime:undname.obj
 0002:00001620       ??_C@_09IFPLHPGF@?$GAvftable?8?$AA@ 000000018005f620     libvcruntime:undname.obj
 0002:00001630       ??_C@_09BLBHBJP@?$GAvbtable?8?$AA@ 000000018005f630     libvcruntime:undname.obj
 0002:00001640       ??_C@_07FEEIOKP@?$GAvcall?8?$AA@ 000000018005f640     libvcruntime:undname.obj
 0002:00001648       ??_C@_08LLFFHHDJ@?$GAtypeof?8?$AA@ 000000018005f648     libvcruntime:undname.obj
 0002:00001658       ??_C@_0BF@KDPPACIK@?$GAlocal?5static?5guard?8?$AA@ 000000018005f658     libvcruntime:undname.obj
 0002:00001670       ??_C@_08OBABFOLI@?$GAstring?8?$AA@ 000000018005f670     libvcruntime:undname.obj
 0002:00001680       ??_C@_0BD@JDLKDPAB@?$GAvbase?5destructor?8?$AA@ 000000018005f680     libvcruntime:undname.obj
 0002:00001698       ??_C@_0BN@DEGPLNFK@?$GAvector?5deleting?5destructor?8?$AA@ 000000018005f698     libvcruntime:undname.obj
 0002:000016b8       ??_C@_0BO@OBMKPJIG@?$GAdefault?5constructor?5closure?8?$AA@ 000000018005f6b8     libvcruntime:undname.obj
 0002:000016d8       ??_C@_0BN@IMDCHIKM@?$GAscalar?5deleting?5destructor?8?$AA@ 000000018005f6d8     libvcruntime:undname.obj
 0002:000016f8       ??_C@_0BO@PFGOCPJJ@?$GAvector?5constructor?5iterator?8?$AA@ 000000018005f6f8     libvcruntime:undname.obj
 0002:00001718       ??_C@_0BN@LFPFMEDL@?$GAvector?5destructor?5iterator?8?$AA@ 000000018005f718     libvcruntime:undname.obj
 0002:00001738       ??_C@_0CE@IKBNEHA@?$GAvector?5vbase?5constructor?5iterat@ 000000018005f738     libvcruntime:undname.obj
 0002:00001760       ??_C@_0BL@NILFHHPC@?$GAvirtual?5displacement?5map?8?$AA@ 000000018005f760     libvcruntime:undname.obj
 0002:00001780       ??_C@_0CB@JONCMFFK@?$GAeh?5vector?5constructor?5iterator?8@ 000000018005f780     libvcruntime:undname.obj
 0002:000017a8       ??_C@_0CA@GCEOPDGL@?$GAeh?5vector?5destructor?5iterator?8?$AA@ 000000018005f7a8     libvcruntime:undname.obj
 0002:000017c8       ??_C@_0CH@OOJPLCPH@?$GAeh?5vector?5vbase?5constructor?5ite@ 000000018005f7c8     libvcruntime:undname.obj
 0002:000017f0       ??_C@_0BL@LLKPOHJI@?$GAcopy?5constructor?5closure?8?$AA@ 000000018005f7f0     libvcruntime:undname.obj
 0002:00001810       ??_C@_0BA@KBCDOMBN@?$GAudt?5returning?8?$AA@ 000000018005f810     libvcruntime:undname.obj
 0002:00001820       ??_C@_03KLGMFNMG@?$GAEH?$AA@ 000000018005f820     libvcruntime:undname.obj
 0002:00001824       ??_C@_05KHLCHHI@?$GARTTI?$AA@ 000000018005f824     libvcruntime:undname.obj
 0002:00001830       ??_C@_0BA@KKLDJDLB@?$GAlocal?5vftable?8?$AA@ 000000018005f830     libvcruntime:undname.obj
 0002:00001840       ??_C@_0CE@IIHCMGGL@?$GAlocal?5vftable?5constructor?5closu@ 000000018005f840     libvcruntime:undname.obj
 0002:00001864       ??_C@_06FHBGPFGH@?5new?$FL?$FN?$AA@ 000000018005f864     libvcruntime:undname.obj
 0002:00001870       ??_C@_09LBNFPBCA@?5delete?$FL?$FN?$AA@ 000000018005f870     libvcruntime:undname.obj
 0002:00001880       ??_C@_0P@HJKNJFNN@?$GAomni?5callsig?8?$AA@ 000000018005f880     libvcruntime:undname.obj
 0002:00001890       ??_C@_0BL@CNOONJFP@?$GAplacement?5delete?5closure?8?$AA@ 000000018005f890     libvcruntime:undname.obj
 0002:000018b0       ??_C@_0BN@CKNJLHMB@?$GAplacement?5delete?$FL?$FN?5closure?8?$AA@ 000000018005f8b0     libvcruntime:undname.obj
 0002:000018d0       ??_C@_0CG@CFDHKGGD@?$GAmanaged?5vector?5constructor?5iter@ 000000018005f8d0     libvcruntime:undname.obj
 0002:000018f8       ??_C@_0CF@IMGKMJNO@?$GAmanaged?5vector?5destructor?5itera@ 000000018005f8f8     libvcruntime:undname.obj
 0002:00001920       ??_C@_0CG@HLDDJMAG@?$GAeh?5vector?5copy?5constructor?5iter@ 000000018005f920     libvcruntime:undname.obj
 0002:00001948       ??_C@_0CM@FCBBDIGB@?$GAeh?5vector?5vbase?5copy?5constructo@ 000000018005f948     libvcruntime:undname.obj
 0002:00001978       ??_C@_0BL@CLIPGLGB@?$GAdynamic?5initializer?5for?5?8?$AA@ 000000018005f978     libvcruntime:undname.obj
 0002:00001998       ??_C@_0CB@PDBIFEP@?$GAdynamic?5atexit?5destructor?5for?5?8@ 000000018005f998     libvcruntime:undname.obj
 0002:000019c0       ??_C@_0CD@CGAJBKEJ@?$GAvector?5copy?5constructor?5iterato@ 000000018005f9c0     libvcruntime:undname.obj
 0002:000019e8       ??_C@_0CJ@GJELGAMM@?$GAvector?5vbase?5copy?5constructor?5i@ 000000018005f9e8     libvcruntime:undname.obj
 0002:00001a18       ??_C@_0CL@FGIJHLCE@?$GAmanaged?5vector?5copy?5constructor@ 000000018005fa18     libvcruntime:undname.obj
 0002:00001a48       ??_C@_0BM@PMGGMLDN@?$GAlocal?5static?5thread?5guard?8?$AA@ 000000018005fa48     libvcruntime:undname.obj
 0002:00001a68       ??_C@_0N@BDNMDMOL@operator?5?$CC?$CC?5?$AA@ 000000018005fa68     libvcruntime:undname.obj
 0002:00001a78       ??_C@_0BC@DAFEJGAK@?5Type?5Descriptor?8?$AA@ 000000018005fa78     libvcruntime:undname.obj
 0002:00001a90       ??_C@_0BM@LDKODKLH@?5Base?5Class?5Descriptor?5at?5?$CI?$AA@ 000000018005fa90     libvcruntime:undname.obj
 0002:00001ab0       ??_C@_0BD@LGICGFMM@?5Base?5Class?5Array?8?$AA@ 000000018005fab0     libvcruntime:undname.obj
 0002:00001ac8       ??_C@_0BN@MECKDCOJ@?5Class?5Hierarchy?5Descriptor?8?$AA@ 000000018005fac8     libvcruntime:undname.obj
 0002:00001ae8       ??_C@_0BK@CFCOFLF@?5Complete?5Object?5Locator?8?$AA@ 000000018005fae8     libvcruntime:undname.obj
 0002:00001b10       __acrt_exception_action_table 000000018005fb10     libucrt:exception_filter.obj
 0002:00001bd0       __acrt_signal_action_table_count 000000018005fbd0     libucrt:exception_filter.obj
 0002:00001bd8       __acrt_signal_action_first_fpe_index 000000018005fbd8     libucrt:exception_filter.obj
 0002:00001be0       __acrt_signal_action_fpe_count 000000018005fbe0     libucrt:exception_filter.obj
 0002:00001be8       ??_C@_1BI@BGOHAHKC@?$AAm?$AAs?$AAc?$AAo?$AAr?$AAe?$AAe?$AA?4?$AAd?$AAl?$AAl?$AA?$AA@ 000000018005fbe8     libucrt:exit.obj
 0002:00001c00       ??_C@_0P@MIGLKIOC@CorExitProcess?$AA@ 000000018005fc00     libucrt:exit.obj
 0002:00001e70       __lc_time_c                000000018005fe70     libucrt:nlsdata.obj
 0002:00002130       ??_C@_03KOEHGMDN@Sun?$AA@  0000000180060130     libucrt:nlsdata.obj
 0002:00002134       ??_C@_03PDAGKDH@Mon?$AA@   0000000180060134     libucrt:nlsdata.obj
 0002:00002138       ??_C@_03NAGEINEP@Tue?$AA@  0000000180060138     libucrt:nlsdata.obj
 0002:0000213c       ??_C@_03MHOMLAJA@Wed?$AA@  000000018006013c     libucrt:nlsdata.obj
 0002:00002140       ??_C@_03IOFIKPDN@Thu?$AA@  0000000180060140     libucrt:nlsdata.obj
 0002:00002144       ??_C@_03IDIOELNC@Fri?$AA@  0000000180060144     libucrt:nlsdata.obj
 0002:00002148       ??_C@_03FEFJNEK@Sat?$AA@   0000000180060148     libucrt:nlsdata.obj
 0002:0000214c       ??_C@_06OOPIFAJ@Sunday?$AA@ 000000018006014c     libucrt:nlsdata.obj
 0002:00002154       ??_C@_06JLEDEDGH@Monday?$AA@ 0000000180060154     libucrt:nlsdata.obj
 0002:00002160       ??_C@_07BAAGCFCM@Tuesday?$AA@ 0000000180060160     libucrt:nlsdata.obj
 0002:00002168       ??_C@_09DLIGFAKA@Wednesday?$AA@ 0000000180060168     libucrt:nlsdata.obj
 0002:00002178       ??_C@_08HACCIKIA@Thursday?$AA@ 0000000180060178     libucrt:nlsdata.obj
 0002:00002184       ??_C@_06JECMNKMI@Friday?$AA@ 0000000180060184     libucrt:nlsdata.obj
 0002:00002190       ??_C@_08INBOOONO@Saturday?$AA@ 0000000180060190     libucrt:nlsdata.obj
 0002:0000219c       ??_C@_03JIHJHPIE@Jan?$AA@  000000018006019c     libucrt:nlsdata.obj
 0002:000021a0       ??_C@_03HJBDCHOM@Feb?$AA@  00000001800601a0     libucrt:nlsdata.obj
 0002:000021a4       ??_C@_03ODNJBKGA@Mar?$AA@  00000001800601a4     libucrt:nlsdata.obj
 0002:000021a8       ??_C@_03LEOLGMJP@Apr?$AA@  00000001800601a8     libucrt:nlsdata.obj
 0002:000021ac       ??_C@_03CNMDKL@May?$AA@    00000001800601ac     libucrt:nlsdata.obj
 0002:000021b0       ??_C@_03IDFGHECI@Jun?$AA@  00000001800601b0     libucrt:nlsdata.obj
 0002:000021b4       ??_C@_03LBGABGKK@Jul?$AA@  00000001800601b4     libucrt:nlsdata.obj
 0002:000021b8       ??_C@_03IFJFEIGA@Aug?$AA@  00000001800601b8     libucrt:nlsdata.obj
 0002:000021bc       ??_C@_03GGCAPAJC@Sep?$AA@  00000001800601bc     libucrt:nlsdata.obj
 0002:000021c0       ??_C@_03BMAOKBAD@Oct?$AA@  00000001800601c0     libucrt:nlsdata.obj
 0002:000021c4       ??_C@_03JPJOFNIA@Nov?$AA@  00000001800601c4     libucrt:nlsdata.obj
 0002:000021c8       ??_C@_03MKABNOCG@Dec?$AA@  00000001800601c8     libucrt:nlsdata.obj
 0002:000021d0       ??_C@_07CGJPFGJA@January?$AA@ 00000001800601d0     libucrt:nlsdata.obj
 0002:000021d8       ??_C@_08GNJGEPFN@February?$AA@ 00000001800601d8     libucrt:nlsdata.obj
 0002:000021e4       ??_C@_05HPCKOFNC@March?$AA@ 00000001800601e4     libucrt:nlsdata.obj
 0002:000021ec       ??_C@_05DMJDNLEJ@April?$AA@ 00000001800601ec     libucrt:nlsdata.obj
 0002:000021f4       ??_C@_04CNLMGBGM@June?$AA@ 00000001800601f4     libucrt:nlsdata.obj
 0002:000021fc       ??_C@_04MIEPOIFP@July?$AA@ 00000001800601fc     libucrt:nlsdata.obj
 0002:00002204       ??_C@_06LBBHFDDG@August?$AA@ 0000000180060204     libucrt:nlsdata.obj
 0002:00002210       ??_C@_09BHHEALKD@September?$AA@ 0000000180060210     libucrt:nlsdata.obj
 0002:00002220       ??_C@_07JJNFCEND@October?$AA@ 0000000180060220     libucrt:nlsdata.obj
 0002:00002228       ??_C@_08HCHEGEOA@November?$AA@ 0000000180060228     libucrt:nlsdata.obj
 0002:00002238       ??_C@_08EDHMEBNP@December?$AA@ 0000000180060238     libucrt:nlsdata.obj
 0002:00002244       ??_C@_02DEDBPAFC@AM?$AA@   0000000180060244     libucrt:nlsdata.obj
 0002:00002248       ??_C@_02CJNFDJBF@PM?$AA@   0000000180060248     libucrt:nlsdata.obj
 0002:00002250       ??_C@_08BPBNCDIB@MM?1dd?1yy?$AA@ 0000000180060250     libucrt:nlsdata.obj
 0002:00002260       ??_C@_0BE@CKGJFCPC@dddd?0?5MMMM?5dd?0?5yyyy?$AA@ 0000000180060260     libucrt:nlsdata.obj
 0002:00002278       ??_C@_08JCCMCCIL@HH?3mm?3ss?$AA@ 0000000180060278     libucrt:nlsdata.obj
 0002:00002288       ??_C@_17MBGCMIPB@?$AAS?$AAu?$AAn?$AA?$AA@ 0000000180060288     libucrt:nlsdata.obj
 0002:00002290       ??_C@_17KBOMKBF@?$AAM?$AAo?$AAn?$AA?$AA@ 0000000180060290     libucrt:nlsdata.obj
 0002:00002298       ??_C@_17BMKGEGOJ@?$AAT?$AAu?$AAe?$AA?$AA@ 0000000180060298     libucrt:nlsdata.obj
 0002:000022a0       ??_C@_17CJEDCEPE@?$AAW?$AAe?$AAd?$AA?$AA@ 00000001800602a0     libucrt:nlsdata.obj
 0002:000022a8       ??_C@_17PDPHAADD@?$AAT?$AAh?$AAu?$AA?$AA@ 00000001800602a8     libucrt:nlsdata.obj
 0002:000022b0       ??_C@_17HFOLPPLP@?$AAF?$AAr?$AAi?$AA?$AA@ 00000001800602b0     libucrt:nlsdata.obj
 0002:000022b8       ??_C@_17GGIBDPIH@?$AAS?$AAa?$AAt?$AA?$AA@ 00000001800602b8     libucrt:nlsdata.obj
 0002:000022c0       ??_C@_1O@IHNHDHPB@?$AAS?$AAu?$AAn?$AAd?$AAa?$AAy?$AA?$AA@ 00000001800602c0     libucrt:nlsdata.obj
 0002:000022d0       ??_C@_1O@MMNBFLIA@?$AAM?$AAo?$AAn?$AAd?$AAa?$AAy?$AA?$AA@ 00000001800602d0     libucrt:nlsdata.obj
 0002:000022e0       ??_C@_1BA@ENFBFFEK@?$AAT?$AAu?$AAe?$AAs?$AAd?$AAa?$AAy?$AA?$AA@ 00000001800602e0     libucrt:nlsdata.obj
 0002:000022f0       ??_C@_1BE@EBOGMDOH@?$AAW?$AAe?$AAd?$AAn?$AAe?$AAs?$AAd?$AAa?$AAy?$AA?$AA@ 00000001800602f0     libucrt:nlsdata.obj
 0002:00002308       ??_C@_1BC@HHMNLIHE@?$AAT?$AAh?$AAu?$AAr?$AAs?$AAd?$AAa?$AAy?$AA?$AA@ 0000000180060308     libucrt:nlsdata.obj
 0002:00002320       ??_C@_1O@PDICJHAG@?$AAF?$AAr?$AAi?$AAd?$AAa?$AAy?$AA?$AA@ 0000000180060320     libucrt:nlsdata.obj
 0002:00002330       ??_C@_1BC@ENMNNPAJ@?$AAS?$AAa?$AAt?$AAu?$AAr?$AAd?$AAa?$AAy?$AA?$AA@ 0000000180060330     libucrt:nlsdata.obj
 0002:00002348       ??_C@_17DKNBKCHM@?$AAJ?$AAa?$AAn?$AA?$AA@ 0000000180060348     libucrt:nlsdata.obj
 0002:00002350       ??_C@_17LMDJEKJN@?$AAF?$AAe?$AAb?$AA?$AA@ 0000000180060350     libucrt:nlsdata.obj
 0002:00002358       ??_C@_17CKNLEDEC@?$AAM?$AAa?$AAr?$AA?$AA@ 0000000180060358     libucrt:nlsdata.obj
 0002:00002360       ??_C@_17LFPOIHDD@?$AAA?$AAp?$AAr?$AA?$AA@ 0000000180060360     libucrt:nlsdata.obj
 0002:00002368       ??_C@_17PNNKMEED@?$AAM?$AAa?$AAy?$AA?$AA@ 0000000180060368     libucrt:nlsdata.obj
 0002:00002370       ??_C@_17KCJGOCPB@?$AAJ?$AAu?$AAn?$AA?$AA@ 0000000180060370     libucrt:nlsdata.obj
 0002:00002378       ??_C@_17IJPCKHK@?$AAJ?$AAu?$AAl?$AA?$AA@ 0000000180060378     libucrt:nlsdata.obj
 0002:00002380       ??_C@_17ICPELBCN@?$AAA?$AAu?$AAg?$AA?$AA@ 0000000180060380     libucrt:nlsdata.obj
 0002:00002388       ??_C@_17HCHCOKMG@?$AAS?$AAe?$AAp?$AA?$AA@ 0000000180060388     libucrt:nlsdata.obj
 0002:00002390       ??_C@_17FNLKOI@?$AAO?$AAc?$AAt?$AA?$AA@ 0000000180060390     libucrt:nlsdata.obj
 0002:00002398       ??_C@_17BBDMLCIG@?$AAN?$AAo?$AAv?$AA?$AA@ 0000000180060398     libucrt:nlsdata.obj
 0002:000023a0       ??_C@_17EGKACKIF@?$AAD?$AAe?$AAc?$AA?$AA@ 00000001800603a0     libucrt:nlsdata.obj
 0002:000023a8       ??_C@_1BA@EFMEIEBA@?$AAJ?$AAa?$AAn?$AAu?$AAa?$AAr?$AAy?$AA?$AA@ 00000001800603a8     libucrt:nlsdata.obj
 0002:000023b8       ??_C@_1BC@JGDDFFAM@?$AAF?$AAe?$AAb?$AAr?$AAu?$AAa?$AAr?$AAy?$AA?$AA@ 00000001800603b8     libucrt:nlsdata.obj
 0002:000023d0       ??_C@_1M@IKEENEDF@?$AAM?$AAa?$AAr?$AAc?$AAh?$AA?$AA@ 00000001800603d0     libucrt:nlsdata.obj
 0002:000023e0       ??_C@_1M@GJNLMHFD@?$AAA?$AAp?$AAr?$AAi?$AAl?$AA?$AA@ 00000001800603e0     libucrt:nlsdata.obj
 0002:000023f0       ??_C@_19EPFLPGAP@?$AAJ?$AAu?$AAn?$AAe?$AA?$AA@ 00000001800603f0     libucrt:nlsdata.obj
 0002:00002400       ??_C@_19BIFMLPCD@?$AAJ?$AAu?$AAl?$AAy?$AA?$AA@ 0000000180060400     libucrt:nlsdata.obj
 0002:00002410       ??_C@_1O@PAHLKOAC@?$AAA?$AAu?$AAg?$AAu?$AAs?$AAt?$AA?$AA@ 0000000180060410     libucrt:nlsdata.obj
 0002:00002420       ??_C@_1BE@DKAAMBJL@?$AAS?$AAe?$AAp?$AAt?$AAe?$AAm?$AAb?$AAe?$AAr?$AA?$AA@ 0000000180060420     libucrt:nlsdata.obj
 0002:00002438       ??_C@_1BA@EPANDLNG@?$AAO?$AAc?$AAt?$AAo?$AAb?$AAe?$AAr?$AA?$AA@ 0000000180060438     libucrt:nlsdata.obj
 0002:00002448       ??_C@_1BC@BGLIFPF@?$AAN?$AAo?$AAv?$AAe?$AAm?$AAb?$AAe?$AAr?$AA?$AA@ 0000000180060448     libucrt:nlsdata.obj
 0002:00002460       ??_C@_1BC@FEMKIFH@?$AAD?$AAe?$AAc?$AAe?$AAm?$AAb?$AAe?$AAr?$AA?$AA@ 0000000180060460     libucrt:nlsdata.obj
 0002:00002474       ??_C@_15ODEHAHHF@?$AAA?$AAM?$AA?$AA@ 0000000180060474     libucrt:nlsdata.obj
 0002:0000247c       ??_C@_15CLMNNGEL@?$AAP?$AAM?$AA?$AA@ 000000018006047c     libucrt:nlsdata.obj
 0002:00002488       ??_C@_1BC@IEBCMHCM@?$AAM?$AAM?$AA?1?$AAd?$AAd?$AA?1?$AAy?$AAy?$AA?$AA@ 0000000180060488     libucrt:nlsdata.obj
 0002:000024a0       ??_C@_1CI@KNAKOEBC@?$AAd?$AAd?$AAd?$AAd?$AA?0?$AA?5?$AAM?$AAM?$AAM?$AAM?$AA?5?$AAd?$AAd?$AA?0?$AA?5?$AAy?$AAy?$AAy?$AAy?$AA?$AA@ 00000001800604a0     libucrt:nlsdata.obj
 0002:000024c8       ??_C@_1BC@GDGBMEMK@?$AAH?$AAH?$AA?3?$AAm?$AAm?$AA?3?$AAs?$AAs?$AA?$AA@ 00000001800604c8     libucrt:nlsdata.obj
 0002:000024e0       ??_C@_1M@BMHNFIME@?$AAe?$AAn?$AA?9?$AAU?$AAS?$AA?$AA@ 00000001800604e0     libucrt:nlsdata.obj
 0002:00002590       ??_C@_1EG@CNNIPFIM@?$AAa?$AAp?$AAi?$AA?9?$AAm?$AAs?$AA?9?$AAw?$AAi?$AAn?$AA?9?$AAa?$AAp?$AAp?$AAm?$AAo?$AAd?$AAe?$AAl?$AA?9?$AAr?$AAu?$AAn?$AAt?$AAi?$AAm?$AAe?$AA?9?$AAl?$AA1?$AA?9?$AA1@ 0000000180060590     libucrt:winapi_thunks.obj
 0002:000025e0       ??_C@_1EA@JGEFHKEI@?$AAa?$AAp?$AAi?$AA?9?$AAm?$AAs?$AA?9?$AAw?$AAi?$AAn?$AA?9?$AAc?$AAo?$AAr?$AAe?$AA?9?$AAd?$AAa?$AAt?$AAe?$AAt?$AAi?$AAm?$AAe?$AA?9?$AAl?$AA1?$AA?9?$AA1?$AA?9?$AA1?$AA?$AA@ 00000001800605e0     libucrt:winapi_thunks.obj
 0002:00002620       ??_C@_1DI@GCIAAENM@?$AAa?$AAp?$AAi?$AA?9?$AAm?$AAs?$AA?9?$AAw?$AAi?$AAn?$AA?9?$AAc?$AAo?$AAr?$AAe?$AA?9?$AAf?$AAi?$AAl?$AAe?$AA?9?$AAl?$AA2?$AA?9?$AA1?$AA?9?$AA1?$AA?$AA@ 0000000180060620     libucrt:winapi_thunks.obj
 0002:00002660       ??_C@_1EI@MPIAOHOC@?$AAa?$AAp?$AAi?$AA?9?$AAm?$AAs?$AA?9?$AAw?$AAi?$AAn?$AA?9?$AAc?$AAo?$AAr?$AAe?$AA?9?$AAl?$AAo?$AAc?$AAa?$AAl?$AAi?$AAz?$AAa?$AAt?$AAi?$AAo?$AAn?$AA?9?$AAl?$AA1?$AA?9@ 0000000180060660     libucrt:winapi_thunks.obj
 0002:000026b0       ??_C@_1FK@FPHCKFIE@?$AAa?$AAp?$AAi?$AA?9?$AAm?$AAs?$AA?9?$AAw?$AAi?$AAn?$AA?9?$AAc?$AAo?$AAr?$AAe?$AA?9?$AAl?$AAo?$AAc?$AAa?$AAl?$AAi?$AAz?$AAa?$AAt?$AAi?$AAo?$AAn?$AA?9?$AAo?$AAb?$AAs@ 00000001800606b0     libucrt:winapi_thunks.obj
 0002:00002710       ??_C@_1EM@DILCGIIO@?$AAa?$AAp?$AAi?$AA?9?$AAm?$AAs?$AA?9?$AAw?$AAi?$AAn?$AA?9?$AAc?$AAo?$AAr?$AAe?$AA?9?$AAp?$AAr?$AAo?$AAc?$AAe?$AAs?$AAs?$AAt?$AAh?$AAr?$AAe?$AAa?$AAd?$AAs?$AA?9?$AAl@ 0000000180060710     libucrt:winapi_thunks.obj
 0002:00002760       ??_C@_1DM@LNCGDDPN@?$AAa?$AAp?$AAi?$AA?9?$AAm?$AAs?$AA?9?$AAw?$AAi?$AAn?$AA?9?$AAc?$AAo?$AAr?$AAe?$AA?9?$AAs?$AAt?$AAr?$AAi?$AAn?$AAg?$AA?9?$AAl?$AA1?$AA?9?$AA1?$AA?9?$AA0?$AA?$AA@ 0000000180060760     libucrt:winapi_thunks.obj
 0002:000027a0       ??_C@_1DO@FPAPJEMD@?$AAa?$AAp?$AAi?$AA?9?$AAm?$AAs?$AA?9?$AAw?$AAi?$AAn?$AA?9?$AAc?$AAo?$AAr?$AAe?$AA?9?$AAs?$AAy?$AAs?$AAi?$AAn?$AAf?$AAo?$AA?9?$AAl?$AA1?$AA?9?$AA2?$AA?9?$AA1?$AA?$AA@ 00000001800607a0     libucrt:winapi_thunks.obj
 0002:000027e0       ??_C@_1DK@NDHNAHIO@?$AAa?$AAp?$AAi?$AA?9?$AAm?$AAs?$AA?9?$AAw?$AAi?$AAn?$AA?9?$AAc?$AAo?$AAr?$AAe?$AA?9?$AAw?$AAi?$AAn?$AAr?$AAt?$AA?9?$AAl?$AA1?$AA?9?$AA1?$AA?9?$AA0?$AA?$AA@ 00000001800607e0     libucrt:winapi_thunks.obj
 0002:00002820       ??_C@_1DM@KGHDGBCM@?$AAa?$AAp?$AAi?$AA?9?$AAm?$AAs?$AA?9?$AAw?$AAi?$AAn?$AA?9?$AAc?$AAo?$AAr?$AAe?$AA?9?$AAx?$AAs?$AAt?$AAa?$AAt?$AAe?$AA?9?$AAl?$AA2?$AA?9?$AA1?$AA?9?$AA0?$AA?$AA@ 0000000180060820     libucrt:winapi_thunks.obj
 0002:00002860       ??_C@_1EO@IJIOEFOH@?$AAa?$AAp?$AAi?$AA?9?$AAm?$AAs?$AA?9?$AAw?$AAi?$AAn?$AA?9?$AAr?$AAt?$AAc?$AAo?$AAr?$AAe?$AA?9?$AAn?$AAt?$AAu?$AAs?$AAe?$AAr?$AA?9?$AAw?$AAi?$AAn?$AAd?$AAo?$AAw?$AA?9@ 0000000180060860     libucrt:winapi_thunks.obj
 0002:000028b0       ??_C@_1FG@HHGEKANL@?$AAa?$AAp?$AAi?$AA?9?$AAm?$AAs?$AA?9?$AAw?$AAi?$AAn?$AA?9?$AAs?$AAe?$AAc?$AAu?$AAr?$AAi?$AAt?$AAy?$AA?9?$AAs?$AAy?$AAs?$AAt?$AAe?$AAm?$AAf?$AAu?$AAn?$AAc?$AAt?$AAi@ 00000001800608b0     libucrt:winapi_thunks.obj
 0002:00002910       ??_C@_1FG@NCKKOLKO@?$AAe?$AAx?$AAt?$AA?9?$AAm?$AAs?$AA?9?$AAw?$AAi?$AAn?$AA?9?$AAk?$AAe?$AAr?$AAn?$AAe?$AAl?$AA3?$AA2?$AA?9?$AAp?$AAa?$AAc?$AAk?$AAa?$AAg?$AAe?$AA?9?$AAc?$AAu?$AAr?$AAr@ 0000000180060910     libucrt:winapi_thunks.obj
 0002:00002970       ??_C@_1EG@DBIOJECG@?$AAe?$AAx?$AAt?$AA?9?$AAm?$AAs?$AA?9?$AAw?$AAi?$AAn?$AA?9?$AAn?$AAt?$AAu?$AAs?$AAe?$AAr?$AA?9?$AAd?$AAi?$AAa?$AAl?$AAo?$AAg?$AAb?$AAo?$AAx?$AA?9?$AAl?$AA1?$AA?9?$AA1@ 0000000180060970     libucrt:winapi_thunks.obj
 0002:000029c0       ??_C@_1EO@FIHMJCLF@?$AAe?$AAx?$AAt?$AA?9?$AAm?$AAs?$AA?9?$AAw?$AAi?$AAn?$AA?9?$AAn?$AAt?$AAu?$AAs?$AAe?$AAr?$AA?9?$AAw?$AAi?$AAn?$AAd?$AAo?$AAw?$AAs?$AAt?$AAa?$AAt?$AAi?$AAo?$AAn?$AA?9@ 00000001800609c0     libucrt:winapi_thunks.obj
 0002:00002a10       ??_C@_1O@BCCLBEOE@?$AAu?$AAs?$AAe?$AAr?$AA3?$AA2?$AA?$AA@ 0000000180060a10     libucrt:winapi_thunks.obj
 0002:00002a48       ??_C@_0BE@JOGNEJCI@GetCurrentPackageId?$AA@ 0000000180060a48     libucrt:winapi_thunks.obj
 0002:00002a70       ??_C@_0O@KKBNKAPF@LCMapStringEx?$AA@ 0000000180060a70     libucrt:winapi_thunks.obj
 0002:00002a88       ??_C@_0BB@HBDEELFH@LocaleNameToLCID?$AA@ 0000000180060a88     libucrt:winapi_thunks.obj
 0002:00002ac0       ??_C@_1M@HPNHIDJI@?$AAj?$AAa?$AA?9?$AAJ?$AAP?$AA?$AA@ 0000000180060ac0     libucrt:mbctype.obj
 0002:00002ad0       ??_C@_1M@BIBDDEMK@?$AAz?$AAh?$AA?9?$AAC?$AAN?$AA?$AA@ 0000000180060ad0     libucrt:mbctype.obj
 0002:00002ae0       ??_C@_1M@JLOOOEGK@?$AAk?$AAo?$AA?9?$AAK?$AAR?$AA?$AA@ 0000000180060ae0     libucrt:mbctype.obj
 0002:00002af0       ??_C@_1M@CLNBBOPM@?$AAz?$AAh?$AA?9?$AAT?$AAW?$AA?$AA@ 0000000180060af0     libucrt:mbctype.obj
 0002:00002b00       __newctype                 0000000180060b00     libucrt:ctype.obj
 0002:00002e00       __newclmap                 0000000180060e00     libucrt:ctype.obj
 0002:00002f80       __newcumap                 0000000180060f80     libucrt:ctype.obj
 0002:00003100       ??_C@_15PJPFLCCM@?$AAu?$AAk?$AA?$AA@ 0000000180061100     libucrt:get_qualified_locale.obj
 0002:00003f50       ??_C@_15EMKDOKLE@?$AAa?$AAr?$AA?$AA@ 0000000180061f50     libucrt:lcidtoname_downlevel.obj
 0002:00003f58       ??_C@_15KNPADPLH@?$AAb?$AAg?$AA?$AA@ 0000000180061f58     libucrt:lcidtoname_downlevel.obj
 0002:00003f60       ??_C@_15EDMHLDMO@?$AAc?$AAa?$AA?$AA@ 0000000180061f60     libucrt:lcidtoname_downlevel.obj
 0002:00003f68       ??_C@_1O@BPEAJADD@?$AAz?$AAh?$AA?9?$AAC?$AAH?$AAS?$AA?$AA@ 0000000180061f68     libucrt:lcidtoname_downlevel.obj
 0002:00003f78       ??_C@_15LJNHCMNK@?$AAc?$AAs?$AA?$AA@ 0000000180061f78     libucrt:lcidtoname_downlevel.obj
 0002:00003f80       ??_C@_15FOMCIDHG@?$AAd?$AAa?$AA?$AA@ 0000000180061f80     libucrt:lcidtoname_downlevel.obj
 0002:00003f88       ??_C@_15NBKABECB@?$AAd?$AAe?$AA?$AA@ 0000000180061f88     libucrt:lcidtoname_downlevel.obj
 0002:00003f90       ??_C@_15GHPEIIAO@?$AAe?$AAl?$AA?$AA@ 0000000180061f90     libucrt:lcidtoname_downlevel.obj
 0002:00003f98       ??_C@_15MNPNEAIF@?$AAe?$AAn?$AA?$AA@ 0000000180061f98     libucrt:lcidtoname_downlevel.obj
 0002:00003fa0       ??_C@_15GPIOMPMH@?$AAe?$AAs?$AA?$AA@ 0000000180061fa0     libucrt:lcidtoname_downlevel.obj
 0002:00003fa8       ??_C@_15NGLOAKJC@?$AAf?$AAi?$AA?$AA@ 0000000180061fa8     libucrt:lcidtoname_downlevel.obj
 0002:00003fb0       ??_C@_15FBKGNKAM@?$AAf?$AAr?$AA?$AA@ 0000000180061fb0     libucrt:lcidtoname_downlevel.obj
 0002:00003fb8       ??_C@_15KGGCNEFK@?$AAh?$AAe?$AA?$AA@ 0000000180061fb8     libucrt:lcidtoname_downlevel.obj
 0002:00003fc0       ??_C@_15PGHLIDMF@?$AAh?$AAu?$AA?$AA@ 0000000180061fc0     libucrt:lcidtoname_downlevel.obj
 0002:00003fc8       ??_C@_15BIEMAPLM@?$AAi?$AAs?$AA?$AA@ 0000000180061fc8     libucrt:lcidtoname_downlevel.obj
 0002:00003fd0       ??_C@_15IFJLDHAF@?$AAi?$AAt?$AA?$AA@ 0000000180061fd0     libucrt:lcidtoname_downlevel.obj
 0002:00003fd8       ??_C@_15GEMIOCAG@?$AAj?$AAa?$AA?$AA@ 0000000180061fd8     libucrt:lcidtoname_downlevel.obj
 0002:00003fe0       ??_C@_15EPELEGJA@?$AAk?$AAo?$AA?$AA@ 0000000180061fe0     libucrt:lcidtoname_downlevel.obj
 0002:00003fe8       ??_C@_15NDDHIMN@?$AAn?$AAl?$AA?$AA@ 0000000180061fe8     libucrt:lcidtoname_downlevel.obj
 0002:00003ff0       ??_C@_15BPIGNHCD@?$AAn?$AAo?$AA?$AA@ 0000000180061ff0     libucrt:lcidtoname_downlevel.obj
 0002:00003ff8       ??_C@_15DEOPBLCG@?$AAp?$AAl?$AA?$AA@ 0000000180061ff8     libucrt:lcidtoname_downlevel.obj
 0002:00004000       ??_C@_15KBECGEFG@?$AAp?$AAt?$AA?$AA@ 0000000180062000     libucrt:lcidtoname_downlevel.obj
 0002:00004008       ??_C@_15GLJCBFMD@?$AAr?$AAo?$AA?$AA@ 0000000180062008     libucrt:lcidtoname_downlevel.obj
 0002:00004010       ??_C@_15FEDGKCDI@?$AAr?$AAu?$AA?$AA@ 0000000180062010     libucrt:lcidtoname_downlevel.obj
 0002:00004018       ??_C@_15GLKMLLHM@?$AAh?$AAr?$AA?$AA@ 0000000180062018     libucrt:lcidtoname_downlevel.obj
 0002:00004020       ??_C@_15CPKMFBDB@?$AAs?$AAk?$AA?$AA@ 0000000180062020     libucrt:lcidtoname_downlevel.obj
 0002:00004028       ??_C@_15BAAIOGMK@?$AAs?$AAq?$AA?$AA@ 0000000180062028     libucrt:lcidtoname_downlevel.obj
 0002:00004030       ??_C@_15INNPNOHD@?$AAs?$AAv?$AA?$AA@ 0000000180062030     libucrt:lcidtoname_downlevel.obj
 0002:00004038       ??_C@_15CABMMOGH@?$AAt?$AAh?$AA?$AA@ 0000000180062038     libucrt:lcidtoname_downlevel.obj
 0002:00004040       ??_C@_15BPLIHJJM@?$AAt?$AAr?$AA?$AA@ 0000000180062040     libucrt:lcidtoname_downlevel.obj
 0002:00004048       ??_C@_15NEOEKKDJ@?$AAu?$AAr?$AA?$AA@ 0000000180062048     libucrt:lcidtoname_downlevel.obj
 0002:00004050       ??_C@_15NFICGAJK@?$AAi?$AAd?$AA?$AA@ 0000000180062050     libucrt:lcidtoname_downlevel.obj
 0002:00004058       ??_C@_15HPJPHDM@?$AAb?$AAe?$AA?$AA@ 0000000180062058     libucrt:lcidtoname_downlevel.obj
 0002:00004060       ??_C@_15LCHLGJII@?$AAs?$AAl?$AA?$AA@ 0000000180062060     libucrt:lcidtoname_downlevel.obj
 0002:00004068       ??_C@_15PCFJPHHO@?$AAe?$AAt?$AA?$AA@ 0000000180062068     libucrt:lcidtoname_downlevel.obj
 0002:00004070       ??_C@_15HPFPGODN@?$AAl?$AAv?$AA?$AA@ 0000000180062070     libucrt:lcidtoname_downlevel.obj
 0002:00004078       ??_C@_15NFFGKGLG@?$AAl?$AAt?$AA?$AA@ 0000000180062078     libucrt:lcidtoname_downlevel.obj
 0002:00004080       ??_C@_15BDAKCCHN@?$AAf?$AAa?$AA?$AA@ 0000000180062080     libucrt:lcidtoname_downlevel.obj
 0002:00004088       ??_C@_15NFGIAIAJ@?$AAv?$AAi?$AA?$AA@ 0000000180062088     libucrt:lcidtoname_downlevel.obj
 0002:00004090       ??_C@_15LMKNDMHN@?$AAh?$AAy?$AA?$AA@ 0000000180062090     libucrt:lcidtoname_downlevel.obj
 0002:00004098       ??_C@_15IJBHMCFL@?$AAa?$AAz?$AA?$AA@ 0000000180062098     libucrt:lcidtoname_downlevel.obj
 0002:000040a0       ??_C@_15EKOFJABL@?$AAe?$AAu?$AA?$AA@ 00000001800620a0     libucrt:lcidtoname_downlevel.obj
 0002:000040a8       ??_C@_15BGHADCNK@?$AAm?$AAk?$AA?$AA@ 00000001800620a8     libucrt:lcidtoname_downlevel.obj
 0002:000040b0       ??_C@_15JDNICKHM@?$AAa?$AAf?$AA?$AA@ 00000001800620b0     libucrt:lcidtoname_downlevel.obj
 0002:000040b8       ??_C@_15KPJEDBKD@?$AAk?$AAa?$AA?$AA@ 00000001800620b8     libucrt:lcidtoname_downlevel.obj
 0002:000040c0       ??_C@_15PDNFFFEO@?$AAf?$AAo?$AA?$AA@ 00000001800620c0     libucrt:lcidtoname_downlevel.obj
 0002:000040c8       ??_C@_15OMLEGLOC@?$AAh?$AAi?$AA?$AA@ 00000001800620c8     libucrt:lcidtoname_downlevel.obj
 0002:000040d0       ??_C@_15IDNNENKK@?$AAm?$AAs?$AA?$AA@ 00000001800620d0     libucrt:lcidtoname_downlevel.obj
 0002:000040d8       ??_C@_15MACJNBMH@?$AAk?$AAk?$AA?$AA@ 00000001800620d8     libucrt:lcidtoname_downlevel.obj
 0002:000040e0       ??_C@_15DKDJEOND@?$AAk?$AAy?$AA?$AA@ 00000001800620e0     libucrt:lcidtoname_downlevel.obj
 0002:000040e8       ??_C@_15DFGDLJBG@?$AAs?$AAw?$AA?$AA@ 00000001800620e8     libucrt:lcidtoname_downlevel.obj
 0002:000040f0       ??_C@_15BBFAICNG@?$AAu?$AAz?$AA?$AA@ 00000001800620f0     libucrt:lcidtoname_downlevel.obj
 0002:000040f8       ??_C@_15DKNDCGEA@?$AAt?$AAt?$AA?$AA@ 00000001800620f8     libucrt:lcidtoname_downlevel.obj
 0002:00004100       ??_C@_15MGIFMDPL@?$AAp?$AAa?$AA?$AA@ 0000000180062100     libucrt:lcidtoname_downlevel.obj
 0002:00004108       ??_C@_15HCNDBBA@?$AAg?$AAu?$AA?$AA@ 0000000180062108     libucrt:lcidtoname_downlevel.obj
 0002:00004110       ??_C@_15FNBEIBON@?$AAt?$AAa?$AA?$AA@ 0000000180062110     libucrt:lcidtoname_downlevel.obj
 0002:00004118       ??_C@_15NCHGBGLK@?$AAt?$AAe?$AA?$AA@ 0000000180062118     libucrt:lcidtoname_downlevel.obj
 0002:00004120       ??_C@_15PHPHCBPF@?$AAk?$AAn?$AA?$AA@ 0000000180062120     libucrt:lcidtoname_downlevel.obj
 0002:00004128       ??_C@_15DLGBCKMP@?$AAm?$AAr?$AA?$AA@ 0000000180062128     libucrt:lcidtoname_downlevel.obj
 0002:00004130       ??_C@_15EABBLBFF@?$AAs?$AAa?$AA?$AA@ 0000000180062130     libucrt:lcidtoname_downlevel.obj
 0002:00004138       ??_C@_15CBKOMCOI@?$AAm?$AAn?$AA?$AA@ 0000000180062138     libucrt:lcidtoname_downlevel.obj
 0002:00004140       ??_C@_15CKDMCJAF@?$AAg?$AAl?$AA?$AA@ 0000000180062140     libucrt:lcidtoname_downlevel.obj
 0002:00004148       ??_C@_17CNJFBPG@?$AAk?$AAo?$AAk?$AA?$AA@ 0000000180062148     libucrt:lcidtoname_downlevel.obj
 0002:00004150       ??_C@_17FFBJICPL@?$AAs?$AAy?$AAr?$AA?$AA@ 0000000180062150     libucrt:lcidtoname_downlevel.obj
 0002:00004158       ??_C@_17KPNDCPAF@?$AAd?$AAi?$AAv?$AA?$AA@ 0000000180062158     libucrt:lcidtoname_downlevel.obj
 0002:00004160       ??_C@_11LOCGONAA@?$AA?$AA@ 0000000180062160     libucrt:lcidtoname_downlevel.obj
 0002:00004168       ??_C@_1M@OKAHONE@?$AAa?$AAr?$AA?9?$AAS?$AAA?$AA?$AA@ 0000000180062168     libucrt:lcidtoname_downlevel.obj
 0002:00004178       ??_C@_1M@FFFIGIGK@?$AAb?$AAg?$AA?9?$AAB?$AAG?$AA?$AA@ 0000000180062178     libucrt:lcidtoname_downlevel.obj
 0002:00004188       ??_C@_1M@BJNKEDC@?$AAc?$AAa?$AA?9?$AAE?$AAS?$AA?$AA@ 0000000180062188     libucrt:lcidtoname_downlevel.obj
 0002:00004198       ??_C@_1M@IJJHFJHA@?$AAc?$AAs?$AA?9?$AAC?$AAZ?$AA?$AA@ 0000000180062198     libucrt:lcidtoname_downlevel.obj
 0002:000041a8       ??_C@_1M@CLPEOBGI@?$AAd?$AAa?$AA?9?$AAD?$AAK?$AA?$AA@ 00000001800621a8     libucrt:lcidtoname_downlevel.obj
 0002:000041b8       ??_C@_1M@MCMADGCB@?$AAd?$AAe?$AA?9?$AAD?$AAE?$AA?$AA@ 00000001800621b8     libucrt:lcidtoname_downlevel.obj
 0002:000041c8       ??_C@_1M@OOCKEMAM@?$AAe?$AAl?$AA?9?$AAG?$AAR?$AA?$AA@ 00000001800621c8     libucrt:lcidtoname_downlevel.obj
 0002:000041d8       ??_C@_1M@DDNJFGID@?$AAf?$AAi?$AA?9?$AAF?$AAI?$AA?$AA@ 00000001800621d8     libucrt:lcidtoname_downlevel.obj
 0002:000041e8       ??_C@_1M@GLIPPMAC@?$AAf?$AAr?$AA?9?$AAF?$AAR?$AA?$AA@ 00000001800621e8     libucrt:lcidtoname_downlevel.obj
 0002:000041f8       ??_C@_1M@GFMCHPE@?$AAh?$AAe?$AA?9?$AAI?$AAL?$AA?$AA@ 00000001800621f8     libucrt:lcidtoname_downlevel.obj
 0002:00004208       ??_C@_1M@MHLPGNKM@?$AAh?$AAu?$AA?9?$AAH?$AAU?$AA?$AA@ 0000000180062208     libucrt:lcidtoname_downlevel.obj
 0002:00004218       ??_C@_1M@LPDDNNPN@?$AAi?$AAs?$AA?9?$AAI?$AAS?$AA?$AA@ 0000000180062218     libucrt:lcidtoname_downlevel.obj
 0002:00004228       ??_C@_1M@MADIPODN@?$AAi?$AAt?$AA?9?$AAI?$AAT?$AA?$AA@ 0000000180062228     libucrt:lcidtoname_downlevel.obj
 0002:00004238       ??_C@_1M@IHBJJGG@?$AAn?$AAl?$AA?9?$AAN?$AAL?$AA?$AA@ 0000000180062238     libucrt:lcidtoname_downlevel.obj
 0002:00004248       ??_C@_1M@EANAGDL@?$AAn?$AAb?$AA?9?$AAN?$AAO?$AA?$AA@ 0000000180062248     libucrt:lcidtoname_downlevel.obj
 0002:00004258       ??_C@_1M@NEIEMEGP@?$AAp?$AAl?$AA?9?$AAP?$AAL?$AA?$AA@ 0000000180062258     libucrt:lcidtoname_downlevel.obj
 0002:00004268       ??_C@_1M@BOCFIGEP@?$AAp?$AAt?$AA?9?$AAB?$AAR?$AA?$AA@ 0000000180062268     libucrt:lcidtoname_downlevel.obj
 0002:00004278       ??_C@_1M@IMPFOPBG@?$AAr?$AAo?$AA?9?$AAR?$AAO?$AA?$AA@ 0000000180062278     libucrt:lcidtoname_downlevel.obj
 0002:00004288       ??_C@_1M@IDNNEJMM@?$AAr?$AAu?$AA?9?$AAR?$AAU?$AA?$AA@ 0000000180062288     libucrt:lcidtoname_downlevel.obj
 0002:00004298       ??_C@_1M@LILEEOGM@?$AAh?$AAr?$AA?9?$AAH?$AAR?$AA?$AA@ 0000000180062298     libucrt:lcidtoname_downlevel.obj
 0002:000042a8       ??_C@_1M@FKIFEHPB@?$AAs?$AAk?$AA?9?$AAS?$AAK?$AA?$AA@ 00000001800622a8     libucrt:lcidtoname_downlevel.obj
 0002:000042b8       ??_C@_1M@LJMAMNPJ@?$AAs?$AAq?$AA?9?$AAA?$AAL?$AA?$AA@ 00000001800622b8     libucrt:lcidtoname_downlevel.obj
 0002:000042c8       ??_C@_1M@GIAKDKJK@?$AAs?$AAv?$AA?9?$AAS?$AAE?$AA?$AA@ 00000001800622c8     libucrt:lcidtoname_downlevel.obj
 0002:000042d8       ??_C@_1M@MKJKIKCL@?$AAt?$AAh?$AA?9?$AAT?$AAH?$AA?$AA@ 00000001800622d8     libucrt:lcidtoname_downlevel.obj
 0002:000042e8       ??_C@_1M@MFLCCMPB@?$AAt?$AAr?$AA?9?$AAT?$AAR?$AA?$AA@ 00000001800622e8     libucrt:lcidtoname_downlevel.obj
 0002:000042f8       ??_C@_1M@OIJHDKJN@?$AAu?$AAr?$AA?9?$AAP?$AAK?$AA?$AA@ 00000001800622f8     libucrt:lcidtoname_downlevel.obj
 0002:00004308       ??_C@_1M@LHIPCIEK@?$AAi?$AAd?$AA?9?$AAI?$AAD?$AA?$AA@ 0000000180062308     libucrt:lcidtoname_downlevel.obj
 0002:00004318       ??_C@_1M@MFMOBGI@?$AAu?$AAk?$AA?9?$AAU?$AAA?$AA?$AA@ 0000000180062318     libucrt:lcidtoname_downlevel.obj
 0002:00004328       ??_C@_1M@OBGLJIPL@?$AAb?$AAe?$AA?9?$AAB?$AAY?$AA?$AA@ 0000000180062328     libucrt:lcidtoname_downlevel.obj
 0002:00004338       ??_C@_1M@BCFAJEAD@?$AAs?$AAl?$AA?9?$AAS?$AAI?$AA?$AA@ 0000000180062338     libucrt:lcidtoname_downlevel.obj
 0002:00004348       ??_C@_1M@FKFFEDDN@?$AAe?$AAt?$AA?9?$AAE?$AAE?$AA?$AA@ 0000000180062348     libucrt:lcidtoname_downlevel.obj
 0002:00004358       ??_C@_1M@KGKKAACI@?$AAl?$AAv?$AA?9?$AAL?$AAV?$AA?$AA@ 0000000180062358     libucrt:lcidtoname_downlevel.obj
 0002:00004368       ??_C@_1M@IFGBIJO@?$AAl?$AAt?$AA?9?$AAL?$AAT?$AA?$AA@ 0000000180062368     libucrt:lcidtoname_downlevel.obj
 0002:00004378       ??_C@_1M@FGEAHEDM@?$AAf?$AAa?$AA?9?$AAI?$AAR?$AA?$AA@ 0000000180062378     libucrt:lcidtoname_downlevel.obj
 0002:00004388       ??_C@_1M@KBMAIBFN@?$AAv?$AAi?$AA?9?$AAV?$AAN?$AA?$AA@ 0000000180062388     libucrt:lcidtoname_downlevel.obj
 0002:00004398       ??_C@_1M@GPCBKDJK@?$AAh?$AAy?$AA?9?$AAA?$AAM?$AA?$AA@ 0000000180062398     libucrt:lcidtoname_downlevel.obj
 0002:000043a8       ??_C@_1BG@BECMDDJB@?$AAa?$AAz?$AA?9?$AAA?$AAZ?$AA?9?$AAL?$AAa?$AAt?$AAn?$AA?$AA@ 00000001800623a8     libucrt:lcidtoname_downlevel.obj
 0002:000043c0       ??_C@_1M@MAOFCAEA@?$AAe?$AAu?$AA?9?$AAE?$AAS?$AA?$AA@ 00000001800623c0     libucrt:lcidtoname_downlevel.obj
 0002:000043d0       ??_C@_1M@IGHABKPI@?$AAm?$AAk?$AA?9?$AAM?$AAK?$AA?$AA@ 00000001800623d0     libucrt:lcidtoname_downlevel.obj
 0002:000043e0       ??_C@_1M@IAIGNEJG@?$AAt?$AAn?$AA?9?$AAZ?$AAA?$AA?$AA@ 00000001800623e0     libucrt:lcidtoname_downlevel.obj
 0002:000043f0       ??_C@_1M@IIJCOJFA@?$AAx?$AAh?$AA?9?$AAZ?$AAA?$AA?$AA@ 00000001800623f0     libucrt:lcidtoname_downlevel.obj
 0002:00004400       ??_C@_1M@LGPJHNJH@?$AAz?$AAu?$AA?9?$AAZ?$AAA?$AA?$AA@ 0000000180062400     libucrt:lcidtoname_downlevel.obj
 0002:00004410       ??_C@_1M@HOKAOIO@?$AAa?$AAf?$AA?9?$AAZ?$AAA?$AA?$AA@ 0000000180062410     libucrt:lcidtoname_downlevel.obj
 0002:00004420       ??_C@_1M@DPCLHLIE@?$AAk?$AAa?$AA?9?$AAG?$AAE?$AA?$AA@ 0000000180062420     libucrt:lcidtoname_downlevel.obj
 0002:00004430       ??_C@_1M@BLKMHJBI@?$AAf?$AAo?$AA?9?$AAF?$AAO?$AA?$AA@ 0000000180062430     libucrt:lcidtoname_downlevel.obj
 0002:00004440       ??_C@_1M@LGGJAPPB@?$AAh?$AAi?$AA?9?$AAI?$AAN?$AA?$AA@ 0000000180062440     libucrt:lcidtoname_downlevel.obj
 0002:00004450       ??_C@_1M@FIKPIHFE@?$AAm?$AAt?$AA?9?$AAM?$AAT?$AA?$AA@ 0000000180062450     libucrt:lcidtoname_downlevel.obj
 0002:00004460       ??_C@_1M@HEGGPBFA@?$AAs?$AAe?$AA?9?$AAN?$AAO?$AA?$AA@ 0000000180062460     libucrt:lcidtoname_downlevel.obj
 0002:00004470       ??_C@_1M@EIBJEEPA@?$AAm?$AAs?$AA?9?$AAM?$AAY?$AA?$AA@ 0000000180062470     libucrt:lcidtoname_downlevel.obj
 0002:00004480       ??_C@_1M@FHLBGMPP@?$AAk?$AAk?$AA?9?$AAK?$AAZ?$AA?$AA@ 0000000180062480     libucrt:lcidtoname_downlevel.obj
 0002:00004490       ??_C@_1M@NGJJLCGI@?$AAk?$AAy?$AA?9?$AAK?$AAG?$AA?$AA@ 0000000180062490     libucrt:lcidtoname_downlevel.obj
 0002:000044a0       ??_C@_1M@GIENNBFC@?$AAs?$AAw?$AA?9?$AAK?$AAE?$AA?$AA@ 00000001800624a0     libucrt:lcidtoname_downlevel.obj
 0002:000044b0       ??_C@_1BG@NDGMJIMJ@?$AAu?$AAz?$AA?9?$AAU?$AAZ?$AA?9?$AAL?$AAa?$AAt?$AAn?$AA?$AA@ 00000001800624b0     libucrt:lcidtoname_downlevel.obj
 0002:000044c8       ??_C@_1M@IDCCIHBC@?$AAt?$AAt?$AA?9?$AAR?$AAU?$AA?$AA@ 00000001800624c8     libucrt:lcidtoname_downlevel.obj
 0002:000044d8       ??_C@_1M@LOICPMOJ@?$AAb?$AAn?$AA?9?$AAI?$AAN?$AA?$AA@ 00000001800624d8     libucrt:lcidtoname_downlevel.obj
 0002:000044e8       ??_C@_1M@KPKKNEAH@?$AAp?$AAa?$AA?9?$AAI?$AAN?$AA?$AA@ 00000001800624e8     libucrt:lcidtoname_downlevel.obj
 0002:000044f8       ??_C@_1M@PJGPPBOG@?$AAg?$AAu?$AA?9?$AAI?$AAN?$AA?$AA@ 00000001800624f8     libucrt:lcidtoname_downlevel.obj
 0002:00004508       ??_C@_1M@KMKMOPHI@?$AAt?$AAa?$AA?9?$AAI?$AAN?$AA?$AA@ 0000000180062508     libucrt:lcidtoname_downlevel.obj
 0002:00004518       ??_C@_1M@KFEHEPAC@?$AAt?$AAe?$AA?9?$AAI?$AAN?$AA?$AA@ 0000000180062518     libucrt:lcidtoname_downlevel.obj
 0002:00004528       ??_C@_1M@CDCLMGHI@?$AAk?$AAn?$AA?9?$AAI?$AAN?$AA?$AA@ 0000000180062528     libucrt:lcidtoname_downlevel.obj
 0002:00004538       ??_C@_1M@MIODLDKF@?$AAm?$AAl?$AA?9?$AAI?$AAN?$AA?$AA@ 0000000180062538     libucrt:lcidtoname_downlevel.obj
 0002:00004548       ??_C@_1M@PBIEACPO@?$AAm?$AAr?$AA?9?$AAI?$AAN?$AA?$AA@ 0000000180062548     libucrt:lcidtoname_downlevel.obj
 0002:00004558       ??_C@_1M@NIDEAGPH@?$AAs?$AAa?$AA?9?$AAI?$AAN?$AA?$AA@ 0000000180062558     libucrt:lcidtoname_downlevel.obj
 0002:00004568       ??_C@_1M@FHIHCBIO@?$AAm?$AAn?$AA?9?$AAM?$AAN?$AA?$AA@ 0000000180062568     libucrt:lcidtoname_downlevel.obj
 0002:00004578       ??_C@_1M@JAIJPENP@?$AAc?$AAy?$AA?9?$AAG?$AAB?$AA?$AA@ 0000000180062578     libucrt:lcidtoname_downlevel.obj
 0002:00004588       ??_C@_1M@PHGFBEPN@?$AAg?$AAl?$AA?9?$AAE?$AAS?$AA?$AA@ 0000000180062588     libucrt:lcidtoname_downlevel.obj
 0002:00004598       ??_C@_1O@KPIPDNCP@?$AAk?$AAo?$AAk?$AA?9?$AAI?$AAN?$AA?$AA@ 0000000180062598     libucrt:lcidtoname_downlevel.obj
 0002:000045a8       ??_C@_1O@KNHJLDJA@?$AAs?$AAy?$AAr?$AA?9?$AAS?$AAY?$AA?$AA@ 00000001800625a8     libucrt:lcidtoname_downlevel.obj
 0002:000045b8       ??_C@_1O@MKEKBLAH@?$AAd?$AAi?$AAv?$AA?9?$AAM?$AAV?$AA?$AA@ 00000001800625b8     libucrt:lcidtoname_downlevel.obj
 0002:000045c8       ??_C@_1O@OHDCKDDF@?$AAq?$AAu?$AAz?$AA?9?$AAB?$AAO?$AA?$AA@ 00000001800625c8     libucrt:lcidtoname_downlevel.obj
 0002:000045d8       ??_C@_1M@LEPJNLFD@?$AAn?$AAs?$AA?9?$AAZ?$AAA?$AA?$AA@ 00000001800625d8     libucrt:lcidtoname_downlevel.obj
 0002:000045e8       ??_C@_1M@OMLEIIJB@?$AAm?$AAi?$AA?9?$AAN?$AAZ?$AA?$AA@ 00000001800625e8     libucrt:lcidtoname_downlevel.obj
 0002:000045f8       ??_C@_1M@PMPEAILG@?$AAa?$AAr?$AA?9?$AAI?$AAQ?$AA?$AA@ 00000001800625f8     libucrt:lcidtoname_downlevel.obj
 0002:00004608       ??_C@_1M@CNKPNOEE@?$AAd?$AAe?$AA?9?$AAC?$AAH?$AA?$AA@ 0000000180062608     libucrt:lcidtoname_downlevel.obj
 0002:00004618       ??_C@_1M@LKMGMLKO@?$AAe?$AAn?$AA?9?$AAG?$AAB?$AA?$AA@ 0000000180062618     libucrt:lcidtoname_downlevel.obj
 0002:00004628       ??_C@_1M@PGKJFFGL@?$AAe?$AAs?$AA?9?$AAM?$AAX?$AA?$AA@ 0000000180062628     libucrt:lcidtoname_downlevel.obj
 0002:00004638       ??_C@_1M@DNNANBDC@?$AAf?$AAr?$AA?9?$AAB?$AAE?$AA?$AA@ 0000000180062638     libucrt:lcidtoname_downlevel.obj
 0002:00004648       ??_C@_1M@HLGMDFHM@?$AAi?$AAt?$AA?9?$AAC?$AAH?$AA?$AA@ 0000000180062648     libucrt:lcidtoname_downlevel.obj
 0002:00004658       ??_C@_1M@CLLBGJH@?$AAn?$AAl?$AA?9?$AAB?$AAE?$AA?$AA@ 0000000180062658     libucrt:lcidtoname_downlevel.obj
 0002:00004668       ??_C@_1M@BODBOGLF@?$AAn?$AAn?$AA?9?$AAN?$AAO?$AA?$AA@ 0000000180062668     libucrt:lcidtoname_downlevel.obj
 0002:00004678       ??_C@_1M@HFFAHKAD@?$AAp?$AAt?$AA?9?$AAP?$AAT?$AA?$AA@ 0000000180062678     libucrt:lcidtoname_downlevel.obj
 0002:00004688       ??_C@_1BG@LNOAKHIE@?$AAs?$AAr?$AA?9?$AAS?$AAP?$AA?9?$AAL?$AAa?$AAt?$AAn?$AA?$AA@ 0000000180062688     libucrt:lcidtoname_downlevel.obj
 0002:000046a0       ??_C@_1M@HBMHBGAK@?$AAs?$AAv?$AA?9?$AAF?$AAI?$AA?$AA@ 00000001800626a0     libucrt:lcidtoname_downlevel.obj
 0002:000046b0       ??_C@_1BG@DGCJGJBE@?$AAa?$AAz?$AA?9?$AAA?$AAZ?$AA?9?$AAC?$AAy?$AAr?$AAl?$AA?$AA@ 00000001800626b0     libucrt:lcidtoname_downlevel.obj
 0002:000046c8       ??_C@_1M@KEJDAAHB@?$AAs?$AAe?$AA?9?$AAS?$AAE?$AA?$AA@ 00000001800626c8     libucrt:lcidtoname_downlevel.obj
 0002:000046d8       ??_C@_1M@HEIBJJAD@?$AAm?$AAs?$AA?9?$AAB?$AAN?$AA?$AA@ 00000001800626d8     libucrt:lcidtoname_downlevel.obj
 0002:000046e8       ??_C@_1BG@PBGJMCEM@?$AAu?$AAz?$AA?9?$AAU?$AAZ?$AA?9?$AAC?$AAy?$AAr?$AAl?$AA?$AA@ 00000001800626e8     libucrt:lcidtoname_downlevel.obj
 0002:00004700       ??_C@_1O@LAOBCMDF@?$AAq?$AAu?$AAz?$AA?9?$AAE?$AAC?$AA?$AA@ 0000000180062700     libucrt:lcidtoname_downlevel.obj
 0002:00004710       ??_C@_1M@POEEMAIO@?$AAa?$AAr?$AA?9?$AAE?$AAG?$AA?$AA@ 0000000180062710     libucrt:lcidtoname_downlevel.obj
 0002:00004720       ??_C@_1M@EFAKDEDL@?$AAz?$AAh?$AA?9?$AAH?$AAK?$AA?$AA@ 0000000180062720     libucrt:lcidtoname_downlevel.obj
 0002:00004730       ??_C@_1M@HKKIJHGI@?$AAd?$AAe?$AA?9?$AAA?$AAT?$AA?$AA@ 0000000180062730     libucrt:lcidtoname_downlevel.obj
 0002:00004740       ??_C@_1M@KBFBEHJF@?$AAe?$AAn?$AA?9?$AAA?$AAU?$AA?$AA@ 0000000180062740     libucrt:lcidtoname_downlevel.obj
 0002:00004750       ??_C@_1M@MNPLFAAH@?$AAe?$AAs?$AA?9?$AAE?$AAS?$AA?$AA@ 0000000180062750     libucrt:lcidtoname_downlevel.obj
 0002:00004760       ??_C@_1M@HJOOJFMA@?$AAf?$AAr?$AA?9?$AAC?$AAA?$AA?$AA@ 0000000180062760     libucrt:lcidtoname_downlevel.obj
 0002:00004770       ??_C@_1BG@JPOFPNAB@?$AAs?$AAr?$AA?9?$AAS?$AAP?$AA?9?$AAC?$AAy?$AAr?$AAl?$AA?$AA@ 0000000180062770     libucrt:lcidtoname_downlevel.obj
 0002:00004788       ??_C@_1M@LNFOCMOB@?$AAs?$AAe?$AA?9?$AAF?$AAI?$AA?$AA@ 0000000180062788     libucrt:lcidtoname_downlevel.obj
 0002:00004798       ??_C@_1O@MGJBOAMB@?$AAq?$AAu?$AAz?$AA?9?$AAP?$AAE?$AA?$AA@ 0000000180062798     libucrt:lcidtoname_downlevel.obj
 0002:000047a8       ??_C@_1M@GJINLBOK@?$AAa?$AAr?$AA?9?$AAL?$AAY?$AA?$AA@ 00000001800627a8     libucrt:lcidtoname_downlevel.obj
 0002:000047b8       ??_C@_1M@GGMNHJNL@?$AAz?$AAh?$AA?9?$AAS?$AAG?$AA?$AA@ 00000001800627b8     libucrt:lcidtoname_downlevel.obj
 0002:000047c8       ??_C@_1M@HOIKODND@?$AAd?$AAe?$AA?9?$AAL?$AAU?$AA?$AA@ 00000001800627c8     libucrt:lcidtoname_downlevel.obj
 0002:000047d8       ??_C@_1M@DDOCCGFG@?$AAe?$AAn?$AA?9?$AAC?$AAA?$AA?$AA@ 00000001800627d8     libucrt:lcidtoname_downlevel.obj
 0002:000047e8       ??_C@_1M@BNOEMJLF@?$AAe?$AAs?$AA?9?$AAG?$AAT?$AA?$AA@ 00000001800627e8     libucrt:lcidtoname_downlevel.obj
 0002:000047f8       ??_C@_1M@EOGNKEK@?$AAf?$AAr?$AA?9?$AAC?$AAH?$AA?$AA@ 00000001800627f8     libucrt:lcidtoname_downlevel.obj
 0002:00004808       ??_C@_1M@FLIDJFHL@?$AAh?$AAr?$AA?9?$AAB?$AAA?$AA?$AA@ 0000000180062808     libucrt:lcidtoname_downlevel.obj
 0002:00004818       ??_C@_1O@FMCELNAJ@?$AAs?$AAm?$AAj?$AA?9?$AAN?$AAO?$AA?$AA@ 0000000180062818     libucrt:lcidtoname_downlevel.obj
 0002:00004828       ??_C@_1M@JHGLJMGJ@?$AAa?$AAr?$AA?9?$AAD?$AAZ?$AA?$AA@ 0000000180062828     libucrt:lcidtoname_downlevel.obj
 0002:00004838       ??_C@_1M@JKKFDCNP@?$AAz?$AAh?$AA?9?$AAM?$AAO?$AA?$AA@ 0000000180062838     libucrt:lcidtoname_downlevel.obj
 0002:00004848       ??_C@_1M@GEEFALPE@?$AAd?$AAe?$AA?9?$AAL?$AAI?$AA?$AA@ 0000000180062848     libucrt:lcidtoname_downlevel.obj
 0002:00004858       ??_C@_1M@IGEOFBG@?$AAe?$AAn?$AA?9?$AAN?$AAZ?$AA?$AA@ 0000000180062858     libucrt:lcidtoname_downlevel.obj
 0002:00004868       ??_C@_1M@KDBONEHP@?$AAe?$AAs?$AA?9?$AAC?$AAR?$AA?$AA@ 0000000180062868     libucrt:lcidtoname_downlevel.obj
 0002:00004878       ??_C@_1M@FHMDOHNN@?$AAf?$AAr?$AA?9?$AAL?$AAU?$AA?$AA@ 0000000180062878     libucrt:lcidtoname_downlevel.obj
 0002:00004888       ??_C@_1BG@NFKKMAFG@?$AAb?$AAs?$AA?9?$AAB?$AAA?$AA?9?$AAL?$AAa?$AAt?$AAn?$AA?$AA@ 0000000180062888     libucrt:lcidtoname_downlevel.obj
 0002:000048a0       ??_C@_1O@IMNBEMCI@?$AAs?$AAm?$AAj?$AA?9?$AAS?$AAE?$AA?$AA@ 00000001800628a0     libucrt:lcidtoname_downlevel.obj
 0002:000048b0       ??_C@_1M@DHHMBNDP@?$AAa?$AAr?$AA?9?$AAM?$AAA?$AA?$AA@ 00000001800628b0     libucrt:lcidtoname_downlevel.obj
 0002:000048c0       ??_C@_1M@BNBLJCGH@?$AAe?$AAn?$AA?9?$AAI?$AAE?$AA?$AA@ 00000001800628c0     libucrt:lcidtoname_downlevel.obj
 0002:000048d0       ??_C@_1M@GEPAFMDL@?$AAe?$AAs?$AA?9?$AAP?$AAA?$AA?$AA@ 00000001800628d0     libucrt:lcidtoname_downlevel.obj
 0002:000048e0       ??_C@_1M@OJONDMDL@?$AAf?$AAr?$AA?9?$AAM?$AAC?$AA?$AA@ 00000001800628e0     libucrt:lcidtoname_downlevel.obj
 0002:000048f0       ??_C@_1BG@OBCNFJB@?$AAs?$AAr?$AA?9?$AAB?$AAA?$AA?9?$AAL?$AAa?$AAt?$AAn?$AA?$AA@ 00000001800628f0     libucrt:lcidtoname_downlevel.obj
 0002:00004908       ??_C@_1O@KEMEEGPO@?$AAs?$AAm?$AAa?$AA?9?$AAN?$AAO?$AA?$AA@ 0000000180062908     libucrt:lcidtoname_downlevel.obj
 0002:00004918       ??_C@_1M@ELMGFODK@?$AAa?$AAr?$AA?9?$AAT?$AAN?$AA?$AA@ 0000000180062918     libucrt:lcidtoname_downlevel.obj
 0002:00004928       ??_C@_1M@BHDLHFAF@?$AAe?$AAn?$AA?9?$AAZ?$AAA?$AA?$AA@ 0000000180062928     libucrt:lcidtoname_downlevel.obj
 0002:00004938       ??_C@_1M@BMGIGLIF@?$AAe?$AAs?$AA?9?$AAD?$AAO?$AA?$AA@ 0000000180062938     libucrt:lcidtoname_downlevel.obj
 0002:00004948       ??_C@_1BG@CMBHIPBE@?$AAs?$AAr?$AA?9?$AAB?$AAA?$AA?9?$AAC?$AAy?$AAr?$AAl?$AA?$AA@ 0000000180062948     libucrt:lcidtoname_downlevel.obj
 0002:00004960       ??_C@_1O@HEDBLHNP@?$AAs?$AAm?$AAa?$AA?9?$AAS?$AAE?$AA?$AA@ 0000000180062960     libucrt:lcidtoname_downlevel.obj
 0002:00004970       ??_C@_1M@DAGCADIM@?$AAa?$AAr?$AA?9?$AAO?$AAM?$AA?$AA@ 0000000180062970     libucrt:lcidtoname_downlevel.obj
 0002:00004980       ??_C@_1M@FODLMICG@?$AAe?$AAn?$AA?9?$AAJ?$AAM?$AA?$AA@ 0000000180062980     libucrt:lcidtoname_downlevel.obj
 0002:00004990       ??_C@_1M@DNMLCIHB@?$AAe?$AAs?$AA?9?$AAV?$AAE?$AA?$AA@ 0000000180062990     libucrt:lcidtoname_downlevel.obj
 0002:000049a0       ??_C@_1O@EOKHMKJK@?$AAs?$AAm?$AAs?$AA?9?$AAF?$AAI?$AA?$AA@ 00000001800629a0     libucrt:lcidtoname_downlevel.obj
 0002:000049b0       ??_C@_1M@CAFJMKOF@?$AAa?$AAr?$AA?9?$AAY?$AAE?$AA?$AA@ 00000001800629b0     libucrt:lcidtoname_downlevel.obj
 0002:000049c0       ??_C@_1M@CBFHIJLI@?$AAe?$AAn?$AA?9?$AAC?$AAB?$AA?$AA@ 00000001800629c0     libucrt:lcidtoname_downlevel.obj
 0002:000049d0       ??_C@_1M@BGNFLDN@?$AAe?$AAs?$AA?9?$AAC?$AAO?$AA?$AA@ 00000001800629d0     libucrt:lcidtoname_downlevel.obj
 0002:000049e0       ??_C@_1O@JMPHMAMC@?$AAs?$AAm?$AAn?$AA?9?$AAF?$AAI?$AA?$AA@ 00000001800629e0     libucrt:lcidtoname_downlevel.obj
 0002:000049f0       ??_C@_1M@JLANABKE@?$AAa?$AAr?$AA?9?$AAS?$AAY?$AA?$AA@ 00000001800629f0     libucrt:lcidtoname_downlevel.obj
 0002:00004a00       ??_C@_1M@HPKGCFGN@?$AAe?$AAn?$AA?9?$AAB?$AAZ?$AA?$AA@ 0000000180062a00     libucrt:lcidtoname_downlevel.obj
 0002:00004a10       ??_C@_1M@OLJCMLGM@?$AAe?$AAs?$AA?9?$AAP?$AAE?$AA?$AA@ 0000000180062a10     libucrt:lcidtoname_downlevel.obj
 0002:00004a20       ??_C@_1M@MKKGFKLE@?$AAa?$AAr?$AA?9?$AAJ?$AAO?$AA?$AA@ 0000000180062a20     libucrt:lcidtoname_downlevel.obj
 0002:00004a30       ??_C@_1M@EKPGLDNI@?$AAe?$AAn?$AA?9?$AAT?$AAT?$AA?$AA@ 0000000180062a30     libucrt:lcidtoname_downlevel.obj
 0002:00004a40       ??_C@_1M@OONGHFHE@?$AAe?$AAs?$AA?9?$AAA?$AAR?$AA?$AA@ 0000000180062a40     libucrt:lcidtoname_downlevel.obj
 0002:00004a50       ??_C@_1M@OOJFGBHE@?$AAa?$AAr?$AA?9?$AAL?$AAB?$AA?$AA@ 0000000180062a50     libucrt:lcidtoname_downlevel.obj
 0002:00004a60       ??_C@_1M@GCEJHNEG@?$AAe?$AAn?$AA?9?$AAZ?$AAW?$AA?$AA@ 0000000180062a60     libucrt:lcidtoname_downlevel.obj
 0002:00004a70       ??_C@_1M@JNOCAHJI@?$AAe?$AAs?$AA?9?$AAE?$AAC?$AA?$AA@ 0000000180062a70     libucrt:lcidtoname_downlevel.obj
 0002:00004a80       ??_C@_1M@JEFHPGGB@?$AAa?$AAr?$AA?9?$AAK?$AAW?$AA?$AA@ 0000000180062a80     libucrt:lcidtoname_downlevel.obj
 0002:00004a90       ??_C@_1M@MLKIBJOJ@?$AAe?$AAn?$AA?9?$AAP?$AAH?$AA?$AA@ 0000000180062a90     libucrt:lcidtoname_downlevel.obj
 0002:00004aa0       ??_C@_1M@BDNIPEND@?$AAe?$AAs?$AA?9?$AAC?$AAL?$AA?$AA@ 0000000180062aa0     libucrt:lcidtoname_downlevel.obj
 0002:00004ab0       ??_C@_1M@MPNMEKBD@?$AAa?$AAr?$AA?9?$AAA?$AAE?$AA?$AA@ 0000000180062ab0     libucrt:lcidtoname_downlevel.obj
 0002:00004ac0       ??_C@_1M@KBJALCPI@?$AAe?$AAs?$AA?9?$AAU?$AAY?$AA?$AA@ 0000000180062ac0     libucrt:lcidtoname_downlevel.obj
 0002:00004ad0       ??_C@_1M@LLCCOAGA@?$AAa?$AAr?$AA?9?$AAB?$AAH?$AA?$AA@ 0000000180062ad0     libucrt:lcidtoname_downlevel.obj
 0002:00004ae0       ??_C@_1M@PBFNCDEL@?$AAe?$AAs?$AA?9?$AAP?$AAY?$AA?$AA@ 0000000180062ae0     libucrt:lcidtoname_downlevel.obj
 0002:00004af0       ??_C@_1M@EDGINPNP@?$AAa?$AAr?$AA?9?$AAQ?$AAA?$AA?$AA@ 0000000180062af0     libucrt:lcidtoname_downlevel.obj
 0002:00004b00       ??_C@_1M@MKDBIIJI@?$AAe?$AAs?$AA?9?$AAB?$AAO?$AA?$AA@ 0000000180062b00     libucrt:lcidtoname_downlevel.obj
 0002:00004b10       ??_C@_1M@CPKKEBLD@?$AAe?$AAs?$AA?9?$AAS?$AAV?$AA?$AA@ 0000000180062b10     libucrt:lcidtoname_downlevel.obj
 0002:00004b20       ??_C@_1M@NDBGMMJL@?$AAe?$AAs?$AA?9?$AAH?$AAN?$AA?$AA@ 0000000180062b20     libucrt:lcidtoname_downlevel.obj
 0002:00004b30       ??_C@_1M@JIJIBHDP@?$AAe?$AAs?$AA?9?$AAN?$AAI?$AA?$AA@ 0000000180062b30     libucrt:lcidtoname_downlevel.obj
 0002:00004b40       ??_C@_1M@CGFMKEEK@?$AAe?$AAs?$AA?9?$AAP?$AAR?$AA?$AA@ 0000000180062b40     libucrt:lcidtoname_downlevel.obj
 0002:00004b50       ??_C@_1O@ICJHKIIK@?$AAz?$AAh?$AA?9?$AAC?$AAH?$AAT?$AA?$AA@ 0000000180062b50     libucrt:lcidtoname_downlevel.obj
 0002:00004b60       ??_C@_15CLNEJCE@?$AAs?$AAr?$AA?$AA@ 0000000180062b60     libucrt:lcidtoname_downlevel.obj
 0002:000059b0       ??_C@_1M@KAHEKEIG@?$AAa?$AAf?$AA?9?$AAz?$AAa?$AA?$AA@ 00000001800639b0     libucrt:lcidtoname_downlevel.obj
 0002:000059c0       ??_C@_1M@GIECOABL@?$AAa?$AAr?$AA?9?$AAa?$AAe?$AA?$AA@ 00000001800639c0     libucrt:lcidtoname_downlevel.obj
 0002:000059d0       ??_C@_1M@BMLMEKGI@?$AAa?$AAr?$AA?9?$AAb?$AAh?$AA?$AA@ 00000001800639d0     libucrt:lcidtoname_downlevel.obj
 0002:000059e0       ??_C@_1M@DAPFDGGB@?$AAa?$AAr?$AA?9?$AAd?$AAz?$AA?$AA@ 00000001800639e0     libucrt:lcidtoname_downlevel.obj
 0002:000059f0       ??_C@_1M@FJNKGKIG@?$AAa?$AAr?$AA?9?$AAe?$AAg?$AA?$AA@ 00000001800639f0     libucrt:lcidtoname_downlevel.obj
 0002:00005a00       ??_C@_1M@FLGKKCLO@?$AAa?$AAr?$AA?9?$AAi?$AAq?$AA?$AA@ 0000000180063a00     libucrt:lcidtoname_downlevel.obj
 0002:00005a10       ??_C@_1M@GNDIPALM@?$AAa?$AAr?$AA?9?$AAj?$AAo?$AA?$AA@ 0000000180063a10     libucrt:lcidtoname_downlevel.obj
 0002:00005a20       ??_C@_1M@DDMJFMGJ@?$AAa?$AAr?$AA?9?$AAk?$AAw?$AA?$AA@ 0000000180063a20     libucrt:lcidtoname_downlevel.obj
 0002:00005a30       ??_C@_1M@EJALMLHM@?$AAa?$AAr?$AA?9?$AAl?$AAb?$AA?$AA@ 0000000180063a30     libucrt:lcidtoname_downlevel.obj
 0002:00005a40       ??_C@_1M@MOBDBLOC@?$AAa?$AAr?$AA?9?$AAl?$AAy?$AA?$AA@ 0000000180063a40     libucrt:lcidtoname_downlevel.obj
 0002:00005a50       ??_C@_1M@JAOCLHDH@?$AAa?$AAr?$AA?9?$AAm?$AAa?$AA?$AA@ 0000000180063a50     libucrt:lcidtoname_downlevel.obj
 0002:00005a60       ??_C@_1M@JHPMKJIE@?$AAa?$AAr?$AA?9?$AAo?$AAm?$AA?$AA@ 0000000180063a60     libucrt:lcidtoname_downlevel.obj
 0002:00005a70       ??_C@_1M@OEPGHFNH@?$AAa?$AAr?$AA?9?$AAq?$AAa?$AA?$AA@ 0000000180063a70     libucrt:lcidtoname_downlevel.obj
 0002:00005a80       ??_C@_1M@KJDONENM@?$AAa?$AAr?$AA?9?$AAs?$AAa?$AA?$AA@ 0000000180063a80     libucrt:lcidtoname_downlevel.obj
 0002:00005a90       ??_C@_1M@DMJDKLKM@?$AAa?$AAr?$AA?9?$AAs?$AAy?$AA?$AA@ 0000000180063a90     libucrt:lcidtoname_downlevel.obj
 0002:00005aa0       ??_C@_1M@OMFIPEDC@?$AAa?$AAr?$AA?9?$AAt?$AAn?$AA?$AA@ 0000000180063aa0     libucrt:lcidtoname_downlevel.obj
 0002:00005ab0       ??_C@_1M@IHMHGAON@?$AAa?$AAr?$AA?9?$AAy?$AAe?$AA?$AA@ 0000000180063ab0     libucrt:lcidtoname_downlevel.obj
 0002:00005ac0       ??_C@_1BG@KDCPGJGB@?$AAa?$AAz?$AA?9?$AAa?$AAz?$AA?9?$AAc?$AAy?$AAr?$AAl?$AA?$AA@ 0000000180063ac0     libucrt:lcidtoname_downlevel.obj
 0002:00005ad8       ??_C@_1BG@IBCKDDOE@?$AAa?$AAz?$AA?9?$AAa?$AAz?$AA?9?$AAl?$AAa?$AAt?$AAn?$AA?$AA@ 0000000180063ad8     libucrt:lcidtoname_downlevel.obj
 0002:00005af0       ??_C@_1M@EGPFDCPD@?$AAb?$AAe?$AA?9?$AAb?$AAy?$AA?$AA@ 0000000180063af0     libucrt:lcidtoname_downlevel.obj
 0002:00005b00       ??_C@_1M@PCMGMCGC@?$AAb?$AAg?$AA?9?$AAb?$AAg?$AA?$AA@ 0000000180063b00     libucrt:lcidtoname_downlevel.obj
 0002:00005b10       ??_C@_1M@BJBMFGOB@?$AAb?$AAn?$AA?9?$AAi?$AAn?$AA?$AA@ 0000000180063b10     libucrt:lcidtoname_downlevel.obj
 0002:00005b20       ??_C@_1BG@EAKMMACD@?$AAb?$AAs?$AA?9?$AAb?$AAa?$AA?9?$AAl?$AAa?$AAt?$AAn?$AA?$AA@ 0000000180063b20     libucrt:lcidtoname_downlevel.obj
 0002:00005b38       ??_C@_1M@KGADAODK@?$AAc?$AAa?$AA?9?$AAe?$AAs?$AA?$AA@ 0000000180063b38     libucrt:lcidtoname_downlevel.obj
 0002:00005b48       ??_C@_1M@COAJPDHI@?$AAc?$AAs?$AA?9?$AAc?$AAz?$AA?$AA@ 0000000180063b48     libucrt:lcidtoname_downlevel.obj
 0002:00005b58       ??_C@_1M@DHBHFONH@?$AAc?$AAy?$AA?9?$AAg?$AAb?$AA?$AA@ 0000000180063b58     libucrt:lcidtoname_downlevel.obj
 0002:00005b68       ??_C@_1M@IMGKELGA@?$AAd?$AAa?$AA?9?$AAd?$AAk?$AA?$AA@ 0000000180063b68     libucrt:lcidtoname_downlevel.obj
 0002:00005b78       ??_C@_1M@NNDGDNGA@?$AAd?$AAe?$AA?9?$AAa?$AAt?$AA?$AA@ 0000000180063b78     libucrt:lcidtoname_downlevel.obj
 0002:00005b88       ??_C@_1M@IKDBHEEM@?$AAd?$AAe?$AA?9?$AAc?$AAh?$AA?$AA@ 0000000180063b88     libucrt:lcidtoname_downlevel.obj
 0002:00005b98       ??_C@_1M@GFFOJMCJ@?$AAd?$AAe?$AA?9?$AAd?$AAe?$AA?$AA@ 0000000180063b98     libucrt:lcidtoname_downlevel.obj
 0002:00005ba8       ??_C@_1M@MDNLKBPM@?$AAd?$AAe?$AA?9?$AAl?$AAi?$AA?$AA@ 0000000180063ba8     libucrt:lcidtoname_downlevel.obj
 0002:00005bb8       ??_C@_1M@NJBEEJNL@?$AAd?$AAe?$AA?9?$AAl?$AAu?$AA?$AA@ 0000000180063bb8     libucrt:lcidtoname_downlevel.obj
 0002:00005bc8       ??_C@_1O@GNNELBAP@?$AAd?$AAi?$AAv?$AA?9?$AAm?$AAv?$AA?$AA@ 0000000180063bc8     libucrt:lcidtoname_downlevel.obj
 0002:00005bd8       ??_C@_1M@EJLEOGAE@?$AAe?$AAl?$AA?9?$AAg?$AAr?$AA?$AA@ 0000000180063bd8     libucrt:lcidtoname_downlevel.obj
 0002:00005be8       ??_C@_1M@GMPONJN@?$AAe?$AAn?$AA?9?$AAa?$AAu?$AA?$AA@ 0000000180063be8     libucrt:lcidtoname_downlevel.obj
 0002:00005bf8       ??_C@_1M@NIDIIPGF@?$AAe?$AAn?$AA?9?$AAb?$AAz?$AA?$AA@ 0000000180063bf8     libucrt:lcidtoname_downlevel.obj
 0002:00005c08       ??_C@_1M@JEHMIMFO@?$AAe?$AAn?$AA?9?$AAc?$AAa?$AA?$AA@ 0000000180063c08     libucrt:lcidtoname_downlevel.obj
 0002:00005c18       ??_C@_1M@IGMJCDLA@?$AAe?$AAn?$AA?9?$AAc?$AAb?$AA?$AA@ 0000000180063c18     libucrt:lcidtoname_downlevel.obj
 0002:00005c28       ??_C@_1M@BNFIGBKG@?$AAe?$AAn?$AA?9?$AAg?$AAb?$AA?$AA@ 0000000180063c28     libucrt:lcidtoname_downlevel.obj
 0002:00005c38       ??_C@_1M@LKIFDIGP@?$AAe?$AAn?$AA?9?$AAi?$AAe?$AA?$AA@ 0000000180063c38     libucrt:lcidtoname_downlevel.obj
 0002:00005c48       ??_C@_1M@PJKFGCCO@?$AAe?$AAn?$AA?9?$AAj?$AAm?$AA?$AA@ 0000000180063c48     libucrt:lcidtoname_downlevel.obj
 0002:00005c58       ??_C@_1M@KPPKEPBO@?$AAe?$AAn?$AA?9?$AAn?$AAz?$AA?$AA@ 0000000180063c58     libucrt:lcidtoname_downlevel.obj
 0002:00005c68       ??_C@_1M@GMDGLDOB@?$AAe?$AAn?$AA?9?$AAp?$AAh?$AA?$AA@ 0000000180063c68     libucrt:lcidtoname_downlevel.obj
 0002:00005c78       ??_C@_1M@ONGIBJNA@?$AAe?$AAn?$AA?9?$AAt?$AAt?$AA?$AA@ 0000000180063c78     libucrt:lcidtoname_downlevel.obj
 0002:00005c88       ??_C@_1M@LLODPCMM@?$AAe?$AAn?$AA?9?$AAu?$AAs?$AA?$AA@ 0000000180063c88     libucrt:lcidtoname_downlevel.obj
 0002:00005c98       ??_C@_1M@LAKFNPAN@?$AAe?$AAn?$AA?9?$AAz?$AAa?$AA?$AA@ 0000000180063c98     libucrt:lcidtoname_downlevel.obj
 0002:00005ca8       ??_C@_1M@MFNHNHEO@?$AAe?$AAn?$AA?9?$AAz?$AAw?$AA?$AA@ 0000000180063ca8     libucrt:lcidtoname_downlevel.obj
 0002:00005cb8       ??_C@_1M@EJEINPHM@?$AAe?$AAs?$AA?9?$AAa?$AAr?$AA?$AA@ 0000000180063cb8     libucrt:lcidtoname_downlevel.obj
 0002:00005cc8       ??_C@_1M@GNKPCCJA@?$AAe?$AAs?$AA?9?$AAb?$AAo?$AA?$AA@ 0000000180063cc8     libucrt:lcidtoname_downlevel.obj
 0002:00005cd8       ??_C@_1M@LEEGFONL@?$AAe?$AAs?$AA?9?$AAc?$AAl?$AA?$AA@ 0000000180063cd8     libucrt:lcidtoname_downlevel.obj
 0002:00005ce8       ??_C@_1M@KGPDPBDF@?$AAe?$AAs?$AA?9?$AAc?$AAo?$AA?$AA@ 0000000180063ce8     libucrt:lcidtoname_downlevel.obj
 0002:00005cf8       ??_C@_1M@EIAHOHH@?$AAe?$AAs?$AA?9?$AAc?$AAr?$AA?$AA@ 0000000180063cf8     libucrt:lcidtoname_downlevel.obj
 0002:00005d08       ??_C@_1M@LLPGMBIN@?$AAe?$AAs?$AA?9?$AAd?$AAo?$AA?$AA@ 0000000180063d08     libucrt:lcidtoname_downlevel.obj
 0002:00005d18       ??_C@_1M@DKHMKNJA@?$AAe?$AAs?$AA?9?$AAe?$AAc?$AA?$AA@ 0000000180063d18     libucrt:lcidtoname_downlevel.obj
 0002:00005d28       ??_C@_1M@GKGFPKAP@?$AAe?$AAs?$AA?9?$AAe?$AAs?$AA?$AA@ 0000000180063d28     libucrt:lcidtoname_downlevel.obj
 0002:00005d38       ??_C@_1M@LKHKGDLN@?$AAe?$AAs?$AA?9?$AAg?$AAt?$AA?$AA@ 0000000180063d38     libucrt:lcidtoname_downlevel.obj
 0002:00005d48       ??_C@_1M@HEIIGGJD@?$AAe?$AAs?$AA?9?$AAh?$AAn?$AA?$AA@ 0000000180063d48     libucrt:lcidtoname_downlevel.obj
 0002:00005d58       ??_C@_1M@FBDHPPGD@?$AAe?$AAs?$AA?9?$AAm?$AAx?$AA?$AA@ 0000000180063d58     libucrt:lcidtoname_downlevel.obj
 0002:00005d68       ??_C@_1M@DPAGLNDH@?$AAe?$AAs?$AA?9?$AAn?$AAi?$AA?$AA@ 0000000180063d68     libucrt:lcidtoname_downlevel.obj
 0002:00005d78       ??_C@_1M@MDGOPGDD@?$AAe?$AAs?$AA?9?$AAp?$AAa?$AA?$AA@ 0000000180063d78     libucrt:lcidtoname_downlevel.obj
 0002:00005d88       ??_C@_1M@EMAMGBGE@?$AAe?$AAs?$AA?9?$AAp?$AAe?$AA?$AA@ 0000000180063d88     libucrt:lcidtoname_downlevel.obj
 0002:00005d98       ??_C@_1M@IBMCAOEC@?$AAe?$AAs?$AA?9?$AAp?$AAr?$AA?$AA@ 0000000180063d98     libucrt:lcidtoname_downlevel.obj
 0002:00005da8       ??_C@_1M@FGMDIJED@?$AAe?$AAs?$AA?9?$AAp?$AAy?$AA?$AA@ 0000000180063da8     libucrt:lcidtoname_downlevel.obj
 0002:00005db8       ??_C@_1M@IIDEOLLL@?$AAe?$AAs?$AA?9?$AAs?$AAv?$AA?$AA@ 0000000180063db8     libucrt:lcidtoname_downlevel.obj
 0002:00005dc8       ??_C@_1M@GAOBIPA@?$AAe?$AAs?$AA?9?$AAu?$AAy?$AA?$AA@ 0000000180063dc8     libucrt:lcidtoname_downlevel.obj
 0002:00005dd8       ??_C@_1M@JKFFICHJ@?$AAe?$AAs?$AA?9?$AAv?$AAe?$AA?$AA@ 0000000180063dd8     libucrt:lcidtoname_downlevel.obj
 0002:00005de8       ??_C@_1M@PNMLOJDF@?$AAe?$AAt?$AA?9?$AAe?$AAe?$AA?$AA@ 0000000180063de8     libucrt:lcidtoname_downlevel.obj
 0002:00005df8       ??_C@_1M@GHHLIKEI@?$AAe?$AAu?$AA?9?$AAe?$AAs?$AA?$AA@ 0000000180063df8     libucrt:lcidtoname_downlevel.obj
 0002:00005e08       ??_C@_1M@PBNONODE@?$AAf?$AAa?$AA?9?$AAi?$AAr?$AA?$AA@ 0000000180063e08     libucrt:lcidtoname_downlevel.obj
 0002:00005e18       ??_C@_1M@JEEHPMIL@?$AAf?$AAi?$AA?9?$AAf?$AAi?$AA?$AA@ 0000000180063e18     libucrt:lcidtoname_downlevel.obj
 0002:00005e28       ??_C@_1M@LMDCNDBA@?$AAf?$AAo?$AA?9?$AAf?$AAo?$AA?$AA@ 0000000180063e28     libucrt:lcidtoname_downlevel.obj
 0002:00005e38       ??_C@_1M@JKEOHLDK@?$AAf?$AAr?$AA?9?$AAb?$AAe?$AA?$AA@ 0000000180063e38     libucrt:lcidtoname_downlevel.obj
 0002:00005e48       ??_C@_1M@NOHADPMI@?$AAf?$AAr?$AA?9?$AAc?$AAa?$AA?$AA@ 0000000180063e48     libucrt:lcidtoname_downlevel.obj
 0002:00005e58       ??_C@_1M@KDHIHAEC@?$AAf?$AAr?$AA?9?$AAc?$AAh?$AA?$AA@ 0000000180063e58     libucrt:lcidtoname_downlevel.obj
 0002:00005e68       ??_C@_1M@MMBBFGAK@?$AAf?$AAr?$AA?9?$AAf?$AAr?$AA?$AA@ 0000000180063e68     libucrt:lcidtoname_downlevel.obj
 0002:00005e78       ??_C@_1M@PAFNENNF@?$AAf?$AAr?$AA?9?$AAl?$AAu?$AA?$AA@ 0000000180063e78     libucrt:lcidtoname_downlevel.obj
 0002:00005e88       ??_C@_1M@EOHDJGDD@?$AAf?$AAr?$AA?9?$AAm?$AAc?$AA?$AA@ 0000000180063e88     libucrt:lcidtoname_downlevel.obj
 0002:00005e98       ??_C@_1M@FAPLLOPF@?$AAg?$AAl?$AA?9?$AAe?$AAs?$AA?$AA@ 0000000180063e98     libucrt:lcidtoname_downlevel.obj
 0002:00005ea8       ??_C@_1M@FOPBFLOO@?$AAg?$AAu?$AA?9?$AAi?$AAn?$AA?$AA@ 0000000180063ea8     libucrt:lcidtoname_downlevel.obj
 0002:00005eb8       ??_C@_1M@KBMCINPM@?$AAh?$AAe?$AA?9?$AAi?$AAl?$AA?$AA@ 0000000180063eb8     libucrt:lcidtoname_downlevel.obj
 0002:00005ec8       ??_C@_1M@BBPHKFPJ@?$AAh?$AAi?$AA?9?$AAi?$AAn?$AA?$AA@ 0000000180063ec8     libucrt:lcidtoname_downlevel.obj
 0002:00005ed8       ??_C@_1M@PMBNDPHD@?$AAh?$AAr?$AA?9?$AAb?$AAa?$AA?$AA@ 0000000180063ed8     libucrt:lcidtoname_downlevel.obj
 0002:00005ee8       ??_C@_1M@BPCKOEGE@?$AAh?$AAr?$AA?9?$AAh?$AAr?$AA?$AA@ 0000000180063ee8     libucrt:lcidtoname_downlevel.obj
 0002:00005ef8       ??_C@_1M@GACBMHKE@?$AAh?$AAu?$AA?9?$AAh?$AAu?$AA?$AA@ 0000000180063ef8     libucrt:lcidtoname_downlevel.obj
 0002:00005f08       ??_C@_1M@MILPAJJC@?$AAh?$AAy?$AA?9?$AAa?$AAm?$AA?$AA@ 0000000180063f08     libucrt:lcidtoname_downlevel.obj
 0002:00005f18       ??_C@_1M@BABBICEC@?$AAi?$AAd?$AA?9?$AAi?$AAd?$AA?$AA@ 0000000180063f18     libucrt:lcidtoname_downlevel.obj
 0002:00005f28       ??_C@_1M@BIKNHHPF@?$AAi?$AAs?$AA?9?$AAi?$AAs?$AA?$AA@ 0000000180063f28     libucrt:lcidtoname_downlevel.obj
 0002:00005f38       ??_C@_1M@NMPCJPHE@?$AAi?$AAt?$AA?9?$AAc?$AAh?$AA?$AA@ 0000000180063f38     libucrt:lcidtoname_downlevel.obj
 0002:00005f48       ??_C@_1M@GHKGFEDF@?$AAi?$AAt?$AA?9?$AAi?$AAt?$AA?$AA@ 0000000180063f48     libucrt:lcidtoname_downlevel.obj
 0002:00005f58       ??_C@_1M@NIEJCJJA@?$AAj?$AAa?$AA?9?$AAj?$AAp?$AA?$AA@ 0000000180063f58     libucrt:lcidtoname_downlevel.obj
 0002:00005f68       ??_C@_1M@JILFNBIM@?$AAk?$AAa?$AA?9?$AAg?$AAe?$AA?$AA@ 0000000180063f68     libucrt:lcidtoname_downlevel.obj
 0002:00005f78       ??_C@_1M@PACPMGPH@?$AAk?$AAk?$AA?9?$AAk?$AAz?$AA?$AA@ 0000000180063f78     libucrt:lcidtoname_downlevel.obj
 0002:00005f88       ??_C@_1M@IELFGMHA@?$AAk?$AAn?$AA?9?$AAi?$AAn?$AA?$AA@ 0000000180063f88     libucrt:lcidtoname_downlevel.obj
 0002:00005f98       ??_C@_1O@IBBJHCH@?$AAk?$AAo?$AAk?$AA?9?$AAi?$AAn?$AA?$AA@ 0000000180063f98     libucrt:lcidtoname_downlevel.obj
 0002:00005fa8       ??_C@_1M@DMHAEOGC@?$AAk?$AAo?$AA?9?$AAk?$AAr?$AA?$AA@ 0000000180063fa8     libucrt:lcidtoname_downlevel.obj
 0002:00005fb8       ??_C@_1M@HBAHBIGA@?$AAk?$AAy?$AA?9?$AAk?$AAg?$AA?$AA@ 0000000180063fb8     libucrt:lcidtoname_downlevel.obj
 0002:00005fc8       ??_C@_1M@KPMILCJG@?$AAl?$AAt?$AA?9?$AAl?$AAt?$AA?$AA@ 0000000180063fc8     libucrt:lcidtoname_downlevel.obj
 0002:00005fd8       ??_C@_1M@BDEKKCA@?$AAl?$AAv?$AA?9?$AAl?$AAv?$AA?$AA@ 0000000180063fd8     libucrt:lcidtoname_downlevel.obj
 0002:00005fe8       ??_C@_1M@ELCKCCJJ@?$AAm?$AAi?$AA?9?$AAn?$AAz?$AA?$AA@ 0000000180063fe8     libucrt:lcidtoname_downlevel.obj
 0002:00005ff8       ??_C@_1M@CBOOLAPA@?$AAm?$AAk?$AA?9?$AAm?$AAk?$AA?$AA@ 0000000180063ff8     libucrt:lcidtoname_downlevel.obj
 0002:00006008       ??_C@_1M@GPHNBJKN@?$AAm?$AAl?$AA?9?$AAi?$AAn?$AA?$AA@ 0000000180064008     libucrt:lcidtoname_downlevel.obj
 0002:00006018       ??_C@_1M@PABJILIG@?$AAm?$AAn?$AA?9?$AAm?$AAn?$AA?$AA@ 0000000180064018     libucrt:lcidtoname_downlevel.obj
 0002:00006028       ??_C@_1M@FGBKKIPG@?$AAm?$AAr?$AA?9?$AAi?$AAn?$AA?$AA@ 0000000180064028     libucrt:lcidtoname_downlevel.obj
 0002:00006038       ??_C@_1M@NDBPDDAL@?$AAm?$AAs?$AA?9?$AAb?$AAn?$AA?$AA@ 0000000180064038     libucrt:lcidtoname_downlevel.obj
 0002:00006048       ??_C@_1M@OPIHOOPI@?$AAm?$AAs?$AA?9?$AAm?$AAy?$AA?$AA@ 0000000180064048     libucrt:lcidtoname_downlevel.obj
 0002:00006058       ??_C@_1M@PPDBCNFM@?$AAm?$AAt?$AA?9?$AAm?$AAt?$AA?$AA@ 0000000180064058     libucrt:lcidtoname_downlevel.obj
 0002:00006068       ??_C@_1M@KDJDKMDD@?$AAn?$AAb?$AA?9?$AAn?$AAo?$AA?$AA@ 0000000180064068     libucrt:lcidtoname_downlevel.obj
 0002:00006078       ??_C@_1M@KFCFLMJP@?$AAn?$AAl?$AA?9?$AAb?$AAe?$AA?$AA@ 0000000180064078     libucrt:lcidtoname_downlevel.obj
 0002:00006088       ??_C@_1M@KPOPDDGO@?$AAn?$AAl?$AA?9?$AAn?$AAl?$AA?$AA@ 0000000180064088     libucrt:lcidtoname_downlevel.obj
 0002:00006098       ??_C@_1M@LJKPEMLN@?$AAn?$AAn?$AA?9?$AAn?$AAo?$AA?$AA@ 0000000180064098     libucrt:lcidtoname_downlevel.obj
 0002:000060a8       ??_C@_1M@BDGHHBFL@?$AAn?$AAs?$AA?9?$AAz?$AAa?$AA?$AA@ 00000001800640a8     libucrt:lcidtoname_downlevel.obj
 0002:000060b8       ??_C@_1M@IDEHOAP@?$AAp?$AAa?$AA?9?$AAi?$AAn?$AA?$AA@ 00000001800640b8     libucrt:lcidtoname_downlevel.obj
 0002:000060c8       ??_C@_1M@HDBKGOGH@?$AAp?$AAl?$AA?9?$AAp?$AAl?$AA?$AA@ 00000001800640c8     libucrt:lcidtoname_downlevel.obj
 0002:000060d8       ??_C@_1M@LJLLCMEH@?$AAp?$AAt?$AA?9?$AAb?$AAr?$AA?$AA@ 00000001800640d8     libucrt:lcidtoname_downlevel.obj
 0002:000060e8       ??_C@_1M@NCMONAAL@?$AAp?$AAt?$AA?9?$AAp?$AAt?$AA?$AA@ 00000001800640e8     libucrt:lcidtoname_downlevel.obj
 0002:000060f8       ??_C@_1O@EAKMAJDN@?$AAq?$AAu?$AAz?$AA?9?$AAb?$AAo?$AA?$AA@ 00000001800640f8     libucrt:lcidtoname_downlevel.obj
 0002:00006108       ??_C@_1O@BHHPIGDN@?$AAq?$AAu?$AAz?$AA?9?$AAe?$AAc?$AA?$AA@ 0000000180064108     libucrt:lcidtoname_downlevel.obj
 0002:00006118       ??_C@_1O@GBAPEKMJ@?$AAq?$AAu?$AAz?$AA?9?$AAp?$AAe?$AA?$AA@ 0000000180064118     libucrt:lcidtoname_downlevel.obj
 0002:00006128       ??_C@_1M@CLGLEFBO@?$AAr?$AAo?$AA?9?$AAr?$AAo?$AA?$AA@ 0000000180064128     libucrt:lcidtoname_downlevel.obj
 0002:00006138       ??_C@_1M@CEEDODME@?$AAr?$AAu?$AA?9?$AAr?$AAu?$AA?$AA@ 0000000180064138     libucrt:lcidtoname_downlevel.obj
 0002:00006148       ??_C@_1M@HPKKKMPP@?$AAs?$AAa?$AA?9?$AAi?$AAn?$AA?$AA@ 0000000180064148     libucrt:lcidtoname_downlevel.obj
 0002:00006158       ??_C@_1M@BKMAIGOJ@?$AAs?$AAe?$AA?9?$AAf?$AAi?$AA?$AA@ 0000000180064158     libucrt:lcidtoname_downlevel.obj
 0002:00006168       ??_C@_1M@NDPIFLFI@?$AAs?$AAe?$AA?9?$AAn?$AAo?$AA?$AA@ 0000000180064168     libucrt:lcidtoname_downlevel.obj
 0002:00006178       ??_C@_1M@DANKKHJ@?$AAs?$AAe?$AA?9?$AAs?$AAe?$AA?$AA@ 0000000180064178     libucrt:lcidtoname_downlevel.obj
 0002:00006188       ??_C@_1M@PNBLONPJ@?$AAs?$AAk?$AA?9?$AAs?$AAk?$AA?$AA@ 0000000180064188     libucrt:lcidtoname_downlevel.obj
 0002:00006198       ??_C@_1M@LFMODOAL@?$AAs?$AAl?$AA?9?$AAs?$AAi?$AA?$AA@ 0000000180064198     libucrt:lcidtoname_downlevel.obj
 0002:000061a8       ??_C@_1O@DFKOMPG@?$AAs?$AAm?$AAa?$AA?9?$AAn?$AAo?$AA?$AA@ 00000001800641a8     libucrt:lcidtoname_downlevel.obj
 0002:000061b8       ??_C@_1O@NDKPBNNH@?$AAs?$AAm?$AAa?$AA?9?$AAs?$AAe?$AA?$AA@ 00000001800641b8     libucrt:lcidtoname_downlevel.obj
 0002:000061c8       ??_C@_1O@PLLKBHAB@?$AAs?$AAm?$AAj?$AA?9?$AAn?$AAo?$AA?$AA@ 00000001800641c8     libucrt:lcidtoname_downlevel.obj
 0002:000061d8       ??_C@_1O@CLEPOGCA@?$AAs?$AAm?$AAj?$AA?9?$AAs?$AAe?$AA?$AA@ 00000001800641d8     libucrt:lcidtoname_downlevel.obj
 0002:000061e8       ??_C@_1O@DLGJGKMK@?$AAs?$AAm?$AAn?$AA?9?$AAf?$AAi?$AA?$AA@ 00000001800641e8     libucrt:lcidtoname_downlevel.obj
 0002:000061f8       ??_C@_1O@OJDJGAJC@?$AAs?$AAm?$AAs?$AA?9?$AAf?$AAi?$AA?$AA@ 00000001800641f8     libucrt:lcidtoname_downlevel.obj
 0002:00006208       ??_C@_1M@BOFOGHPB@?$AAs?$AAq?$AA?9?$AAa?$AAl?$AA?$AA@ 0000000180064208     libucrt:lcidtoname_downlevel.obj
 0002:00006218       ??_C@_1BG@LJBBIPGB@?$AAs?$AAr?$AA?9?$AAb?$AAa?$AA?9?$AAc?$AAy?$AAr?$AAl?$AA?$AA@ 0000000180064218     libucrt:lcidtoname_downlevel.obj
 0002:00006230       ??_C@_1BG@JLBENFOE@?$AAs?$AAr?$AA?9?$AAb?$AAa?$AA?9?$AAl?$AAa?$AAt?$AAn?$AA?$AA@ 0000000180064230     libucrt:lcidtoname_downlevel.obj
 0002:00006248       ??_C@_1BG@KODPNHE@?$AAs?$AAr?$AA?9?$AAs?$AAp?$AA?9?$AAc?$AAy?$AAr?$AAl?$AA?$AA@ 0000000180064248     libucrt:lcidtoname_downlevel.obj
 0002:00006260       ??_C@_1BG@CIOGKHPB@?$AAs?$AAr?$AA?9?$AAs?$AAp?$AA?9?$AAl?$AAa?$AAt?$AAn?$AA?$AA@ 0000000180064260     libucrt:lcidtoname_downlevel.obj
 0002:00006278       ??_C@_1M@NGFJLMAC@?$AAs?$AAv?$AA?9?$AAf?$AAi?$AA?$AA@ 0000000180064278     libucrt:lcidtoname_downlevel.obj
 0002:00006288       ??_C@_1M@MPJEJAJC@?$AAs?$AAv?$AA?9?$AAs?$AAe?$AA?$AA@ 0000000180064288     libucrt:lcidtoname_downlevel.obj
 0002:00006298       ??_C@_1M@MPNDHLFK@?$AAs?$AAw?$AA?9?$AAk?$AAe?$AA?$AA@ 0000000180064298     libucrt:lcidtoname_downlevel.obj
 0002:000062a8       ??_C@_1O@KOHBJJI@?$AAs?$AAy?$AAr?$AA?9?$AAs?$AAy?$AA?$AA@ 00000001800642a8     libucrt:lcidtoname_downlevel.obj
 0002:000062b8       ??_C@_1M@LDCEFHA@?$AAt?$AAa?$AA?9?$AAi?$AAn?$AA?$AA@ 00000001800642b8     libucrt:lcidtoname_downlevel.obj
 0002:000062c8       ??_C@_1M@CNJOFAK@?$AAt?$AAe?$AA?9?$AAi?$AAn?$AA?$AA@ 00000001800642c8     libucrt:lcidtoname_downlevel.obj
 0002:000062d8       ??_C@_1M@GNAECACD@?$AAt?$AAh?$AA?9?$AAt?$AAh?$AA?$AA@ 00000001800642d8     libucrt:lcidtoname_downlevel.obj
 0002:000062e8       ??_C@_1M@CHBIHOJO@?$AAt?$AAn?$AA?9?$AAz?$AAa?$AA?$AA@ 00000001800642e8     libucrt:lcidtoname_downlevel.obj
 0002:000062f8       ??_C@_1M@GCCMIGPJ@?$AAt?$AAr?$AA?9?$AAt?$AAr?$AA?$AA@ 00000001800642f8     libucrt:lcidtoname_downlevel.obj
 0002:00006308       ??_C@_1M@CELMCNBK@?$AAt?$AAt?$AA?9?$AAr?$AAu?$AA?$AA@ 0000000180064308     libucrt:lcidtoname_downlevel.obj
 0002:00006318       ??_C@_1M@KLMCELGA@?$AAu?$AAk?$AA?9?$AAu?$AAa?$AA?$AA@ 0000000180064318     libucrt:lcidtoname_downlevel.obj
 0002:00006328       ??_C@_1M@EPAJJAJF@?$AAu?$AAr?$AA?9?$AAp?$AAk?$AA?$AA@ 0000000180064328     libucrt:lcidtoname_downlevel.obj
 0002:00006338       ??_C@_1BG@GEGPMCDJ@?$AAu?$AAz?$AA?9?$AAu?$AAz?$AA?9?$AAc?$AAy?$AAr?$AAl?$AA?$AA@ 0000000180064338     libucrt:lcidtoname_downlevel.obj
 0002:00006350       ??_C@_1BG@EGGKJILM@?$AAu?$AAz?$AA?9?$AAu?$AAz?$AA?9?$AAl?$AAa?$AAt?$AAn?$AA?$AA@ 0000000180064350     libucrt:lcidtoname_downlevel.obj
 0002:00006368       ??_C@_1M@GFOCLFF@?$AAv?$AAi?$AA?9?$AAv?$AAn?$AA?$AA@ 0000000180064368     libucrt:lcidtoname_downlevel.obj
 0002:00006378       ??_C@_1M@CPAMEDFI@?$AAx?$AAh?$AA?9?$AAz?$AAa?$AA?$AA@ 0000000180064378     libucrt:lcidtoname_downlevel.obj
 0002:00006388       ??_C@_1O@EBKIFIGN@?$AAz?$AAh?$AA?9?$AAc?$AAh?$AAs?$AA?$AA@ 0000000180064388     libucrt:lcidtoname_downlevel.obj
 0002:00006398       ??_C@_1O@NMHPGANE@?$AAz?$AAh?$AA?9?$AAc?$AAh?$AAt?$AA?$AA@ 0000000180064398     libucrt:lcidtoname_downlevel.obj
 0002:000063a8       ??_C@_1M@LPINJOMC@?$AAz?$AAh?$AA?9?$AAc?$AAn?$AA?$AA@ 00000001800643a8     libucrt:lcidtoname_downlevel.obj
 0002:000063b8       ??_C@_1M@OCJEJODD@?$AAz?$AAh?$AA?9?$AAh?$AAk?$AA?$AA@ 00000001800643b8     libucrt:lcidtoname_downlevel.obj
 0002:000063c8       ??_C@_1M@DNDLJINH@?$AAz?$AAh?$AA?9?$AAm?$AAo?$AA?$AA@ 00000001800643c8     libucrt:lcidtoname_downlevel.obj
 0002:000063d8       ??_C@_1M@MBFDNDND@?$AAz?$AAh?$AA?9?$AAs?$AAg?$AA?$AA@ 00000001800643d8     libucrt:lcidtoname_downlevel.obj
 0002:000063e8       ??_C@_1M@IMEPLEPE@?$AAz?$AAh?$AA?9?$AAt?$AAw?$AA?$AA@ 00000001800643e8     libucrt:lcidtoname_downlevel.obj
 0002:000063f8       ??_C@_1M@BBGHNHJP@?$AAz?$AAu?$AA?9?$AAz?$AAa?$AA?$AA@ 00000001800643f8     libucrt:lcidtoname_downlevel.obj
 0002:00006660       __log10_256_lead           0000000180064660     libucrt:log10_256_lead_tail_table.obj
 0002:00006e70       __log10_256_tail           0000000180064e70     libucrt:log10_256_lead_tail_table.obj
 0002:00007680       __log_F_inv_qword          0000000180065680     libucrt:log_f_inv_qword_table.obj
 0002:00007e90       ??_C@_05HGHHAHAP@log10?$AA@ 0000000180065e90     libucrt:log_special.obj
 0002:00007e98       ??_C@_1BA@BALFACEM@?$AAC?$AAO?$AAN?$AAO?$AAU?$AAT?$AA$?$AA?$AA@ 0000000180065e98     libucrt:initcon.obj
 0002:00007ec0       ??_C@_1BK@DBDEIDLH@?$AAK?$AAE?$AAR?$AAN?$AAE?$AAL?$AA3?$AA2?$AA?4?$AAD?$AAL?$AAL?$AA?$AA@ 0000000180065ec0     DelayImp:delayhlp.obj
 0002:00007ee0       ??_C@_0BI@OMNLIJDB@AcquireSRWLockExclusive?$AA@ 0000000180065ee0     DelayImp:delayhlp.obj
 0002:00007ef8       ??_C@_0BI@HMIEPCNJ@ReleaseSRWLockExclusive?$AA@ 0000000180065ef8     DelayImp:delayhlp.obj
 0002:00007f10       __pfnDliFailureHook2       0000000180065f10     DelayImp:delayhk1.obj
 0002:00007f20       _load_config_used          0000000180065f20     LIBCMT:loadcfg.obj
 0002:00007fb8       ??_C@_0BC@BDKFLDHL@unknown?5exception?$AA@ 0000000180065fb8     crypto_aead.obj
 0002:00007fd0       ??_C@_07CIFAGBMG@unknown?$AA@ 0000000180065fd0     crypto_aead.obj
 0002:00007fd8       ??_C@_0BJ@GLEIFKFN@napi_get_last_error_info?$AA@ 0000000180065fd8     crypto_aead.obj
 0002:00007ff8       ??_C@_0L@HGGLHLEF@Error?3?3New?$AA@ 0000000180065ff8     crypto_aead.obj
 0002:00008008       ??_C@_0CC@POCGFFOK@napi_get_and_clear_last_exceptio@ 0000000180066008     crypto_aead.obj
 0002:00008030       ??_C@_0BJ@JAPLLJGC@Error?5in?5native?5callback?$AA@ 0000000180066030     crypto_aead.obj
 0002:00008050       ??_C@_0BK@JOKHAPGN@napi_is_exception_pending?$AA@ 0000000180066050     crypto_aead.obj
 0002:00008070       ??_C@_0BI@LICPADOD@napi_create_string_utf8?$AA@ 0000000180066070     crypto_aead.obj
 0002:00008088       ??_C@_0BC@MIFMGDHH@napi_create_error?$AA@ 0000000180066088     crypto_aead.obj
 0002:000080a0       ??_C@_0BG@LGKKPCKG@napi_create_reference?$AA@ 00000001800660a0     crypto_aead.obj
 0002:000080b8       ??_C@_0N@JLICLJJF@Error?3?3Error?$AA@ 00000001800660b8     crypto_aead.obj
 0002:000080c8       ??_C@_07ONPBMBOP@message?$AA@ 00000001800660c8     crypto_aead.obj
 0002:000080d0       ??_C@_0BI@CHKLJPKM@napi_close_handle_scope?$AA@ 00000001800660d0     crypto_aead.obj
 0002:000080e8       ??_C@_0BK@MBPODMAJ@HandleScope?3?3?$HOHandleScope?$AA@ 00000001800660e8     crypto_aead.obj
 0002:00008108       ??_C@_0CC@EKOGADFA@napi_close_escapable_handle_scop@ 0000000180066108     crypto_aead.obj
 0002:00008130       ??_C@_0CM@POFNDOPF@EscapableHandleScope?3?3?$HOEscapable@ 0000000180066130     crypto_aead.obj
 0002:00008160       ??_C@_0BP@OCGGIME@arguments?5key?5must?5be?5a?5buffer?$AA@ 0000000180066160     crypto_aead.obj
 0002:00008180       ??_C@_0CA@KGENIHPL@argument?5?$CCkey?$CC?5must?5be?5a?5buffer?$AA@ 0000000180066180     crypto_aead.obj
 0002:000081a0       ??_C@_0DP@EJNABHFA@argument?5key?5must?5be?532U?5bytes?5l@ 00000001800661a0     crypto_aead.obj
 0002:000081e0       ??_C@_0ED@EONAOBGL@arguments?5message?0?5additional?5da@ 00000001800661e0     crypto_aead.obj
 0002:00008228       ??_C@_0BO@KPCANLD@argument?5?$CCm?$CC?5must?5be?5a?5buffer?$AA@ 0000000180066228     crypto_aead.obj
 0002:00008248       ??_C@_0BP@CMHHIEG@argument?5?$CCad?$CC?5must?5be?5a?5buffer?$AA@ 0000000180066248     crypto_aead.obj
 0002:00008268       ??_C@_0CB@IHBOGFHN@argument?5?$CCnpub?$CC?5must?5be?5a?5buffer@ 0000000180066268     crypto_aead.obj
 0002:00008290       ??_C@_0EA@BFHDAOCL@argument?5npub?5must?5be?512U?5bytes?5@ 0000000180066290     crypto_aead.obj
 0002:000082d0       ??_C@_0CA@KOFHALMP@argument?5?$CCctx?$CC?5must?5be?5a?5buffer?$AA@ 00000001800662d0     crypto_aead.obj
 0002:000082f0       ??_C@_0FO@FJCIHAPB@argument?5ctx?5must?5be?5crypto_aead@ 00000001800662f0     crypto_aead.obj
 0002:00008350       ??_C@_0EH@OKIPPHKH@arguments?5chiper?5text?0?5additiona@ 0000000180066350     crypto_aead.obj
 0002:00008398       ??_C@_0BO@BDAKEGNE@argument?5?$CCc?$CC?5must?5be?5a?5buffer?$AA@ 0000000180066398     crypto_aead.obj
 0002:000083c0       ??_C@_0EO@HGOELFCE@argument?5cipher?5text?5must?5be?5at?5@ 00000001800663c0     crypto_aead.obj
 0002:00008410       ??_C@_0L@MMKPMNOD@cipherText?$AA@ 0000000180066410     crypto_aead.obj
 0002:0000841c       ??_C@_03BADCJGEO@mac?$AA@  000000018006641c     crypto_aead.obj
 0002:00008420       ??_C@_0FF@HICKAAEI@arguments?5cipher?5message?0?5mac?0?5a@ 0000000180066420     crypto_aead.obj
 0002:00008478       ??_C@_0CA@HBJGNCNL@argument?5?$CCmac?$CC?5must?5be?5a?5buffer?$AA@ 0000000180066478     crypto_aead.obj
 0002:00008498       ??_C@_0DP@OCMGKPFP@argument?5mac?5must?5be?516U?5bytes?5l@ 0000000180066498     crypto_aead.obj
 0002:000084d8       ??_C@_0BO@IONBJAGG@argument?5?$CCk?$CC?5must?5be?5a?5buffer?$AA@ 00000001800664d8     crypto_aead.obj
 0002:000084f8       ??_C@_0DN@KDJPIEJN@argument?5k?5must?5be?532U?5bytes?5lon@ 00000001800664f8     crypto_aead.obj
 0002:00008540       ??_C@_0EP@OPNGGHKB@argument?5cipher?5text?5must?5be?5at?5@ 0000000180066540     crypto_aead.obj
 0002:00008590       ??_C@_0EG@CBAODBCE@argument?5mac?5cannot?5be?5longer?5th@ 0000000180066590     crypto_aead.obj
 0002:000085d8       ??_C@_0DP@LOEMKENN@argument?5npub?5must?5be?58U?5bytes?5l@ 00000001800665d8     crypto_aead.obj
 0002:00008620       ??_C@_0FG@EHACGGHM@argument?5cipher?5text?5must?5be?5at?5@ 0000000180066620     crypto_aead.obj
 0002:00008680       ??_C@_0EN@LKDOMFHI@argument?5mac?5cannot?5be?5longer?5th@ 0000000180066680     crypto_aead.obj
 0002:000086d0       ??_C@_0FL@GGGGHBEF@argument?5cipher?5text?5must?5be?5at?5@ 00000001800666d0     crypto_aead.obj
 0002:00008730       ??_C@_0FC@OELLEMCJ@argument?5mac?5cannot?5be?5longer?5th@ 0000000180066730     crypto_aead.obj
 0002:00008790       ??_C@_0EA@DAKKOMFN@argument?5npub?5must?5be?524U?5bytes?5@ 0000000180066790     crypto_aead.obj
 0002:000087d0       ??_C@_0FM@OBCAFPPJ@argument?5cipher?5text?5must?5be?5at?5@ 00000001800667d0     crypto_aead.obj
 0002:00008830       ??_C@_0FD@CBGJDGKB@argument?5mac?5cannot?5be?5longer?5th@ 0000000180066830     crypto_aead.obj
 0002:00008888       ??_C@_0CD@OGGOJNPE@crypto_aead_aes256gcm_is_availab@ 0000000180066888     crypto_aead.obj
 0002:000088b0       ??_C@_0BP@DCLLJIII@crypto_aead_aes256gcm_beforenm?$AA@ 00000001800668b0     crypto_aead.obj
 0002:000088d0       ??_C@_0CG@NLGOAPOD@crypto_aead_aes256gcm_encrypt_af@ 00000001800668d0     crypto_aead.obj
 0002:000088f8       ??_C@_0CG@KLPCDIIM@crypto_aead_aes256gcm_decrypt_af@ 00000001800668f8     crypto_aead.obj
 0002:00008920       ??_C@_0CP@JCMDEHCD@crypto_aead_aes256gcm_encrypt_de@ 0000000180066920     crypto_aead.obj
 0002:00008950       ??_C@_0CP@LNFLECLL@crypto_aead_aes256gcm_decrypt_de@ 0000000180066950     crypto_aead.obj
 0002:00008980       ??_C@_0BO@CDOEKBIP@crypto_aead_aes256gcm_decrypt?$AA@ 0000000180066980     crypto_aead.obj
 0002:000089a0       ??_C@_0CH@MMEFCDHM@crypto_aead_aes256gcm_decrypt_de@ 00000001800669a0     crypto_aead.obj
 0002:000089c8       ??_C@_0BO@ONEJPFOL@crypto_aead_aes256gcm_encrypt?$AA@ 00000001800669c8     crypto_aead.obj
 0002:000089e8       ??_C@_0BN@BAAMLIHO@crypto_aead_aes256gcm_keygen?$AA@ 00000001800669e8     crypto_aead.obj
 0002:00008a08       ??_C@_0CH@BBDIMDIC@crypto_aead_aes256gcm_encrypt_de@ 0000000180066a08     crypto_aead.obj
 0002:00008a30       ??_C@_0BN@BELJEDOF@crypto_aead_aes256gcm_abytes?$AA@ 0000000180066a30     crypto_aead.obj
 0002:00008a50       ??_C@_0BP@PEHBAAPP@crypto_aead_aes256gcm_keybytes?$AA@ 0000000180066a50     crypto_aead.obj
 0002:00008a70       ??_C@_0CA@BPLKLEFM@crypto_aead_aes256gcm_npubbytes?$AA@ 0000000180066a70     crypto_aead.obj
 0002:00008a90       ??_C@_0CA@PMPLLCAG@crypto_aead_aes256gcm_nsecbytes?$AA@ 0000000180066a90     crypto_aead.obj
 0002:00008ab0       ??_C@_0CH@MADHEKJC@crypto_aead_aes256gcm_messagebyt@ 0000000180066ab0     crypto_aead.obj
 0002:00008ad8       ??_C@_0BN@BAJCJNDH@crypto_aead_aes256gcm_ABYTES?$AA@ 0000000180066ad8     crypto_aead.obj
 0002:00008af8       ??_C@_0BP@ILNNDONI@crypto_aead_aes256gcm_KEYBYTES?$AA@ 0000000180066af8     crypto_aead.obj
 0002:00008b18       ??_C@_0CA@CPELIJKL@crypto_aead_aes256gcm_NPUBBYTES?$AA@ 0000000180066b18     crypto_aead.obj
 0002:00008b38       ??_C@_0CA@MMAKIPPB@crypto_aead_aes256gcm_NSECBYTES?$AA@ 0000000180066b38     crypto_aead.obj
 0002:00008b58       ??_C@_0CF@CFOFPPHI@crypto_aead_chacha20poly1305_dec@ 0000000180066b58     crypto_aead.obj
 0002:00008b80       ??_C@_0CO@OFAIEHC@crypto_aead_chacha20poly1305_dec@ 0000000180066b80     crypto_aead.obj
 0002:00008bb0       ??_C@_0CF@OLEIKLBM@crypto_aead_chacha20poly1305_enc@ 0000000180066bb0     crypto_aead.obj
 0002:00008bd8       ??_C@_0CE@KHOHFADL@crypto_aead_chacha20poly1305_key@ 0000000180066bd8     crypto_aead.obj
 0002:00008c00       ??_C@_0CO@NDCNGEIM@crypto_aead_chacha20poly1305_enc@ 0000000180066c00     crypto_aead.obj
 0002:00008c30       ??_C@_0CE@KDFCKLKA@crypto_aead_chacha20poly1305_aby@ 0000000180066c30     crypto_aead.obj
 0002:00008c58       ??_C@_0CG@NHKOGGBO@crypto_aead_chacha20poly1305_key@ 0000000180066c58     crypto_aead.obj
 0002:00008c80       ??_C@_0CH@MIJELJNE@crypto_aead_chacha20poly1305_npu@ 0000000180066c80     crypto_aead.obj
 0002:00008ca8       ??_C@_0CH@CLNFLPIO@crypto_aead_chacha20poly1305_nse@ 0000000180066ca8     crypto_aead.obj
 0002:00008cd0       ??_C@_0CO@CCCONJM@crypto_aead_chacha20poly1305_mes@ 0000000180066cd0     crypto_aead.obj
 0002:00008d00       ??_C@_0CE@KHHJHFHC@crypto_aead_chacha20poly1305_ABY@ 0000000180066d00     crypto_aead.obj
 0002:00008d28       ??_C@_0CG@KIACFIDJ@crypto_aead_chacha20poly1305_KEY@ 0000000180066d28     crypto_aead.obj
 0002:00008d50       ??_C@_0CH@PIGFIECD@crypto_aead_chacha20poly1305_NPU@ 0000000180066d50     crypto_aead.obj
 0002:00008d78       ??_C@_0CH@BLCEICHJ@crypto_aead_chacha20poly1305_NSE@ 0000000180066d78     crypto_aead.obj
 0002:00008da0       ??_C@_0CK@HCINFJJK@crypto_aead_chacha20poly1305_iet@ 0000000180066da0     crypto_aead.obj
 0002:00008dd0       ??_C@_0DD@NPGAPJNJ@crypto_aead_chacha20poly1305_iet@ 0000000180066dd0     crypto_aead.obj
 0002:00008e08       ??_C@_0CK@LMCAANPO@crypto_aead_chacha20poly1305_iet@ 0000000180066e08     crypto_aead.obj
 0002:00008e38       ??_C@_0CJ@KHPEJHEP@crypto_aead_chacha20poly1305_iet@ 0000000180066e38     crypto_aead.obj
 0002:00008e68       ??_C@_0DD@CBNBJCH@crypto_aead_chacha20poly1305_iet@ 0000000180066e68     crypto_aead.obj
 0002:00008ea0       ??_C@_0CJ@KDEBGMNE@crypto_aead_chacha20poly1305_iet@ 0000000180066ea0     crypto_aead.obj
 0002:00008ed0       ??_C@_0CL@JJPNINOM@crypto_aead_chacha20poly1305_iet@ 0000000180066ed0     crypto_aead.obj
 0002:00008f00       ??_C@_0CM@JLGJHJAP@crypto_aead_chacha20poly1305_iet@ 0000000180066f00     crypto_aead.obj
 0002:00008f30       ??_C@_0CM@HICIHPFF@crypto_aead_chacha20poly1305_iet@ 0000000180066f30     crypto_aead.obj
 0002:00008f60       ??_C@_0DD@NDBCJADH@crypto_aead_chacha20poly1305_iet@ 0000000180066f60     crypto_aead.obj
 0002:00008f98       ??_C@_0CJ@KHGKLCAG@crypto_aead_chacha20poly1305_iet@ 0000000180066f98     crypto_aead.obj
 0002:00008fc8       ??_C@_0CL@OGFBLDML@crypto_aead_chacha20poly1305_iet@ 0000000180066fc8     crypto_aead.obj
 0002:00008ff8       ??_C@_0CM@KLJIEEPI@crypto_aead_chacha20poly1305_iet@ 0000000180066ff8     crypto_aead.obj
 0002:00009028       ??_C@_0CM@EINJECKC@crypto_aead_chacha20poly1305_iet@ 0000000180067028     crypto_aead.obj
 0002:00009058       ??_C@_0CL@NIGLOLPH@crypto_aead_xchacha20poly1305_ie@ 0000000180067058     crypto_aead.obj
 0002:00009088       ??_C@_0DE@DOGIOPFF@crypto_aead_xchacha20poly1305_ie@ 0000000180067088     crypto_aead.obj
 0002:000090c0       ??_C@_0CL@BGMGLPJD@crypto_aead_xchacha20poly1305_ie@ 00000001800670c0     crypto_aead.obj
 0002:000090f0       ??_C@_0CK@ELAKKFCB@crypto_aead_xchacha20poly1305_ie@ 00000001800670f0     crypto_aead.obj
 0002:00009120       ??_C@_0DE@ODBFAPKL@crypto_aead_xchacha20poly1305_ie@ 0000000180067120     crypto_aead.obj
 0002:00009158       ??_C@_0CK@EPLPFOLK@crypto_aead_xchacha20poly1305_ie@ 0000000180067158     crypto_aead.obj
 0002:00009188       ??_C@_0CM@KKFEHGLL@crypto_aead_xchacha20poly1305_ie@ 0000000180067188     crypto_aead.obj
 0002:000091b8       ??_C@_0CN@GOFFBEKD@crypto_aead_xchacha20poly1305_ie@ 00000001800671b8     crypto_aead.obj
 0002:000091e8       ??_C@_0CN@INBEBCPJ@crypto_aead_xchacha20poly1305_ie@ 00000001800671e8     crypto_aead.obj
 0002:00009218       ??_C@_0DE@DCBKIGLL@crypto_aead_xchacha20poly1305_ie@ 0000000180067218     crypto_aead.obj
 0002:00009250       ??_C@_0CK@ELJEIAGI@crypto_aead_xchacha20poly1305_ie@ 0000000180067250     crypto_aead.obj
 0002:00009280       ??_C@_0CM@NFPIEIJM@crypto_aead_xchacha20poly1305_ie@ 0000000180067280     crypto_aead.obj
 0002:000092b0       ??_C@_0CN@FOKECJFE@crypto_aead_xchacha20poly1305_ie@ 00000001800672b0     crypto_aead.obj
 0002:000092e0       ??_C@_0CN@LNOFCPAO@crypto_aead_xchacha20poly1305_ie@ 00000001800672e0     crypto_aead.obj
 0002:00009310       ??_C@_0BA@JFNIOLAK@string?5too?5long?$AA@ 0000000180067310     crypto_aead.obj
 0002:00009320       ??_C@_0BI@NHGHJMKC@Reference?$DMT?$DO?3?3Reference?$AA@ 0000000180067320     crypto_aead.obj
 0002:00009338       ??_7exception@stdext@@6B@  0000000180067338     crypto_aead.obj
 0002:00009350       ??_7Error@Napi@@6B@        0000000180067350     crypto_aead.obj
 0002:00009368       ??_C@_0M@GBNBKBID@crypto_sign?$AA@ 0000000180067368     crypto_sign.obj
 0002:00009378       ??_C@_0BB@MLNLAEAD@crypto_sign_open?$AA@ 0000000180067378     crypto_sign.obj
 0002:00009390       ??_C@_0BF@JCLKPBPK@crypto_sign_detached?$AA@ 0000000180067390     crypto_sign.obj
 0002:000093a8       ??_C@_0BM@DELLJIHM@crypto_sign_verify_detached?$AA@ 00000001800673a8     crypto_sign.obj
 0002:000093c8       ??_C@_0BE@LENGFNOH@crypto_sign_keypair?$AA@ 00000001800673c8     crypto_sign.obj
 0002:000093e0       ??_C@_0BJ@MEFGJFKB@crypto_sign_seed_keypair?$AA@ 00000001800673e0     crypto_sign.obj
 0002:00009400       ??_C@_0BG@DBPJAFOI@crypto_sign_SEEDBYTES?$AA@ 0000000180067400     crypto_sign.obj
 0002:00009418       ??_C@_0BC@DDIOJHB@crypto_sign_BYTES?$AA@ 0000000180067418     crypto_sign.obj
 0002:00009430       ??_C@_0BL@EPBNIOGN@crypto_sign_PUBLICKEYBYTES?$AA@ 0000000180067430     crypto_sign.obj
 0002:00009450       ??_C@_0BL@MPAFDHEJ@crypto_sign_SECRETKEYBYTES?$AA@ 0000000180067450     crypto_sign.obj
 0002:00009470       ??_C@_07LBIEHNGB@ed25519?$AA@ 0000000180067470     crypto_sign.obj
 0002:00009478       ??_C@_0BG@OCIENCAB@crypto_sign_PRIMITIVE?$AA@ 0000000180067478     crypto_sign.obj
 0002:00009490       ??_C@_0CF@CMGBCDDA@argument?5ed25519_pk?5must?5be?5a?5bu@ 0000000180067490     crypto_sign_ed25519.obj
 0002:000094b8       ??_C@_0CH@ECDPHBMP@argument?5?$CCed25519_pk?$CC?5must?5be?5a?5@ 00000001800674b8     crypto_sign_ed25519.obj
 0002:000094e0       ??_C@_0EG@JFLLODMK@argument?5ed25519_pk?5must?5be?532U?5@ 00000001800674e0     crypto_sign_ed25519.obj
 0002:00009528       ??_C@_0DH@MJCFDEKN@crypto_sign_ed25519_pk_to_curve2@ 0000000180067528     crypto_sign_ed25519.obj
 0002:00009560       ??_C@_0CF@IDMIGOPK@argument?5ed25519_sk?5must?5be?5a?5bu@ 0000000180067560     crypto_sign_ed25519.obj
 0002:00009588       ??_C@_0CH@DJCBPDCM@argument?5?$CCed25519_sk?$CC?5must?5be?5a?5@ 0000000180067588     crypto_sign_ed25519.obj
 0002:000095b0       ??_C@_0EO@CDAPDDIE@argument?5ed25519_sk?5must?5be?5?$CI32U@ 00000001800675b0     crypto_sign_ed25519.obj
 0002:00009600       ??_C@_0DH@ECPGAKLE@crypto_sign_ed25519_sk_to_curve2@ 0000000180067600     crypto_sign_ed25519.obj
 0002:00009638       ??_C@_0DB@DABKFJD@arguments?5message?0?5and?5secretKey@ 0000000180067638     crypto_sign_ed25519.obj
 0002:00009670       ??_C@_0CE@EAKDBNFD@argument?5?$CCmessage?$CC?5must?5be?5a?5buf@ 0000000180067670     crypto_sign_ed25519.obj
 0002:00009698       ??_C@_0CG@NGFMEHMP@argument?5?$CCsecretKey?$CC?5must?5be?5a?5b@ 0000000180067698     crypto_sign_ed25519.obj
 0002:000096c0       ??_C@_0EN@NEFJPBEI@argument?5secretKey?5must?5be?5?$CI32U?5@ 00000001800676c0     crypto_sign_ed25519.obj
 0002:00009710       ??_C@_0DM@EADHGGAE@arguments?5signedMessage?5and?5veri@ 0000000180067710     crypto_sign_ed25519.obj
 0002:00009750       ??_C@_0CK@DBLEFOAG@argument?5?$CCsignedMessage?$CC?5must?5be@ 0000000180067750     crypto_sign_ed25519.obj
 0002:00009780       ??_C@_0CG@LOOMCJFG@argument?5?$CCpublicKey?$CC?5must?5be?5a?5b@ 0000000180067780     crypto_sign_ed25519.obj
 0002:000097b0       ??_C@_0EF@LOKDHJIJ@argument?5publicKey?5must?5be?532U?5b@ 00000001800677b0     crypto_sign_ed25519.obj
 0002:000097f8       ??_C@_0CG@ECIFKKNL@argument?5?$CCsignature?$CC?5must?5be?5a?5b@ 00000001800677f8     crypto_sign_ed25519.obj
 0002:00009820       ??_C@_0EF@KANMJPHC@argument?5signature?5must?5be?564U?5b@ 0000000180067820     crypto_sign_ed25519.obj
 0002:00009868       ??_C@_09IDENFCJL@publicKey?$AA@ 0000000180067868     crypto_sign_ed25519.obj
 0002:00009878       ??_C@_09JKPDMHAN@secretKey?$AA@ 0000000180067878     crypto_sign_ed25519.obj
 0002:00009888       ??_C@_0CD@EBJFAJOK@the?5argument?5seed?5must?5be?5a?5buff@ 0000000180067888     crypto_sign_ed25519.obj
 0002:000098b0       ??_C@_0BP@KNOHGLNH@argument?5?$CCsd?$CC?5must?5be?5a?5buffer?$AA@ 00000001800678b0     crypto_sign_ed25519.obj
 0002:000098d0       ??_C@_0DO@NBKNMPEI@argument?5sd?5must?5be?532U?5bytes?5lo@ 00000001800678d0     crypto_sign_ed25519.obj
 0002:00009910       ??_C@_0BP@NBHIBLPG@argument?5?$CCsk?$CC?5must?5be?5a?5buffer?$AA@ 0000000180067910     crypto_sign_ed25519.obj
 0002:00009930       ??_C@_0EG@DNCHOCNG@argument?5sk?5must?5be?5?$CI32U?5?$CL?532U?$CJ?5@ 0000000180067930     crypto_sign_ed25519.obj
 0002:00009978       ??_C@_0BE@MHOKBIME@crypto_sign_ed25519?$AA@ 0000000180067978     crypto_sign_ed25519.obj
 0002:00009990       ??_C@_0BJ@JBBBJAFE@crypto_sign_ed25519_open?$AA@ 0000000180067990     crypto_sign_ed25519.obj
 0002:000099b0       ??_C@_0BN@IENBFBOD@crypto_sign_ed25519_detached?$AA@ 00000001800679b0     crypto_sign_ed25519.obj
 0002:000099d0       ??_C@_0CE@EEHBBOJA@crypto_sign_ed25519_verify_detac@ 00000001800679d0     crypto_sign_ed25519.obj
 0002:000099f8       ??_C@_0BM@LDLJABDI@crypto_sign_ed25519_keypair?$AA@ 00000001800679f8     crypto_sign_ed25519.obj
 0002:00009a18       ??_C@_0CB@ECOCNHOJ@crypto_sign_ed25519_seed_keypair@ 0000000180067a18     crypto_sign_ed25519.obj
 0002:00009a40       ??_C@_0CF@JOJPFGBM@crypto_sign_ed25519_pk_to_curve2@ 0000000180067a40     crypto_sign_ed25519.obj
 0002:00009a68       ??_C@_0CF@MNAFANJI@crypto_sign_ed25519_sk_to_curve2@ 0000000180067a68     crypto_sign_ed25519.obj
 0002:00009a90       ??_C@_0BP@CIKHIBI@crypto_sign_ed25519_sk_to_seed?$AA@ 0000000180067a90     crypto_sign_ed25519.obj
 0002:00009ab0       ??_C@_0BN@PCCCMCGK@crypto_sign_ed25519_sk_to_pk?$AA@ 0000000180067ab0     crypto_sign_ed25519.obj
 0002:00009ad0       ??_C@_0CD@OPGPONGI@crypto_sign_ed25519_PUBLICKEYBYT@ 0000000180067ad0     crypto_sign_ed25519.obj
 0002:00009af8       ??_C@_0CD@GPHHFEEM@crypto_sign_ed25519_SECRETKEYBYT@ 0000000180067af8     crypto_sign_ed25519.obj
 0002:00009b20       ??_C@_0BK@PGGNOHLC@crypto_sign_ed25519_BYTES?$AA@ 0000000180067b20     crypto_sign_ed25519.obj
 0002:00009b40       ??_C@_0BO@FFIEMGII@crypto_sign_ed25519_SEEDBYTES?$AA@ 0000000180067b40     crypto_sign_ed25519.obj
 0002:00009b60       ??_C@_0EC@IGBEKCAO@arguments?5message?0?5nonce?0?5public@ 0000000180067b60     crypto_box.obj
 0002:00009ba8       ??_C@_0CC@ONJOFCEJ@argument?5?$CCnonce?$CC?5must?5be?5a?5buffe@ 0000000180067ba8     crypto_box.obj
 0002:00009bd0       ??_C@_0EB@GLMOHKMM@argument?5nonce?5must?5be?524U?5bytes@ 0000000180067bd0     crypto_box.obj
 0002:00009c20       ??_C@_0EF@KMDOAOLB@argument?5secretKey?5must?5be?532U?5b@ 0000000180067c20     crypto_box.obj
 0002:00009c70       ??_C@_0EF@CMLPJHGI@arguments?5cipherText?0?5nonce?0?5pub@ 0000000180067c70     crypto_box.obj
 0002:00009cb8       ??_C@_0CH@FOJBOLFN@argument?5?$CCcipherText?$CC?5must?5be?5a?5@ 0000000180067cb8     crypto_box.obj
 0002:00009ce0       ??_C@_0EJ@HNDBHGBA@argument?5cipher?5text?5must?5be?5at?5@ 0000000180067ce0     crypto_box.obj
 0002:00009d30       ??_C@_0EJ@KHMCLNCJ@the?5first?5crypto_box_BOXZEROBYTE@ 0000000180067d30     crypto_box.obj
 0002:00009d80       ??_C@_0EN@KIBMMMM@argument?5cipherText?5must?5have?5a?5@ 0000000180067d80     crypto_box.obj
 0002:00009dd0       ??_C@_0DD@PBBIINBB@arguments?5publicKey?0?5and?5secretK@ 0000000180067dd0     crypto_box.obj
 0002:00009e08       ??_C@_0CP@GALLBDOL@arguments?5message?0?5nonce?5and?5k?5m@ 0000000180067e08     crypto_box.obj
 0002:00009e38       ??_C@_0BP@GDHHPCP@arguments?5cipherText?0?5nonce?0?5k?$AA@ 0000000180067e38     crypto_box.obj
 0002:00009e60       ??_C@_0FB@JFLHDM@argument?5cipherText?5must?5have?5a?5@ 0000000180067e60     crypto_box.obj
 0002:00009ec0       ??_C@_0EK@LDPLNELA@arguments?5mac?0?5message?0?5nonce?0?5a@ 0000000180067ec0     crypto_box.obj
 0002:00009f10       ??_C@_0BP@KKGGJJBF@argument?5?$CCpk?$CC?5must?5be?5a?5buffer?$AA@ 0000000180067f10     crypto_box.obj
 0002:00009f30       ??_C@_0DO@GMFGABAD@argument?5pk?5must?5be?532U?5bytes?5lo@ 0000000180067f30     crypto_box.obj
 0002:00009f70       ??_C@_0DO@OPDPNBMA@argument?5sk?5must?5be?532U?5bytes?5lo@ 0000000180067f70     crypto_box.obj
 0002:00009fb0       ??_C@_0EB@BOJFINGL@arguments?5encrypted?5message?0?5mac@ 0000000180067fb0     crypto_box.obj
 0002:0000a000       ??_C@_0EI@BLMKBPFC@arguments?5unencrypted?5message?0?5a@ 0000000180068000     crypto_box.obj
 0002:0000a050       ??_C@_0FM@HFHDMDPB@arguments?5encrypted?5message?0?5rec@ 0000000180068050     crypto_box.obj
 0002:0000a0b0       ??_C@_0BP@NBBMKNMG@argument?5seed?5must?5be?5a?5buffer?$AA@ 00000001800680b0     crypto_box.obj
 0002:0000a0d0       ??_C@_0CB@DAEDNJOI@argument?5?$CCseed?$CC?5must?5be?5a?5buffer@ 00000001800680d0     crypto_box.obj
 0002:0000a100       ??_C@_0EA@JCEFFMJB@argument?5seed?5must?5be?532U?5bytes?5@ 0000000180068100     crypto_box.obj
 0002:0000a140       ??_C@_0CB@IMBNEGLP@argument?5?$CCctxt?$CC?5must?5be?5a?5buffer@ 0000000180068140     crypto_box.obj
 0002:0000a168       ??_C@_0L@DBCGFOFH@crypto_box?$AA@ 0000000180068168     crypto_box.obj
 0002:0000a178       ??_C@_0BD@JEDDIJFL@crypto_box_keypair?$AA@ 0000000180068178     crypto_box.obj
 0002:0000a190       ??_C@_0BA@NMKGJAGF@crypto_box_easy?$AA@ 0000000180068190     crypto_box.obj
 0002:0000a1a0       ??_C@_0BI@DPACMDCI@crypto_box_easy_afternm?$AA@ 00000001800681a0     crypto_box.obj
 0002:0000a1b8       ??_C@_0BE@JLGBEMND@crypto_box_beforenm?$AA@ 00000001800681b8     crypto_box.obj
 0002:0000a1d0       ??_C@_0BD@KKDMGEEI@crypto_box_afternm?$AA@ 00000001800681d0     crypto_box.obj
 0002:0000a1e8       ??_C@_0BI@ICPKGIJD@crypto_box_seed_keypair?$AA@ 00000001800681e8     crypto_box.obj
 0002:0000a200       ??_C@_0BE@FAENOLIJ@crypto_box_detached?$AA@ 0000000180068200     crypto_box.obj
 0002:0000a218       ??_C@_0BM@NIHMBAF@crypto_box_detached_afternm?$AA@ 0000000180068218     crypto_box.obj
 0002:0000a238       ??_C@_0BA@GDJLODGK@crypto_box_open?$AA@ 0000000180068238     crypto_box.obj
 0002:0000a248       ??_C@_0BI@BBNBJAIE@crypto_box_open_afternm?$AA@ 0000000180068248     crypto_box.obj
 0002:0000a260       ??_C@_0BF@CPAECIIA@crypto_box_open_easy?$AA@ 0000000180068260     crypto_box.obj
 0002:0000a278       ??_C@_0BJ@MCCEIIOG@crypto_box_open_detached?$AA@ 0000000180068278     crypto_box.obj
 0002:0000a298       ??_C@_0CB@DKCPAPII@crypto_box_open_detached_afternm@ 0000000180068298     crypto_box.obj
 0002:0000a2c0       ??_C@_0BN@LMOIHDIC@crypto_box_open_easy_afternm?$AA@ 00000001800682c0     crypto_box.obj
 0002:0000a2e0       ??_C@_0BA@JEHDPEBK@crypto_box_seal?$AA@ 00000001800682e0     crypto_box.obj
 0002:0000a2f0       ??_C@_0BF@FICJCCAE@crypto_box_seal_open?$AA@ 00000001800682f0     crypto_box.obj
 0002:0000a308       ??_C@_0BG@JIPOOFPO@crypto_box_NONCEBYTES?$AA@ 0000000180068308     crypto_box.obj
 0002:0000a320       ??_C@_0BE@BGPJFOHD@crypto_box_MACBYTES?$AA@ 0000000180068320     crypto_box.obj
 0002:0000a338       ??_C@_0BJ@LNMHCOF@crypto_box_BEFORENMBYTES?$AA@ 0000000180068338     crypto_box.obj
 0002:0000a358       ??_C@_0BI@CPCHCFLE@crypto_box_BOXZEROBYTES?$AA@ 0000000180068358     crypto_box.obj
 0002:0000a370       ??_C@_0BK@GBGBBCBB@crypto_box_PUBLICKEYBYTES?$AA@ 0000000180068370     crypto_box.obj
 0002:0000a390       ??_C@_0BK@OBHJKLDF@crypto_box_SECRETKEYBYTES?$AA@ 0000000180068390     crypto_box.obj
 0002:0000a3b0       ??_C@_0BF@HAFLJFHG@crypto_box_ZEROBYTES?$AA@ 00000001800683b0     crypto_box.obj
 0002:0000a3c8       ??_C@_0BF@PIDHNCHE@crypto_box_SEEDBYTES?$AA@ 00000001800683c8     crypto_box.obj
 0002:0000a3e0       ??_C@_0BF@EPJCJCOJ@crypto_box_SEALBYTES?$AA@ 00000001800683e0     crypto_box.obj
 0002:0000a3f8       ??_C@_0BM@PJLLECBC@crypto_box_MESSAGEBYTES_MAX?$AA@ 00000001800683f8     crypto_box.obj
 0002:0000a418       ??_C@_0BG@COJDFHNO@crypto_box_noncebytes?$AA@ 0000000180068418     crypto_box.obj
 0002:0000a430       ??_C@_0BE@GJFFGAFE@crypto_box_macbytes?$AA@ 0000000180068430     crypto_box.obj
 0002:0000a448       ??_C@_0BJ@NLJKCIBA@crypto_box_beforenmbytes?$AA@ 0000000180068448     crypto_box.obj
 0002:0000a468       ??_C@_0BI@DCAFAHJJ@crypto_box_boxzerobytes?$AA@ 0000000180068468     crypto_box.obj
 0002:0000a480       ??_C@_0BK@DJOCHGHK@crypto_box_publickeybytes?$AA@ 0000000180068480     crypto_box.obj
 0002:0000a4a0       ??_C@_0BK@LJPKMPFO@crypto_box_secretkeybytes?$AA@ 00000001800684a0     crypto_box.obj
 0002:0000a4c0       ??_C@_0BF@EAKKKIIB@crypto_box_zerobytes?$AA@ 00000001800684c0     crypto_box.obj
 0002:0000a4d8       ??_C@_0BF@MIMGOPID@crypto_box_seedbytes?$AA@ 00000001800684d8     crypto_box.obj
 0002:0000a4f0       ??_C@_0BF@HPGDKPBO@crypto_box_sealbytes?$AA@ 00000001800684f0     crypto_box.obj
 0002:0000a508       ??_C@_0BM@FJGFEAPK@crypto_box_messagebytes_max?$AA@ 0000000180068508     crypto_box.obj
 0002:0000a528       ??_C@_0BF@BLLLDIGK@crypto_box_primitive?$AA@ 0000000180068528     crypto_box.obj
 0002:0000a540       ??_C@_0BL@COOJHFKN@curve25519xsalsa20poly1305?$AA@ 0000000180068540     crypto_box.obj
 0002:0000a560       ??_C@_0BF@CLEKAFJN@crypto_box_PRIMITIVE?$AA@ 0000000180068560     crypto_box.obj
 0002:0000a580       ??_C@_0GE@NBIDMNMO@argument?5cipher?5text?5must?5be?5at?5@ 0000000180068580     crypto_box_curve25519xsalsa20poly1305.obj
 0002:0000a5f0       ??_C@_0GE@HPIDONNJ@the?5first?5crypto_box_curve25519x@ 00000001800685f0     crypto_box_curve25519xsalsa20poly1305.obj
 0002:0000a658       ??_C@_0DG@OKKBMHMC@crypto_box_curve25519xsalsa20pol@ 0000000180068658     crypto_box_curve25519xsalsa20poly1305.obj
 0002:0000a690       ??_C@_0GM@CBOBBHGO@argument?5cipherText?5must?5have?5a?5@ 0000000180068690     crypto_box_curve25519xsalsa20poly1305.obj
 0002:0000a700       ??_C@_0CG@EFPKBJEA@crypto_box_curve25519xsalsa20pol@ 0000000180068700     crypto_box_curve25519xsalsa20poly1305.obj
 0002:0000a728       ??_C@_0CO@KEPGAMF@crypto_box_curve25519xsalsa20pol@ 0000000180068728     crypto_box_curve25519xsalsa20poly1305.obj
 0002:0000a758       ??_C@_0CL@HIFILINK@crypto_box_curve25519xsalsa20pol@ 0000000180068758     crypto_box_curve25519xsalsa20poly1305.obj
 0002:0000a788       ??_C@_0CP@IMEIIOHJ@crypto_box_curve25519xsalsa20pol@ 0000000180068788     crypto_box_curve25519xsalsa20poly1305.obj
 0002:0000a7b8       ??_C@_0CO@DEEAINNG@crypto_box_curve25519xsalsa20pol@ 00000001800687b8     crypto_box_curve25519xsalsa20poly1305.obj
 0002:0000a7e8       ??_C@_0DD@GGLJDBOH@crypto_box_curve25519xsalsa20pol@ 00000001800687e8     crypto_box_curve25519xsalsa20poly1305.obj
 0002:0000a820       ??_C@_0DB@LJHMAFCI@crypto_box_curve25519xsalsa20pol@ 0000000180068820     crypto_box_curve25519xsalsa20poly1305.obj
 0002:0000a858       ??_C@_0CP@BNAJMNJ@crypto_box_curve25519xsalsa20pol@ 0000000180068858     crypto_box_curve25519xsalsa20poly1305.obj
 0002:0000a888       ??_C@_0DE@NPBACKKG@crypto_box_curve25519xsalsa20pol@ 0000000180068888     crypto_box_curve25519xsalsa20poly1305.obj
 0002:0000a8c0       ??_C@_0DD@FIEPIENH@crypto_box_curve25519xsalsa20pol@ 00000001800688c0     crypto_box_curve25519xsalsa20poly1305.obj
 0002:0000a8f8       ??_C@_0DF@IOGAMOGD@crypto_box_curve25519xsalsa20pol@ 00000001800688f8     crypto_box_curve25519xsalsa20poly1305.obj
 0002:0000a930       ??_C@_0DF@OHIHHEH@crypto_box_curve25519xsalsa20pol@ 0000000180068930     crypto_box_curve25519xsalsa20poly1305.obj
 0002:0000a968       ??_C@_0DA@EGEPPGEC@crypto_box_curve25519xsalsa20pol@ 0000000180068968     crypto_box_curve25519xsalsa20poly1305.obj
 0002:0000a998       ??_C@_0DA@MOCDLBEA@crypto_box_curve25519xsalsa20pol@ 0000000180068998     crypto_box_curve25519xsalsa20poly1305.obj
 0002:0000a9c8       ??_C@_0DB@PBBLHAI@crypto_box_curve25519xsalsa20pol@ 00000001800689c8     crypto_box_curve25519xsalsa20poly1305.obj
 0002:0000aa00       ??_C@_0CP@HOHMKCPO@crypto_box_curve25519xsalsa20pol@ 0000000180068a00     crypto_box_curve25519xsalsa20poly1305.obj
 0002:0000aa30       ??_C@_0DE@PFGHAFD@crypto_box_curve25519xsalsa20pol@ 0000000180068a30     crypto_box_curve25519xsalsa20poly1305.obj
 0002:0000aa68       ??_C@_0DD@EFGNKGPK@crypto_box_curve25519xsalsa20pol@ 0000000180068a68     crypto_box_curve25519xsalsa20poly1305.obj
 0002:0000aaa0       ??_C@_0DF@NGODKKAI@crypto_box_curve25519xsalsa20pol@ 0000000180068aa0     crypto_box_curve25519xsalsa20poly1305.obj
 0002:0000aad8       ??_C@_0DF@FGPLBDCM@crypto_box_curve25519xsalsa20pol@ 0000000180068ad8     crypto_box_curve25519xsalsa20poly1305.obj
 0002:0000ab10       ??_C@_0DA@HGLOMLLF@crypto_box_curve25519xsalsa20pol@ 0000000180068b10     crypto_box_curve25519xsalsa20poly1305.obj
 0002:0000ab40       ??_C@_0DA@PONCIMLH@crypto_box_curve25519xsalsa20pol@ 0000000180068b40     crypto_box_curve25519xsalsa20poly1305.obj
 0002:0000ab70       ??_C@_0DH@MLAJCKHA@crypto_box_curve25519xsalsa20pol@ 0000000180068b70     crypto_box_curve25519xsalsa20poly1305.obj
 0002:0000aba8       ??_C@_0BJ@BLDLJFHD@sodium_runtime_has_aesni?$AA@ 0000000180068ba8     sodium_runtime.obj
 0002:0000abc8       ??_C@_0BH@NCMHBDLF@sodium_runtime_has_avx?$AA@ 0000000180068bc8     sodium_runtime.obj
 0002:0000abe0       ??_C@_0BI@FGKJNEGB@sodium_runtime_has_avx2?$AA@ 0000000180068be0     sodium_runtime.obj
 0002:0000abf8       ??_C@_0BI@JJDCBMGM@sodium_runtime_has_neon?$AA@ 0000000180068bf8     sodium_runtime.obj
 0002:0000ac10       ??_C@_0BK@PCJGLOHG@sodium_runtime_has_pclmul?$AA@ 0000000180068c10     sodium_runtime.obj
 0002:0000ac30       ??_C@_0BI@GPKJNAJC@sodium_runtime_has_sse2?$AA@ 0000000180068c30     sodium_runtime.obj
 0002:0000ac48       ??_C@_0BI@HGLCOBND@sodium_runtime_has_sse3?$AA@ 0000000180068c48     sodium_runtime.obj
 0002:0000ac60       ??_C@_0BJ@NMLOCALI@sodium_runtime_has_sse41?$AA@ 0000000180068c60     sodium_runtime.obj
 0002:0000ac80       ??_C@_0BJ@PGIEAOPO@sodium_runtime_has_ssse3?$AA@ 0000000180068c80     sodium_runtime.obj
 0002:0000aca0       ??_C@_0M@CJAEDHOJ@crypto_auth?$AA@ 0000000180068ca0     crypto_auth.obj
 0002:0000acb0       ??_C@_0BD@ILOBHGDM@crypto_auth_verify?$AA@ 0000000180068cb0     crypto_auth.obj
 0002:0000acc8       ??_C@_0BD@BNCCPHNP@crypto_auth_keygen?$AA@ 0000000180068cc8     crypto_auth.obj
 0002:0000ace0       ??_C@_0BC@FAIEGFGA@crypto_auth_bytes?$AA@ 0000000180068ce0     crypto_auth.obj
 0002:0000acf8       ??_C@_0BF@KFAONMHI@crypto_auth_keybytes?$AA@ 0000000180068cf8     crypto_auth.obj
 0002:0000ad10       ??_C@_0BG@JECGADJN@crypto_auth_primitive?$AA@ 0000000180068d10     crypto_auth.obj
 0002:0000ad28       ??_C@_0BC@JLBCICCO@crypto_auth_BYTES?$AA@ 0000000180068d28     crypto_auth.obj
 0002:0000ad40       ??_C@_0BF@NKKCOCFP@crypto_auth_KEYBYTES?$AA@ 0000000180068d40     crypto_auth.obj
 0002:0000ad58       ??_C@_0O@FLFIPDGE@hmacsha512256?$AA@ 0000000180068d58     crypto_auth.obj
 0002:0000ad68       ??_C@_0BG@KENHDOGK@crypto_auth_PRIMITIVE?$AA@ 0000000180068d68     crypto_auth.obj
 0002:0000ad80       ??_C@_0CL@GEFHKGDK@arguments?5message?0?5and?5key?5must?5@ 0000000180068d80     crypto_auth_algos.obj
 0002:0000adb0       ??_C@_0CA@JAFLCKBD@argument?5?$CCmsg?$CC?5must?5be?5a?5buffer?$AA@ 0000000180068db0     crypto_auth_algos.obj
 0002:0000add0       ??_C@_0DC@FHEOOLFG@arguments?5token?0?5message?0?5and?5ke@ 0000000180068dd0     crypto_auth_algos.obj
 0002:0000ae08       ??_C@_0CC@BGAFLELL@argument?5?$CCtoken?$CC?5must?5be?5a?5buffe@ 0000000180068e08     crypto_auth_algos.obj
 0002:0000ae30       ??_C@_0EB@JKPGFFFE@argument?5token?5must?5be?532U?5bytes@ 0000000180068e30     crypto_auth_algos.obj
 0002:0000ae78       ??_C@_0BL@BOGKBAPG@argument?5key?5must?5a?5buffer?$AA@ 0000000180068e78     crypto_auth_algos.obj
 0002:0000ae98       ??_C@_0DI@BFDNPDHC@arguments?5must?5be?5two?5buffers?3?5h@ 0000000180068e98     crypto_auth_algos.obj
 0002:0000aed0       ??_C@_0CC@CBGMJKBB@argument?5?$CCstate?$CC?5must?5be?5a?5buffe@ 0000000180068ed0     crypto_auth_algos.obj
 0002:0000af00       ??_C@_0GB@HKAAINLF@argument?5state?5must?5be?5crypto_au@ 0000000180068f00     crypto_auth_algos.obj
 0002:0000af68       ??_C@_0CG@GEKEKONC@arguments?5must?5be?5a?5hash?5state?5b@ 0000000180068f68     crypto_auth_algos.obj
 0002:0000af90       ??_C@_0EB@MPFIKBME@argument?5token?5must?5be?564U?5bytes@ 0000000180068f90     crypto_auth_algos.obj
 0002:0000afe0       ??_C@_0GB@LCIPPFFI@argument?5state?5must?5be?5crypto_au@ 0000000180068fe0     crypto_auth_algos.obj
 0002:0000b050       ??_C@_0GE@CMJIGKOD@argument?5state?5must?5be?5crypto_au@ 0000000180069050     crypto_auth_algos.obj
 0002:0000b0b8       ??_C@_0BH@JEPELMDF@crypto_auth_hmacsha256?$AA@ 00000001800690b8     crypto_auth_algos.obj
 0002:0000b0d0       ??_C@_0BO@DENJDNAM@crypto_auth_hmacsha256_verify?$AA@ 00000001800690d0     crypto_auth_algos.obj
 0002:0000b0f0       ??_C@_0BM@CHNDDBLF@crypto_auth_hmacsha256_init?$AA@ 00000001800690f0     crypto_auth_algos.obj
 0002:0000b110       ??_C@_0BO@IFOLNEDH@crypto_auth_hmacsha256_update?$AA@ 0000000180069110     crypto_auth_algos.obj
 0002:0000b130       ??_C@_0BN@LGCIIHHO@crypto_auth_hmacsha256_final?$AA@ 0000000180069130     crypto_auth_algos.obj
 0002:0000b150       ??_C@_0CC@NOILCBAM@crypto_auth_hmacsha256_statebyte@ 0000000180069150     crypto_auth_algos.obj
 0002:0000b178       ??_C@_0BO@KCBKLMOP@crypto_auth_hmacsha256_keygen?$AA@ 0000000180069178     crypto_auth_algos.obj
 0002:0000b198       ??_C@_0BN@LIKOEDFD@crypto_auth_hmacsha256_bytes?$AA@ 0000000180069198     crypto_auth_algos.obj
 0002:0000b1b8       ??_C@_0CA@JLEGMNKL@crypto_auth_hmacsha256_keybytes?$AA@ 00000001800691b8     crypto_auth_algos.obj
 0002:0000b1d8       ??_C@_0BN@HDDIKEBN@crypto_auth_hmacsha256_BYTES?$AA@ 00000001800691d8     crypto_auth_algos.obj
 0002:0000b1f8       ??_C@_0CA@OEOKPDIM@crypto_auth_hmacsha256_KEYBYTES?$AA@ 00000001800691f8     crypto_auth_algos.obj
 0002:0000b218       ??_C@_0BH@GKEGOJFE@crypto_auth_hmacsha512?$AA@ 0000000180069218     crypto_auth_algos.obj
 0002:0000b230       ??_C@_0BO@EJOFNJPJ@crypto_auth_hmacsha512_verify?$AA@ 0000000180069230     crypto_auth_algos.obj
 0002:0000b250       ??_C@_0BM@DDLHHGJF@crypto_auth_hmacsha512_init?$AA@ 0000000180069250     crypto_auth_algos.obj
 0002:0000b270       ??_C@_0BO@PINHDAMC@crypto_auth_hmacsha512_update?$AA@ 0000000180069270     crypto_auth_algos.obj
 0002:0000b290       ??_C@_0BN@INFCMDPB@crypto_auth_hmacsha512_final?$AA@ 0000000180069290     crypto_auth_algos.obj
 0002:0000b2b0       ??_C@_0CC@JMJPMLJL@crypto_auth_hmacsha512_statebyte@ 00000001800692b0     crypto_auth_algos.obj
 0002:0000b2d8       ??_C@_0BO@NPCGFIBK@crypto_auth_hmacsha512_keygen?$AA@ 00000001800692d8     crypto_auth_algos.obj
 0002:0000b2f8       ??_C@_0BN@IDNEAHNM@crypto_auth_hmacsha512_bytes?$AA@ 00000001800692f8     crypto_auth_algos.obj
 0002:0000b318       ??_C@_0CA@FFOKIDAO@crypto_auth_hmacsha512_keybytes?$AA@ 0000000180069318     crypto_auth_algos.obj
 0002:0000b338       ??_C@_0BN@EIECOAJC@crypto_auth_hmacsha512_BYTES?$AA@ 0000000180069338     crypto_auth_algos.obj
 0002:0000b358       ??_C@_0CA@CKEGLNCJ@crypto_auth_hmacsha512_KEYBYTES?$AA@ 0000000180069358     crypto_auth_algos.obj
 0002:0000b378       ??_C@_0BK@IKCIKMCC@crypto_auth_hmacsha512256?$AA@ 0000000180069378     crypto_auth_algos.obj
 0002:0000b398       ??_C@_0CB@GJLFCPCD@crypto_auth_hmacsha512256_verify@ 0000000180069398     crypto_auth_algos.obj
 0002:0000b3c0       ??_C@_0BP@PFNINODD@crypto_auth_hmacsha512256_init?$AA@ 00000001800693c0     crypto_auth_algos.obj
 0002:0000b3e0       ??_C@_0CB@NIIHMGBI@crypto_auth_hmacsha512256_update@ 00000001800693e0     crypto_auth_algos.obj
 0002:0000b408       ??_C@_0CA@LCCBKKIE@crypto_auth_hmacsha512256_final?$AA@ 0000000180069408     crypto_auth_algos.obj
 0002:0000b428       ??_C@_0CF@OFOKOAJI@crypto_auth_hmacsha512256_stateb@ 0000000180069428     crypto_auth_algos.obj
 0002:0000b450       ??_C@_0CB@PPHGKOMA@crypto_auth_hmacsha512256_keygen@ 0000000180069450     crypto_auth_algos.obj
 0002:0000b478       ??_C@_0CA@LMKHGOKJ@crypto_auth_hmacsha512256_bytes?$AA@ 0000000180069478     crypto_auth_algos.obj
 0002:0000b498       ??_C@_0CD@HKODNJOC@crypto_auth_hmacsha512256_keybyt@ 0000000180069498     crypto_auth_algos.obj
 0002:0000b4c0       ??_C@_0CA@HHDBIJOH@crypto_auth_hmacsha512256_BYTES?$AA@ 00000001800694c0     crypto_auth_algos.obj
 0002:0000b4e0       ??_C@_0CD@FEPOHMF@crypto_auth_hmacsha512256_KEYBYT@ 00000001800694e0     crypto_auth_algos.obj
 0002:0000b508       ??_C@_0DL@LKIKDDDH@arguments?5are?3?5input?5buffer?0?5key@ 0000000180069508     crypto_core.obj
 0002:0000b548       ??_C@_0BP@HACANBAO@argument?5?$CCin?$CC?5must?5be?5a?5buffer?$AA@ 0000000180069548     crypto_core.obj
 0002:0000b568       ??_C@_0DO@EINGGJDP@argument?5in?5must?5be?516U?5bytes?5lo@ 0000000180069568     crypto_core.obj
 0002:0000b5b0       ??_C@_0EJ@FJHMLOFF@c?5argument?5c?5must?5be?5crypto_core@ 00000001800695b0     crypto_core.obj
 0002:0000b600       ??_C@_0EI@EHOBOJLH@c?5argument?5c?5must?5be?5crypto_core@ 0000000180069600     crypto_core.obj
 0002:0000b650       ??_C@_0EH@LLGJPOMB@c?5argument?5c?5must?5be?5crypto_core@ 0000000180069650     crypto_core.obj
 0002:0000b6a0       ??_C@_0EJ@KDJPPEIH@c?5argument?5c?5must?5be?5crypto_core@ 00000001800696a0     crypto_core.obj
 0002:0000b6f0       ??_C@_0EI@GPDPOLKB@c?5argument?5c?5must?5be?5crypto_core@ 00000001800696f0     crypto_core.obj
 0002:0000b738       ??_C@_0BG@EDMHIKAL@crypto_core_hchacha20?$AA@ 0000000180069738     crypto_core.obj
 0002:0000b750       ??_C@_0CB@LPHDNPBN@crypto_core_hchacha20_constbytes@ 0000000180069750     crypto_core.obj
 0002:0000b778       ??_C@_0CB@BAHDHMMD@crypto_core_hchacha20_inputbytes@ 0000000180069778     crypto_core.obj
 0002:0000b7a0       ??_C@_0BP@KIKHBPEJ@crypto_core_hchacha20_keybytes?$AA@ 00000001800697a0     crypto_core.obj
 0002:0000b7c0       ??_C@_0CC@IONCLJKC@crypto_core_hchacha20_outputbyte@ 00000001800697c0     crypto_core.obj
 0002:0000b7e8       ??_C@_0CB@JBOGNDN@crypto_core_hchacha20_CONSTBYTES@ 00000001800697e8     crypto_core.obj
 0002:0000b810       ??_C@_0CB@KGBOMOOD@crypto_core_hchacha20_INPUTBYTES@ 0000000180069810     crypto_core.obj
 0002:0000b838       ??_C@_0BP@NHALCBGO@crypto_core_hchacha20_KEYBYTES?$AA@ 0000000180069838     crypto_core.obj
 0002:0000b858       ??_C@_0CC@CAIONAHK@crypto_core_hchacha20_OUTPUTBYTE@ 0000000180069858     crypto_core.obj
 0002:0000b880       ??_C@_0BF@JMCDBMIB@crypto_core_hsalsa20?$AA@ 0000000180069880     crypto_core.obj
 0002:0000b898       ??_C@_0CA@FOGPPOPP@crypto_core_hsalsa20_constbytes?$AA@ 0000000180069898     crypto_core.obj
 0002:0000b8b8       ??_C@_0CA@PBGPFNCB@crypto_core_hsalsa20_inputbytes?$AA@ 00000001800698b8     crypto_core.obj
 0002:0000b8d8       ??_C@_0BO@KGLEAEBA@crypto_core_hsalsa20_keybytes?$AA@ 00000001800698d8     crypto_core.obj
 0002:0000b8f8       ??_C@_0CB@MADHCGNH@crypto_core_hsalsa20_outputbytes@ 00000001800698f8     crypto_core.obj
 0002:0000b920       ??_C@_0CA@OIACEMNP@crypto_core_hsalsa20_CONSTBYTES?$AA@ 0000000180069920     crypto_core.obj
 0002:0000b940       ??_C@_0CA@EHACOPAB@crypto_core_hsalsa20_INPUTBYTES?$AA@ 0000000180069940     crypto_core.obj
 0002:0000b960       ??_C@_0BO@NJBIDKDH@crypto_core_hsalsa20_KEYBYTES?$AA@ 0000000180069960     crypto_core.obj
 0002:0000b980       ??_C@_0CB@GOGLEPAP@crypto_core_hsalsa20_OUTPUTBYTES@ 0000000180069980     crypto_core.obj
 0002:0000b9a8       ??_C@_0BE@CFKBMGAA@crypto_core_salsa20?$AA@ 00000001800699a8     crypto_core.obj
 0002:0000b9c0       ??_C@_0BP@CBCJOOGF@crypto_core_salsa20_constbytes?$AA@ 00000001800699c0     crypto_core.obj
 0002:0000b9e0       ??_C@_0BP@IOCJENLL@crypto_core_salsa20_inputbytes?$AA@ 00000001800699e0     crypto_core.obj
 0002:0000ba00       ??_C@_0BN@GCALMDKO@crypto_core_salsa20_keybytes?$AA@ 0000000180069a00     crypto_core.obj
 0002:0000ba20       ??_C@_0CA@NAJCBKJN@crypto_core_salsa20_outputbytes?$AA@ 0000000180069a20     crypto_core.obj
 0002:0000ba40       ??_C@_0BP@JHEEFMEF@crypto_core_salsa20_CONSTBYTES?$AA@ 0000000180069a40     crypto_core.obj
 0002:0000ba60       ??_C@_0BP@DIEEPPJL@crypto_core_salsa20_INPUTBYTES?$AA@ 0000000180069a60     crypto_core.obj
 0002:0000ba80       ??_C@_0BN@BNKHPNIJ@crypto_core_salsa20_KEYBYTES?$AA@ 0000000180069a80     crypto_core.obj
 0002:0000baa0       ??_C@_0CA@HOMOHDEF@crypto_core_salsa20_OUTPUTBYTES?$AA@ 0000000180069aa0     crypto_core.obj
 0002:0000bac0       ??_C@_0BG@LKNOJJPC@crypto_core_salsa2012?$AA@ 0000000180069ac0     crypto_core.obj
 0002:0000bad8       ??_C@_0CB@GBCDEHFE@crypto_core_salsa2012_constbytes@ 0000000180069ad8     crypto_core.obj
 0002:0000bb00       ??_C@_0CB@MOCDOEIK@crypto_core_salsa2012_inputbytes@ 0000000180069b00     crypto_core.obj
 0002:0000bb28       ??_C@_0BP@KABNMNIM@crypto_core_salsa2012_keybytes?$AA@ 0000000180069b28     crypto_core.obj
 0002:0000bb48       ??_C@_0CC@IBAMBAAO@crypto_core_salsa2012_outputbyte@ 0000000180069b48     crypto_core.obj
 0002:0000bb70       ??_C@_0CB@NHEOPFHE@crypto_core_salsa2012_CONSTBYTES@ 0000000180069b70     crypto_core.obj
 0002:0000bb98       ??_C@_0CB@HIEOFGKK@crypto_core_salsa2012_INPUTBYTES@ 0000000180069b98     crypto_core.obj
 0002:0000bbc0       ??_C@_0BP@NPLBPDKL@crypto_core_salsa2012_KEYBYTES?$AA@ 0000000180069bc0     crypto_core.obj
 0002:0000bbe0       ??_C@_0CC@CPFAHJNG@crypto_core_salsa2012_OUTPUTBYTE@ 0000000180069be0     crypto_core.obj
 0002:0000bc08       ??_C@_0BF@BHLKBNDN@crypto_core_salsa208?$AA@ 0000000180069c08     crypto_core.obj
 0002:0000bc20       ??_C@_0CA@IMFLBEGM@crypto_core_salsa208_constbytes?$AA@ 0000000180069c20     crypto_core.obj
 0002:0000bc40       ??_C@_0CA@CDFLLHLC@crypto_core_salsa208_inputbytes?$AA@ 0000000180069c40     crypto_core.obj
 0002:0000bc60       ??_C@_0BO@MKGJOAPD@crypto_core_salsa208_keybytes?$AA@ 0000000180069c60     crypto_core.obj
 0002:0000bc80       ??_C@_0CB@KJODNAMD@crypto_core_salsa208_outputbytes@ 0000000180069c80     crypto_core.obj
 0002:0000bca8       ??_C@_0CA@DKDGKGEM@crypto_core_salsa208_CONSTBYTES?$AA@ 0000000180069ca8     crypto_core.obj
 0002:0000bcc8       ??_C@_0CA@JFDGAFJC@crypto_core_salsa208_INPUTBYTES?$AA@ 0000000180069cc8     crypto_core.obj
 0002:0000bce8       ??_C@_0BO@LFMFNONE@crypto_core_salsa208_KEYBYTES?$AA@ 0000000180069ce8     crypto_core.obj
 0002:0000bd08       ??_C@_0CB@HLPLJBL@crypto_core_salsa208_OUTPUTBYTES@ 0000000180069d08     crypto_core.obj
 0002:0000bd30       ??_C@_0BK@HINDLHEB@argument?5must?5be?5a?5buffer?$AA@ 0000000180069d30     crypto_scalarmult_curve25519.obj
 0002:0000bd50       ??_C@_0BO@KFFLEAHJ@argument?5?$CCn?$CC?5must?5be?5a?5buffer?$AA@ 0000000180069d50     crypto_scalarmult_curve25519.obj
 0002:0000bd70       ??_C@_0DN@LGBBIOOF@argument?5n?5must?5be?532U?5bytes?5lon@ 0000000180069d70     crypto_scalarmult_curve25519.obj
 0002:0000bdb0       ??_C@_0BK@EIOONJEK@arguments?5must?5be?5buffers?$AA@ 0000000180069db0     crypto_scalarmult_curve25519.obj
 0002:0000bdd0       ??_C@_0BO@FMGFKADL@argument?5?$CCp?$CC?5must?5be?5a?5buffer?$AA@ 0000000180069dd0     crypto_scalarmult_curve25519.obj
 0002:0000bdf0       ??_C@_0DN@MLDFLDPF@argument?5p?5must?5be?532U?5bytes?5lon@ 0000000180069df0     crypto_scalarmult_curve25519.obj
 0002:0000be30       ??_C@_0BN@CHINGMP@crypto_scalarmult_curve25519?$AA@ 0000000180069e30     crypto_scalarmult_curve25519.obj
 0002:0000be50       ??_C@_0CC@NDCDIFKH@crypto_scalarmult_curve25519_bas@ 0000000180069e50     crypto_scalarmult_curve25519.obj
 0002:0000be78       ??_C@_0CJ@OIJPOENB@crypto_scalarmult_curve25519_SCA@ 0000000180069e78     crypto_scalarmult_curve25519.obj
 0002:0000bea8       ??_C@_0CD@EKKCDMEP@crypto_scalarmult_curve25519_BYT@ 0000000180069ea8     crypto_scalarmult_curve25519.obj
 0002:0000bed0       ??_C@_0BC@HIHFMHPK@crypto_scalarmult?$AA@ 0000000180069ed0     crypto_scalarmult.obj
 0002:0000bee8       ??_C@_0BH@IPEPIAIE@crypto_scalarmult_base?$AA@ 0000000180069ee8     crypto_scalarmult.obj
 0002:0000bf00       ??_C@_0BO@JLBOHMDF@crypto_scalarmult_SCALARBYTES?$AA@ 0000000180069f00     crypto_scalarmult.obj
 0002:0000bf20       ??_C@_0BI@OIJJCBDI@crypto_scalarmult_BYTES?$AA@ 0000000180069f20     crypto_scalarmult.obj
 0002:0000bf38       ??_C@_0L@OMGBHLCO@curve25519?$AA@ 0000000180069f38     crypto_scalarmult.obj
 0002:0000bf48       ??_C@_0BM@BLOALEBG@crypto_scalarmult_PRIMITIVE?$AA@ 0000000180069f48     crypto_scalarmult.obj
 0002:0000bf68       ??_C@_0DC@NCHDNJMD@arguments?5message?0?5nonce?0?5and?5ke@ 0000000180069f68     crypto_secretbox_xsalsa20poly1305.obj
 0002:0000bfa0       ??_C@_0DF@HOOOANNK@arguments?5cipherText?0?5nonce?0?5and@ 0000000180069fa0     crypto_secretbox_xsalsa20poly1305.obj
 0002:0000bfd8       ??_C@_0CI@OOMIBNHF@argument?5?$CCcipher_text?$CC?5must?5be?5a@ 0000000180069fd8     crypto_secretbox_xsalsa20poly1305.obj
 0002:0000c000       ??_C@_0FM@CADEPDHN@argument?5cipherText?5must?5have?5at@ 000000018006a000     crypto_secretbox_xsalsa20poly1305.obj
 0002:0000c060       ??_C@_0GA@KBIPEJIJ@the?5first?5crypto_secretbox_xsals@ 000000018006a060     crypto_secretbox_xsalsa20poly1305.obj
 0002:0000c0c0       ??_C@_0CC@GDFANGLH@crypto_secretbox_xsalsa20poly130@ 000000018006a0c0     crypto_secretbox_xsalsa20poly1305.obj
 0002:0000c0e8       ??_C@_0CH@LLFDJBFF@crypto_secretbox_xsalsa20poly130@ 000000018006a0e8     crypto_secretbox_xsalsa20poly1305.obj
 0002:0000c110       ??_C@_0CP@EMADANCG@crypto_secretbox_xsalsa20poly130@ 000000018006a110     crypto_secretbox_xsalsa20poly1305.obj
 0002:0000c140       ??_C@_0CL@GCOPANBK@crypto_secretbox_xsalsa20poly130@ 000000018006a140     crypto_secretbox_xsalsa20poly1305.obj
 0002:0000c170       ??_C@_0CL@FGBBLJOK@crypto_secretbox_xsalsa20poly130@ 000000018006a170     crypto_secretbox_xsalsa20poly1305.obj
 0002:0000c1a0       ??_C@_0CN@NOKDEBEI@crypto_secretbox_xsalsa20poly130@ 000000018006a1a0     crypto_secretbox_xsalsa20poly1305.obj
 0002:0000c1d0       ??_C@_0CM@EEEBFKNJ@crypto_secretbox_xsalsa20poly130@ 000000018006a1d0     crypto_secretbox_xsalsa20poly1305.obj
 0002:0000c200       ??_C@_0EL@IHFPGOHA@argument?5cipherText?5must?5have?5at@ 000000018006a200     crypto_secretbox.obj
 0002:0000c250       ??_C@_0EP@JLOABFCK@the?5first?5crypto_secretbox_BOXZE@ 000000018006a250     crypto_secretbox.obj
 0002:0000c2a0       ??_C@_0DH@BOEJMPBM@arguments?5mac?0?5message?0?5nonce?0?5a@ 000000018006a2a0     crypto_secretbox.obj
 0002:0000c2d8       ??_C@_0BB@FABFCCBK@crypto_secretbox?$AA@ 000000018006a2d8     crypto_secretbox.obj
 0002:0000c2f0       ??_C@_0BG@LINKGBJJ@crypto_secretbox_open?$AA@ 000000018006a2f0     crypto_secretbox.obj
 0002:0000c308       ??_C@_0BG@HOHBCJG@crypto_secretbox_easy?$AA@ 000000018006a308     crypto_secretbox.obj
 0002:0000c320       ??_C@_0BL@HEFEIHJO@crypto_secretbox_open_easy?$AA@ 000000018006a320     crypto_secretbox.obj
 0002:0000c340       ??_C@_0BK@NOEMOIDG@crypto_secretbox_detached?$AA@ 000000018006a340     crypto_secretbox.obj
 0002:0000c360       ??_C@_0BP@OGMEGHDP@crypto_secretbox_open_detached?$AA@ 000000018006a360     crypto_secretbox.obj
 0002:0000c380       ??_C@_0BO@HLGLFKEH@crypto_secretbox_BOXZEROBYTES?$AA@ 000000018006a380     crypto_secretbox.obj
 0002:0000c3a0       ??_C@_0BK@JIPIFNMM@crypto_secretbox_MACBYTES?$AA@ 000000018006a3a0     crypto_secretbox.obj
 0002:0000c3c0       ??_C@_0BK@KMAGOJDM@crypto_secretbox_KEYBYTES?$AA@ 000000018006a3c0     crypto_secretbox.obj
 0002:0000c3e0       ??_C@_0BM@GCKKIIDC@crypto_secretbox_NONCEBYTES?$AA@ 000000018006a3e0     crypto_secretbox.obj
 0002:0000c400       ??_C@_0BL@CLALDKGI@crypto_secretbox_ZEROBYTES?$AA@ 000000018006a400     crypto_secretbox.obj
 0002:0000c420       ??_C@_0BB@NCBNKCIG@xsalsa20poly1305?$AA@ 000000018006a420     crypto_secretbox.obj
 0002:0000c438       ??_C@_0BL@HABKKKID@crypto_secretbox_PRIMITIVE?$AA@ 000000018006a438     crypto_secretbox.obj
 0002:0000c458       ??_C@_0CB@LNPLNFMN@libsodium?5cannot?5be?5initialized?$CB@ 000000018006a458     sodium.obj
 0002:0000c480       ??_C@_0BB@GOECMHGD@?4?4?2src?2sodium?4cc?$AA@ 000000018006a480     sodium.obj
 0002:0000c494       ??_C@_06OOEEIBON@sodium?$AA@ 000000018006a494     sodium.obj
 0002:0000c4a0       ??_C@_0O@OIHAADGM@crypto_stream?$AA@ 000000018006a4a0     crypto_stream.obj
 0002:0000c4b0       ??_C@_0BC@LIBCKCFO@crypto_stream_xor?$AA@ 000000018006a4b0     crypto_stream.obj
 0002:0000c4c8       ??_C@_0BH@EKNIPNNG@crypto_stream_keybytes?$AA@ 000000018006a4c8     crypto_stream.obj
 0002:0000c4e0       ??_C@_0BJ@HBCIMDLF@crypto_stream_noncebytes?$AA@ 000000018006a4e0     crypto_stream.obj
 0002:0000c500       ??_C@_0BI@KFKHFLFD@crypto_stream_primitive?$AA@ 000000018006a500     crypto_stream.obj
 0002:0000c518       ??_C@_0BH@DFHEMDPB@crypto_stream_KEYBYTES?$AA@ 000000018006a518     crypto_stream.obj
 0002:0000c530       ??_C@_0BJ@MHEFHBJF@crypto_stream_NONCEBYTES?$AA@ 000000018006a530     crypto_stream.obj
 0002:0000c550       ??_C@_08OHOEJJOL@xsalsa20?$AA@ 000000018006a550     crypto_stream.obj
 0002:0000c560       ??_C@_0BI@JFFGGGKE@crypto_stream_PRIMITIVE?$AA@ 000000018006a560     crypto_stream.obj
 0002:0000c580       ??_C@_0FE@CPPMCHJE@argument?5length?5must?5be?5a?5positi@ 000000018006a580     crypto_streams.obj
 0002:0000c5d8       ??_C@_0BP@CJDDPAGI@argument?5slen?5must?5be?5a?5number?$AA@ 000000018006a5d8     crypto_streams.obj
 0002:0000c600       ??_C@_0EA@EHECIGC@argument?5nonce?5must?5be?58U?5bytes?5@ 000000018006a600     crypto_streams.obj
 0002:0000c640       ??_C@_0BN@PNLNOOOE@argument?5ic?5must?5be?5a?5number?$AA@ 000000018006a640     crypto_streams.obj
 0002:0000c660       ??_C@_0EB@EOBHJILK@argument?5nonce?5must?5be?512U?5bytes@ 000000018006a660     crypto_streams.obj
 0002:0000c6a8       ??_C@_0BH@JEKKJDOI@crypto_stream_xsalsa20?$AA@ 000000018006a6a8     crypto_streams.obj
 0002:0000c6c0       ??_C@_0BL@FFOCLEA@crypto_stream_xsalsa20_xor?$AA@ 000000018006a6c0     crypto_streams.obj
 0002:0000c6e0       ??_C@_0CA@CNLCIJNF@crypto_stream_xsalsa20_keybytes?$AA@ 000000018006a6e0     crypto_streams.obj
 0002:0000c700       ??_C@_0CC@NGNECDJ@crypto_stream_xsalsa20_noncebyte@ 000000018006a700     crypto_streams.obj
 0002:0000c728       ??_C@_0BO@BAIBNLGA@crypto_stream_xsalsa20_xor_ic?$AA@ 000000018006a728     crypto_streams.obj
 0002:0000c748       ??_C@_0CA@FCBOLHPC@crypto_stream_xsalsa20_KEYBYTES?$AA@ 000000018006a748     crypto_streams.obj
 0002:0000c768       ??_C@_0CC@LLAAPABJ@crypto_stream_xsalsa20_NONCEBYTE@ 000000018006a768     crypto_streams.obj
 0002:0000c790       ??_C@_0BG@LNKILDGG@crypto_stream_salsa20?$AA@ 000000018006a790     crypto_streams.obj
 0002:0000c7a8       ??_C@_0BK@EABBFGEG@crypto_stream_salsa20_xor?$AA@ 000000018006a7a8     crypto_streams.obj
 0002:0000c7c8       ??_C@_0BP@MNGPHFIJ@crypto_stream_salsa20_keybytes?$AA@ 000000018006a7c8     crypto_streams.obj
 0002:0000c7e8       ??_C@_0CB@KPGIAOIL@crypto_stream_salsa20_noncebytes@ 000000018006a7e8     crypto_streams.obj
 0002:0000c810       ??_C@_0BN@GIPOPMCN@crypto_stream_salsa20_xor_ic?$AA@ 000000018006a810     crypto_streams.obj
 0002:0000c830       ??_C@_0BP@LCMDELKO@crypto_stream_salsa20_KEYBYTES?$AA@ 000000018006a830     crypto_streams.obj
 0002:0000c850       ??_C@_0CB@BJAFLMKL@crypto_stream_salsa20_NONCEBYTES@ 000000018006a850     crypto_streams.obj
 0002:0000c878       ??_C@_0BH@LDPDNACF@crypto_stream_salsa208?$AA@ 000000018006a878     crypto_streams.obj
 0002:0000c890       ??_C@_0BL@DNNGHNHE@crypto_stream_salsa208_xor?$AA@ 000000018006a890     crypto_streams.obj
 0002:0000c8b0       ??_C@_0CA@GPMMDBCO@crypto_stream_salsa208_keybytes?$AA@ 000000018006a8b0     crypto_streams.obj
 0002:0000c8d0       ??_C@_0CC@DPJPADIP@crypto_stream_salsa208_noncebyte@ 000000018006a8d0     crypto_streams.obj
 0002:0000c8f8       ??_C@_0CA@BAGAAPAJ@crypto_stream_salsa208_KEYBYTES?$AA@ 000000018006a8f8     crypto_streams.obj
 0002:0000c918       ??_C@_0CC@IJPCLBKP@crypto_stream_salsa208_NONCEBYTE@ 000000018006a918     crypto_streams.obj
 0002:0000c940       ??_C@_0BI@KJBGEIGJ@crypto_stream_salsa2012?$AA@ 000000018006a940     crypto_streams.obj
 0002:0000c958       ??_C@_0BM@MBHPINGK@crypto_stream_salsa2012_xor?$AA@ 000000018006a958     crypto_streams.obj
 0002:0000c978       ??_C@_0CB@FINKMGDE@crypto_stream_salsa2012_keybytes@ 000000018006a978     crypto_streams.obj
 0002:0000c9a0       ??_C@_0CD@KMGLKJPN@crypto_stream_salsa2012_noncebyt@ 000000018006a9a0     crypto_streams.obj
 0002:0000c9c8       ??_C@_0CB@CHHGPIBD@crypto_stream_salsa2012_KEYBYTES@ 000000018006a9c8     crypto_streams.obj
 0002:0000c9f0       ??_C@_0CD@BKAGBLNN@crypto_stream_salsa2012_NONCEBYT@ 000000018006a9f0     crypto_streams.obj
 0002:0000ca18       ??_C@_0BH@HNIIHGHP@crypto_stream_chacha20?$AA@ 000000018006aa18     crypto_streams.obj
 0002:0000ca30       ??_C@_0BL@PEIEPMOK@crypto_stream_chacha20_xor?$AA@ 000000018006aa30     crypto_streams.obj
 0002:0000ca50       ??_C@_0CA@CBBPOPNI@crypto_stream_chacha20_keybytes?$AA@ 000000018006aa50     crypto_streams.obj
 0002:0000ca70       ??_C@_0CC@BMBCPELE@crypto_stream_chacha20_noncebyte@ 000000018006aa70     crypto_streams.obj
 0002:0000ca98       ??_C@_0BO@GMBBGLDF@crypto_stream_chacha20_xor_ic?$AA@ 000000018006aa98     crypto_streams.obj
 0002:0000cab8       ??_C@_0CA@FOLDNBPP@crypto_stream_chacha20_KEYBYTES?$AA@ 000000018006aab8     crypto_streams.obj
 0002:0000cad8       ??_C@_0CC@KKHPEGJE@crypto_stream_chacha20_NONCEBYTE@ 000000018006aad8     crypto_streams.obj
 0002:0000cb00       ??_C@_0BM@EFDMGBFP@crypto_stream_chacha20_ietf?$AA@ 000000018006ab00     crypto_streams.obj
 0002:0000cb20       ??_C@_0CA@OFHEDFAD@crypto_stream_chacha20_ietf_xor?$AA@ 000000018006ab20     crypto_streams.obj
 0002:0000cb40       ??_C@_0CF@OJIDLLDK@crypto_stream_chacha20_ietf_keyb@ 000000018006ab40     crypto_streams.obj
 0002:0000cb68       ??_C@_0CH@BMFMDIKL@crypto_stream_chacha20_ietf_nonc@ 000000018006ab68     crypto_streams.obj
 0002:0000cb90       ??_C@_0CD@GNKHBOBA@crypto_stream_chacha20_ietf_xor_@ 000000018006ab90     crypto_streams.obj
 0002:0000cbb8       ??_C@_0CF@JGCPIFBN@crypto_stream_chacha20_ietf_KEYB@ 000000018006abb8     crypto_streams.obj
 0002:0000cbe0       ??_C@_0CH@KKDBIKIL@crypto_stream_chacha20_ietf_NONC@ 000000018006abe0     crypto_streams.obj
 0002:0000cc08       ??_C@_0CD@OEHNNGAA@argument?5?$CCbuffer?$CC?5must?5be?5a?5buff@ 000000018006ac08     helpers.obj
 0002:0000cc30       ??_C@_0DD@ICIODJAA@arguments?5must?5be?3?5buffer?0?5buffe@ 000000018006ac30     helpers.obj
 0002:0000cc68       ??_C@_0CF@LPGMIMEI@argument?5?$CCbuffer_1?$CC?5must?5be?5a?5bu@ 000000018006ac68     helpers.obj
 0002:0000cc90       ??_C@_0CF@BAMFMBIC@argument?5?$CCbuffer_2?$CC?5must?5be?5a?5bu@ 000000018006ac90     helpers.obj
 0002:0000ccb8       ??_C@_0BP@JCLODHGF@argument?5size?5must?5be?5a?5number?$AA@ 000000018006acb8     helpers.obj
 0002:0000ccd8       ??_C@_0CE@IBFDLPCA@use?5node?8s?5native?5Buffer?4toStrin@ 000000018006acd8     helpers.obj
 0002:0000cd00       ??_C@_0BO@PBELLGNE@arguments?5must?5be?5two?5buffers?$AA@ 000000018006ad00     helpers.obj
 0002:0000cd20       ??_C@_0CE@FHKLIKMI@argument?5?$CCstring1?$CC?5must?5be?5a?5buf@ 000000018006ad20     helpers.obj
 0002:0000cd50       ??_C@_0ED@KDHDBKDB@argument?5string1?5must?5be?516U?5byt@ 000000018006ad50     helpers.obj
 0002:0000cd98       ??_C@_0CE@PIACMHAC@argument?5?$CCstring2?$CC?5must?5be?5a?5buf@ 000000018006ad98     helpers.obj
 0002:0000cdc0       ??_C@_0ED@BJCGBOCG@argument?5string2?5must?5be?516U?5byt@ 000000018006adc0     helpers.obj
 0002:0000ce10       ??_C@_0ED@CMMNFLKK@argument?5string1?5must?5be?532U?5byt@ 000000018006ae10     helpers.obj
 0002:0000ce60       ??_C@_0ED@JGJIFPLN@argument?5string2?5must?5be?532U?5byt@ 000000018006ae60     helpers.obj
 0002:0000ceb0       ??_C@_0ED@HJGDKPDK@argument?5string1?5must?5be?564U?5byt@ 000000018006aeb0     helpers.obj
 0002:0000cf00       ??_C@_0ED@MDDGKLCN@argument?5string2?5must?5be?564U?5byt@ 000000018006af00     helpers.obj
 0002:0000cf48       ??_C@_0CB@GMMFFHMA@buffers?5need?5to?5be?5the?5same?5size@ 000000018006af48     helpers.obj
 0002:0000cf70       ??_C@_0BG@CCGEOBJF@sodium_version_string?$AA@ 000000018006af70     helpers.obj
 0002:0000cf88       ??_C@_0BN@HMGKPHFH@sodium_library_version_minor?$AA@ 000000018006af88     helpers.obj
 0002:0000cfa8       ??_C@_0BN@MDHICLMB@sodium_library_version_major?$AA@ 000000018006afa8     helpers.obj
 0002:0000cfc8       ??_C@_06PHMKFJNJ@memcmp?$AA@ 000000018006afc8     helpers.obj
 0002:0000cfd0       ??_C@_07LGFNNODD@memzero?$AA@ 000000018006afd0     helpers.obj
 0002:0000cfd8       ??_C@_0BB@BHGJOHIN@crypto_verify_16?$AA@ 000000018006afd8     helpers.obj
 0002:0000cff0       ??_C@_0BB@HAIBPGOH@crypto_verify_32?$AA@ 000000018006aff0     helpers.obj
 0002:0000d008       ??_C@_0BB@CABAJDIK@crypto_verify_64?$AA@ 000000018006b008     helpers.obj
 0002:0000d020       ??_C@_0BH@GGDLFHHP@crypto_verify_16_BYTES?$AA@ 000000018006b020     helpers.obj
 0002:0000d038       ??_C@_0BH@MMIHHBAD@crypto_verify_32_BYTES?$AA@ 000000018006b038     helpers.obj
 0002:0000d050       ??_C@_0BH@EAHPDNML@crypto_verify_64_BYTES?$AA@ 000000018006b050     helpers.obj
 0002:0000d068       ??_C@_07KIEKCOHD@bin2hex?$AA@ 000000018006b068     helpers.obj
 0002:0000d070       ??_C@_07FBJKBFJO@hex2bin?$AA@ 000000018006b070     helpers.obj
 0002:0000d078       ??_C@_09LMMMPEKD@increment?$AA@ 000000018006b078     helpers.obj
 0002:0000d084       ??_C@_03BDGOHNNK@add?$AA@  000000018006b084     helpers.obj
 0002:0000d088       ??_C@_07DIJKPEDD@compare?$AA@ 000000018006b088     helpers.obj
 0002:0000d090       ??_C@_07HPKLNPJL@is_zero?$AA@ 000000018006b090     helpers.obj
 0002:0000d098       ??_C@_0CI@DLHBGFGG@argument?5size?5must?5be?5a?5positive@ 000000018006b098     randombytes.obj
 0002:0000d0c0       ??_C@_0CG@KPFHEMDH@argument?5upper_bound?5must?5be?5a?5n@ 000000018006b0c0     randombytes.obj
 0002:0000d0e8       ??_C@_0CH@EKKGIEJP@arguments?5buf?5and?5seed?5must?5be?5b@ 000000018006b0e8     randombytes.obj
 0002:0000d110       ??_C@_0BA@EHAMNNHA@randombytes_buf?$AA@ 000000018006b110     randombytes.obj
 0002:0000d120       ??_C@_0M@OPKHCMIA@randombytes?$AA@ 000000018006b120     randombytes.obj
 0002:0000d130       ??_C@_0BC@ECMELAKE@randombytes_close?$AA@ 000000018006b130     randombytes.obj
 0002:0000d148       ??_C@_0BB@KDCLPIPP@randombytes_stir?$AA@ 000000018006b148     randombytes.obj
 0002:0000d160       ??_C@_0BD@IBKEPBEP@randombytes_random?$AA@ 000000018006b160     randombytes.obj
 0002:0000d178       ??_C@_0BE@LKIDBDHP@randombytes_uniform?$AA@ 000000018006b178     randombytes.obj
 0002:0000d190       ??_C@_0BO@JDBGMKGC@randombytes_buf_deterministic?$AA@ 000000018006b190     randombytes.obj
 0002:0000d1b0       ??_C@_0BG@PPMCFAEL@randombytes_SEEDBYTES?$AA@ 000000018006b1b0     randombytes.obj
 0002:0000d1d0       ??_C@_0FB@PGOCMEN@arguments?5must?5be?3?5output?5buffer@ 000000018006b1d0     crypto_pwhash_algos.obj
 0002:0000d228       ??_C@_0CB@KFPABMGL@argument?5outLen?5must?5be?5a?5number@ 000000018006b228     crypto_pwhash_algos.obj
 0002:0000d250       ??_C@_0CD@IJIHGDLK@argument?5?$CCpasswd?$CC?5must?5be?5a?5buff@ 000000018006b250     crypto_pwhash_algos.obj
 0002:0000d278       ??_C@_0CB@DGAMGLCF@argument?5?$CCsalt?$CC?5must?5be?5a?5buffer@ 000000018006b278     crypto_pwhash_algos.obj
 0002:0000d2a0       ??_C@_0EA@POIFKIM@argument?5salt?5must?5be?516U?5bytes?5@ 000000018006b2a0     crypto_pwhash_algos.obj
 0002:0000d2e0       ??_C@_0CD@KAMHPLKC@argument?5oppLimit?5must?5be?5a?5numb@ 000000018006b2e0     crypto_pwhash_algos.obj
 0002:0000d308       ??_C@_0CD@PGOJPFKN@argument?5memLimit?5must?5be?5a?5numb@ 000000018006b308     crypto_pwhash_algos.obj
 0002:0000d330       ??_C@_0BO@KMPKFEEH@argument?5alg?5must?5be?5a?5number?$AA@ 000000018006b330     crypto_pwhash_algos.obj
 0002:0000d350       ??_C@_0CM@CLPDJCOE@output?5buffer?5length?5must?5be?5big@ 000000018006b350     crypto_pwhash_algos.obj
 0002:0000d380       ??_C@_0DF@FCKHEMOA@arguments?5must?5be?3?5password?5buff@ 000000018006b380     crypto_pwhash_algos.obj
 0002:0000d3b8       ??_C@_0CL@EHLDLKCH@arguments?5must?5be?3?5pwhash?5string@ 000000018006b3b8     crypto_pwhash_algos.obj
 0002:0000d3e8       ??_C@_0CB@HFCDJMHO@argument?5?$CChash?$CC?5must?5be?5a?5buffer@ 000000018006b3e8     crypto_pwhash_algos.obj
 0002:0000d410       ??_C@_0EB@FFBMJGGD@argument?5hash?5must?5be?5128U?5bytes@ 000000018006b410     crypto_pwhash_algos.obj
 0002:0000d458       ??_C@_0DB@NJJHMGG@arguments?5must?5be?3?5pwhash?5hash?0?5@ 000000018006b458     crypto_pwhash_algos.obj
 0002:0000d490       ??_C@_0EA@IAFGBLBH@argument?5salt?5must?5be?532U?5bytes?5@ 000000018006b490     crypto_pwhash_algos.obj
 0002:0000d4d0       ??_C@_0EB@OKDICCPB@argument?5hash?5must?5be?5102U?5bytes@ 000000018006b4d0     crypto_pwhash_algos.obj
 0002:0000d520       ??_C@_0EI@DGLHLAEN@arguments?5must?5be?3?5password?5buff@ 000000018006b520     crypto_pwhash_algos.obj
 0002:0000d568       ??_C@_0BM@NNFBBNPA@argument?5N?5must?5be?5a?5number?$AA@ 000000018006b568     crypto_pwhash_algos.obj
 0002:0000d588       ??_C@_0BM@IFOEAIJ@argument?5r?5must?5be?5a?5number?$AA@ 000000018006b588     crypto_pwhash_algos.obj
 0002:0000d5a8       ??_C@_0BM@HMOKEGHI@argument?5p?5must?5be?5a?5number?$AA@ 000000018006b5a8     crypto_pwhash_algos.obj
 0002:0000d5c8       ??_C@_0CA@HFJAALK@argument?5?$CCout?$CC?5must?5be?5a?5buffer?$AA@ 000000018006b5c8     crypto_pwhash_algos.obj
 0002:0000d5e8       ??_C@_0BG@NJDMHNAH@crypto_pwhash_argon2i?$AA@ 000000018006b5e8     crypto_pwhash_algos.obj
 0002:0000d600       ??_C@_0BK@MADKFMKF@crypto_pwhash_argon2i_str?$AA@ 000000018006b600     crypto_pwhash_algos.obj
 0002:0000d620       ??_C@_0CB@NPBPJOPN@crypto_pwhash_argon2i_str_verify@ 000000018006b620     crypto_pwhash_algos.obj
 0002:0000d648       ??_C@_0CH@POGJCBHF@crypto_pwhash_argon2i_str_needs_@ 000000018006b648     crypto_pwhash_algos.obj
 0002:0000d670       ??_C@_0CA@MMIDBBBE@crypto_pwhash_argon2i_bytes_max?$AA@ 000000018006b670     crypto_pwhash_algos.obj
 0002:0000d690       ??_C@_0CA@NOAIPFHL@crypto_pwhash_argon2i_bytes_min?$AA@ 000000018006b690     crypto_pwhash_algos.obj
 0002:0000d6b0       ??_C@_0CD@HOOADLLL@crypto_pwhash_argon2i_opslimit_m@ 000000018006b6b0     crypto_pwhash_algos.obj
 0002:0000d6d8       ??_C@_0CD@GMGLNPNE@crypto_pwhash_argon2i_opslimit_m@ 000000018006b6d8     crypto_pwhash_algos.obj
 0002:0000d700       ??_C@_0CL@KCDGEMGH@crypto_pwhash_argon2i_opslimit_i@ 000000018006b700     crypto_pwhash_algos.obj
 0002:0000d730       ??_C@_0CJ@ECFHBK@crypto_pwhash_argon2i_opslimit_s@ 000000018006b730     crypto_pwhash_algos.obj
 0002:0000d760       ??_C@_0CD@HGIHPLNB@crypto_pwhash_argon2i_memlimit_m@ 000000018006b760     crypto_pwhash_algos.obj
 0002:0000d788       ??_C@_0CD@GEAMBPLO@crypto_pwhash_argon2i_memlimit_m@ 000000018006b788     crypto_pwhash_algos.obj
 0002:0000d7b0       ??_C@_0CL@KIBBLLM@crypto_pwhash_argon2i_memlimit_i@ 000000018006b7b0     crypto_pwhash_algos.obj
 0002:0000d7e0       ??_C@_0CJ@OINKANPP@crypto_pwhash_argon2i_memlimit_s@ 000000018006b7e0     crypto_pwhash_algos.obj
 0002:0000d810       ??_C@_0CB@PJJEFCDN@crypto_pwhash_argon2i_passwd_max@ 000000018006b810     crypto_pwhash_algos.obj
 0002:0000d838       ??_C@_0CB@OLBPLGFC@crypto_pwhash_argon2i_passwd_min@ 000000018006b838     crypto_pwhash_algos.obj
 0002:0000d860       ??_C@_0CA@DCOHMENH@crypto_pwhash_argon2i_saltbytes?$AA@ 000000018006b860     crypto_pwhash_algos.obj
 0002:0000d880       ??_C@_0BP@MELHCPCO@crypto_pwhash_argon2i_strbytes?$AA@ 000000018006b880     crypto_pwhash_algos.obj
 0002:0000d8a0       ??_C@_0CA@PPPGADEA@crypto_pwhash_argon2i_strprefix?$AA@ 000000018006b8a0     crypto_pwhash_algos.obj
 0002:0000d8c0       ??_C@_0CA@DNLDADOH@crypto_pwhash_argon2i_BYTES_MAX?$AA@ 000000018006b8c0     crypto_pwhash_algos.obj
 0002:0000d8e0       ??_C@_0CA@CPDIOHII@crypto_pwhash_argon2i_BYTES_MIN?$AA@ 000000018006b8e0     crypto_pwhash_algos.obj
 0002:0000d900       ??_C@_0CD@KCADDGJC@crypto_pwhash_argon2i_OPSLIMIT_M@ 000000018006b900     crypto_pwhash_algos.obj
 0002:0000d928       ??_C@_0CD@LAIINCPN@crypto_pwhash_argon2i_OPSLIMIT_M@ 000000018006b928     crypto_pwhash_algos.obj
 0002:0000d950       ??_C@_0CL@IGKBJBIJ@crypto_pwhash_argon2i_OPSLIMIT_I@ 000000018006b950     crypto_pwhash_algos.obj
 0002:0000d980       ??_C@_0CJ@JMADDLAF@crypto_pwhash_argon2i_OPSLIMIT_S@ 000000018006b980     crypto_pwhash_algos.obj
 0002:0000d9b0       ??_C@_0CD@KKGEPGPI@crypto_pwhash_argon2i_MEMLIMIT_M@ 000000018006b9b0     crypto_pwhash_algos.obj
 0002:0000d9d8       ??_C@_0CD@LIOPBCJH@crypto_pwhash_argon2i_MEMLIMIT_M@ 000000018006b9d8     crypto_pwhash_algos.obj
 0002:0000da00       ??_C@_0CL@COBGMGFC@crypto_pwhash_argon2i_MEMLIMIT_I@ 000000018006ba00     crypto_pwhash_algos.obj
 0002:0000da30       ??_C@_0CJ@HEJLGBOA@crypto_pwhash_argon2i_MEMLIMIT_S@ 000000018006ba30     crypto_pwhash_algos.obj
 0002:0000da60       ??_C@_0CB@IODIMPBJ@crypto_pwhash_argon2i_PASSWD_MAX@ 000000018006ba60     crypto_pwhash_algos.obj
 0002:0000da88       ??_C@_0CB@JMLDCLHG@crypto_pwhash_argon2i_PASSWD_MIN@ 000000018006ba88     crypto_pwhash_algos.obj
 0002:0000dab0       ??_C@_0CA@CBGPJCA@crypto_pwhash_argon2i_SALTBYTES?$AA@ 000000018006bab0     crypto_pwhash_algos.obj
 0002:0000dad0       ??_C@_0BP@LLBLBBAJ@crypto_pwhash_argon2i_STRBYTES?$AA@ 000000018006bad0     crypto_pwhash_algos.obj
 0002:0000daf0       ??_C@_09ICNDBAMC@$argon2i$?$AA@ 000000018006baf0     crypto_pwhash_algos.obj
 0002:0000db00       ??_C@_0CA@MPAHDOLH@crypto_pwhash_argon2i_STRPREFIX?$AA@ 000000018006bb00     crypto_pwhash_algos.obj
 0002:0000db20       ??_C@_0CI@POFEMELL@crypto_pwhash_argon2i_opslimit_m@ 000000018006bb20     crypto_pwhash_algos.obj
 0002:0000db48       ??_C@_0CI@NONKBCPM@crypto_pwhash_argon2i_memlimit_m@ 000000018006bb48     crypto_pwhash_algos.obj
 0002:0000db70       ??_C@_0CI@INFAFCLH@crypto_pwhash_argon2i_OPSLIMIT_M@ 000000018006bb70     crypto_pwhash_algos.obj
 0002:0000db98       ??_C@_0CI@KNNOIEPA@crypto_pwhash_argon2i_MEMLIMIT_M@ 000000018006bb98     crypto_pwhash_algos.obj
 0002:0000dbc0       ??_C@_0CE@CMHBFLNA@crypto_pwhash_argon2i_alg_argon2@ 000000018006bbc0     crypto_pwhash_algos.obj
 0002:0000dbe8       ??_C@_0CE@BGKDMDLE@crypto_pwhash_argon2i_ALG_ARGON2@ 000000018006bbe8     crypto_pwhash_algos.obj
 0002:0000dc10       ??_C@_0BH@JPCMAHHN@crypto_pwhash_argon2id?$AA@ 000000018006bc10     crypto_pwhash_algos.obj
 0002:0000dc28       ??_C@_0BL@EIKDAHCP@crypto_pwhash_argon2id_str?$AA@ 000000018006bc28     crypto_pwhash_algos.obj
 0002:0000dc48       ??_C@_0CC@GBMLAIMA@crypto_pwhash_argon2id_str_verif@ 000000018006bc48     crypto_pwhash_algos.obj
 0002:0000dc70       ??_C@_0CI@HODNBKGC@crypto_pwhash_argon2id_str_needs@ 000000018006bc70     crypto_pwhash_algos.obj
 0002:0000dc98       ??_C@_0CB@BDAFDMGG@crypto_pwhash_argon2id_bytes_max@ 000000018006bc98     crypto_pwhash_algos.obj
 0002:0000dcc0       ??_C@_0CB@BIONIAJ@crypto_pwhash_argon2id_bytes_min@ 000000018006bcc0     crypto_pwhash_algos.obj
 0002:0000dce8       ??_C@_0CE@NGEPLKA@crypto_pwhash_argon2id_opslimit_@ 000000018006bce8     crypto_pwhash_algos.obj
 0002:0000dd10       ??_C@_0CE@BPOPBPMP@crypto_pwhash_argon2id_opslimit_@ 000000018006bd10     crypto_pwhash_algos.obj
 0002:0000dd38       ??_C@_0CM@HEKJDCEA@crypto_pwhash_argon2id_opslimit_@ 000000018006bd38     crypto_pwhash_algos.obj
 0002:0000dd68       ??_C@_0CK@LEMKLKPM@crypto_pwhash_argon2id_opslimit_@ 000000018006bd68     crypto_pwhash_algos.obj
 0002:0000dd98       ??_C@_0CE@FADDLMK@crypto_pwhash_argon2id_memlimit_@ 000000018006bd98     crypto_pwhash_algos.obj
 0002:0000ddc0       ??_C@_0CE@BHIINPKF@crypto_pwhash_argon2id_memlimit_@ 000000018006bdc0     crypto_pwhash_algos.obj
 0002:0000dde8       ??_C@_0CM@NMBOGFJL@crypto_pwhash_argon2id_memlimit_@ 000000018006bde8     crypto_pwhash_algos.obj
 0002:0000de18       ??_C@_0CK@FMFCOABJ@crypto_pwhash_argon2id_memlimit_@ 000000018006be18     crypto_pwhash_algos.obj
 0002:0000de48       ??_C@_0CC@EHEAMEAA@crypto_pwhash_argon2id_passwd_ma@ 000000018006be48     crypto_pwhash_algos.obj
 0002:0000de70       ??_C@_0CC@FFMLCAGP@crypto_pwhash_argon2id_passwd_mi@ 000000018006be70     crypto_pwhash_algos.obj
 0002:0000de98       ??_C@_0CB@ONGBOJKF@crypto_pwhash_argon2id_saltbytes@ 000000018006be98     crypto_pwhash_algos.obj
 0002:0000dec0       ??_C@_0CA@CCHFJOIC@crypto_pwhash_argon2id_strbytes?$AA@ 000000018006bec0     crypto_pwhash_algos.obj
 0002:0000dee0       ??_C@_0CB@CAHACODC@crypto_pwhash_argon2id_strprefix@ 000000018006bee0     crypto_pwhash_algos.obj
 0002:0000df08       ??_C@_0CB@OCDFCOJF@crypto_pwhash_argon2id_BYTES_MAX@ 000000018006bf08     crypto_pwhash_algos.obj
 0002:0000df30       ??_C@_0CB@PALOMKPK@crypto_pwhash_argon2id_BYTES_MIN@ 000000018006bf30     crypto_pwhash_algos.obj
 0002:0000df58       ??_C@_0CE@NBIHPGIJ@crypto_pwhash_argon2id_OPSLIMIT_@ 000000018006bf58     crypto_pwhash_algos.obj
 0002:0000df80       ??_C@_0CE@MDAMBCOG@crypto_pwhash_argon2id_OPSLIMIT_@ 000000018006bf80     crypto_pwhash_algos.obj
 0002:0000dfa8       ??_C@_0CM@FADOOPKO@crypto_pwhash_argon2id_OPSLIMIT_@ 000000018006bfa8     crypto_pwhash_algos.obj
 0002:0000dfd8       ??_C@_0CK@CIILNGOD@crypto_pwhash_argon2id_OPSLIMIT_@ 000000018006bfd8     crypto_pwhash_algos.obj
 0002:0000e008       ??_C@_0CE@NJOADGOD@crypto_pwhash_argon2id_MEMLIMIT_@ 000000018006c008     crypto_pwhash_algos.obj
 0002:0000e030       ??_C@_0CE@MLGLNCIM@crypto_pwhash_argon2id_MEMLIMIT_@ 000000018006c030     crypto_pwhash_algos.obj
 0002:0000e058       ??_C@_0CM@PIIJLIHF@crypto_pwhash_argon2id_MEMLIMIT_@ 000000018006c058     crypto_pwhash_algos.obj
 0002:0000e088       ??_C@_0CK@MABDIMAG@crypto_pwhash_argon2id_MEMLIMIT_@ 000000018006c088     crypto_pwhash_algos.obj
 0002:0000e0b8       ??_C@_0CC@DAOMFJCE@crypto_pwhash_argon2id_PASSWD_MA@ 000000018006c0b8     crypto_pwhash_algos.obj
 0002:0000e0e0       ??_C@_0CC@CCGHLNEL@crypto_pwhash_argon2id_PASSWD_MI@ 000000018006c0e0     crypto_pwhash_algos.obj
 0002:0000e108       ??_C@_0CB@NNJANEFC@crypto_pwhash_argon2id_SALTBYTES@ 000000018006c108     crypto_pwhash_algos.obj
 0002:0000e130       ??_C@_0CA@FNNJKAKF@crypto_pwhash_argon2id_STRBYTES?$AA@ 000000018006c130     crypto_pwhash_algos.obj
 0002:0000e150       ??_C@_0L@PEJKBMOK@$argon2id$?$AA@ 000000018006c150     crypto_pwhash_algos.obj
 0002:0000e160       ??_C@_0CB@BAIBBDMF@crypto_pwhash_argon2id_STRPREFIX@ 000000018006c160     crypto_pwhash_algos.obj
 0002:0000e188       ??_C@_0CJ@HNAHBFEH@crypto_pwhash_argon2id_opslimit_@ 000000018006c188     crypto_pwhash_algos.obj
 0002:0000e1b8       ??_C@_0CJ@FNIJMDAA@crypto_pwhash_argon2id_memlimit_@ 000000018006c1b8     crypto_pwhash_algos.obj
 0002:0000e1e8       ??_C@_0CJ@OADIDEL@crypto_pwhash_argon2id_OPSLIMIT_@ 000000018006c1e8     crypto_pwhash_algos.obj
 0002:0000e218       ??_C@_0CJ@COINFFAM@crypto_pwhash_argon2id_MEMLIMIT_@ 000000018006c218     crypto_pwhash_algos.obj
 0002:0000e248       ??_C@_0CD@FGGCGACI@crypto_pwhash_scryptsalsa208sha2@ 000000018006c248     crypto_pwhash_algos.obj
 0002:0000e270       ??_C@_0CH@HFKKDNIF@crypto_pwhash_scryptsalsa208sha2@ 000000018006c270     crypto_pwhash_algos.obj
 0002:0000e298       ??_C@_0CO@CIKAOCCG@crypto_pwhash_scryptsalsa208sha2@ 000000018006c298     crypto_pwhash_algos.obj
 0002:0000e2c8       ??_C@_0DE@EPCIPLMO@crypto_pwhash_scryptsalsa208sha2@ 000000018006c2c8     crypto_pwhash_algos.obj
 0002:0000e300       ??_C@_0CN@BBKIJHIA@crypto_pwhash_scryptsalsa208sha2@ 000000018006c300     crypto_pwhash_algos.obj
 0002:0000e330       ??_C@_0CN@DCDHDOP@crypto_pwhash_scryptsalsa208sha2@ 000000018006c330     crypto_pwhash_algos.obj
 0002:0000e360       ??_C@_0DA@EFJPONMH@crypto_pwhash_scryptsalsa208sha2@ 000000018006c360     crypto_pwhash_algos.obj
 0002:0000e390       ??_C@_0DA@FHBEAJKI@crypto_pwhash_scryptsalsa208sha2@ 000000018006c390     crypto_pwhash_algos.obj
 0002:0000e3c0       ??_C@_0DI@LNFPMIEE@crypto_pwhash_scryptsalsa208sha2@ 000000018006c3c0     crypto_pwhash_algos.obj
 0002:0000e3f8       ??_C@_0DG@GBHFKKOC@crypto_pwhash_scryptsalsa208sha2@ 000000018006c3f8     crypto_pwhash_algos.obj
 0002:0000e430       ??_C@_0DA@ENPICNKN@crypto_pwhash_scryptsalsa208sha2@ 000000018006c430     crypto_pwhash_algos.obj
 0002:0000e460       ??_C@_0DA@FPHDMJMC@crypto_pwhash_scryptsalsa208sha2@ 000000018006c460     crypto_pwhash_algos.obj
 0002:0000e490       ??_C@_0DI@BFOIJPJP@crypto_pwhash_scryptsalsa208sha2@ 000000018006c490     crypto_pwhash_algos.obj
 0002:0000e4c8       ??_C@_0DG@IJONPAAH@crypto_pwhash_scryptsalsa208sha2@ 000000018006c4c8     crypto_pwhash_algos.obj
 0002:0000e500       ??_C@_0CO@OCLCOOG@crypto_pwhash_scryptsalsa208sha2@ 000000018006c500     crypto_pwhash_algos.obj
 0002:0000e530       ??_C@_0CO@BMKAMKIJ@crypto_pwhash_scryptsalsa208sha2@ 000000018006c530     crypto_pwhash_algos.obj
 0002:0000e560       ??_C@_0CN@OPMMECED@crypto_pwhash_scryptsalsa208sha2@ 000000018006c560     crypto_pwhash_algos.obj
 0002:0000e590       ??_C@_0CM@OCENHCEB@crypto_pwhash_scryptsalsa208sha2@ 000000018006c590     crypto_pwhash_algos.obj
 0002:0000e5c0       ??_C@_0CN@CCNNIFNE@crypto_pwhash_scryptsalsa208sha2@ 000000018006c5c0     crypto_pwhash_algos.obj
 0002:0000e5f0       ??_C@_0CN@OAJIIFHD@crypto_pwhash_scryptsalsa208sha2@ 000000018006c5f0     crypto_pwhash_algos.obj
 0002:0000e620       ??_C@_0CN@PCBDGBBM@crypto_pwhash_scryptsalsa208sha2@ 000000018006c620     crypto_pwhash_algos.obj
 0002:0000e650       ??_C@_0DA@JJHMOAOO@crypto_pwhash_scryptsalsa208sha2@ 000000018006c650     crypto_pwhash_algos.obj
 0002:0000e680       ??_C@_0DA@ILPHAEIB@crypto_pwhash_scryptsalsa208sha2@ 000000018006c680     crypto_pwhash_algos.obj
 0002:0000e6b0       ??_C@_0DI@JJMIBFKK@crypto_pwhash_scryptsalsa208sha2@ 000000018006c6b0     crypto_pwhash_algos.obj
 0002:0000e6e8       ??_C@_0DG@PNDEMGPN@crypto_pwhash_scryptsalsa208sha2@ 000000018006c6e8     crypto_pwhash_algos.obj
 0002:0000e720       ??_C@_0DA@JBBLCAIE@crypto_pwhash_scryptsalsa208sha2@ 000000018006c720     crypto_pwhash_algos.obj
 0002:0000e750       ??_C@_0DA@IDJAMEOL@crypto_pwhash_scryptsalsa208sha2@ 000000018006c750     crypto_pwhash_algos.obj
 0002:0000e780       ??_C@_0DI@DBHPECHB@crypto_pwhash_scryptsalsa208sha2@ 000000018006c780     crypto_pwhash_algos.obj
 0002:0000e7b8       ??_C@_0DG@BFKMJMBI@crypto_pwhash_scryptsalsa208sha2@ 000000018006c7b8     crypto_pwhash_algos.obj
 0002:0000e7f0       ??_C@_0CO@HJIHLDMC@crypto_pwhash_scryptsalsa208sha2@ 000000018006c7f0     crypto_pwhash_algos.obj
 0002:0000e820       ??_C@_0CO@GLAMFHKN@crypto_pwhash_scryptsalsa208sha2@ 000000018006c820     crypto_pwhash_algos.obj
 0002:0000e850       ??_C@_0CN@NPDNHPLE@crypto_pwhash_scryptsalsa208sha2@ 000000018006c850     crypto_pwhash_algos.obj
 0002:0000e880       ??_C@_0CM@JNOBEMGG@crypto_pwhash_scryptsalsa208sha2@ 000000018006c880     crypto_pwhash_algos.obj
 0002:0000e8ac       ??_C@_03CBCHAKDJ@$7$?$AA@  000000018006c8ac     crypto_pwhash_algos.obj
 0002:0000e8b0       ??_C@_0CN@BCCMLICD@crypto_pwhash_scryptsalsa208sha2@ 000000018006c8b0     crypto_pwhash_algos.obj
 0002:0000e8e0       ??_C@_0CG@OLPEHFMG@crypto_pwhash_scryptsalsa208sha2@ 000000018006c8e0     crypto_pwhash_algos.obj
 0002:0000e908       ??_C@_0CG@LPJBJHOP@crypto_pwhash_argon2id_alg_argon@ 000000018006c908     crypto_pwhash_algos.obj
 0002:0000e930       ??_C@_0GD@IGJENN@arguments?5must?5be?3?5output?5buffer@ 000000018006c930     crypto_pwhash.obj
 0002:0000e9a0       ??_C@_0EE@CKKFAAII@arguments?5must?5be?3?5password?5buff@ 000000018006c9a0     crypto_pwhash.obj
 0002:0000e9e8       ??_C@_0O@JIOLPAHA@crypto_pwhash?$AA@ 000000018006c9e8     crypto_pwhash.obj
 0002:0000e9f8       ??_C@_0BC@BAJNGOIN@crypto_pwhash_str?$AA@ 000000018006c9f8     crypto_pwhash.obj
 0002:0000ea10       ??_C@_0BJ@IOKMLFLP@crypto_pwhash_str_verify?$AA@ 000000018006ca10     crypto_pwhash.obj
 0002:0000ea30       ??_C@_0BG@NGIKGLKH@crypto_pwhash_str_alg?$AA@ 000000018006ca30     crypto_pwhash.obj
 0002:0000ea48       ??_C@_0BP@GIFBDBPE@crypto_pwhash_str_needs_rehash?$AA@ 000000018006ca48     crypto_pwhash.obj
 0002:0000ea68       ??_C@_0BK@OLHKAGOL@crypto_pwhash_alg_default?$AA@ 000000018006ca68     crypto_pwhash.obj
 0002:0000ea88       ??_C@_0BN@FLECEIOP@crypto_pwhash_alg_argon2id13?$AA@ 000000018006ca88     crypto_pwhash.obj
 0002:0000eaa8       ??_C@_0BM@HLHHBNHA@crypto_pwhash_alg_argon2i13?$AA@ 000000018006caa8     crypto_pwhash.obj
 0002:0000eac8       ??_C@_0BI@KJMMLNOG@crypto_pwhash_primitive?$AA@ 000000018006cac8     crypto_pwhash.obj
 0002:0000eae0       ??_C@_0BI@KBKIGJCF@crypto_pwhash_bytes_max?$AA@ 000000018006cae0     crypto_pwhash.obj
 0002:0000eaf8       ??_C@_0BI@LDCDINEK@crypto_pwhash_bytes_min?$AA@ 000000018006caf8     crypto_pwhash.obj
 0002:0000eb10       ??_C@_0BL@BABDLOMP@crypto_pwhash_opslimit_max?$AA@ 000000018006cb10     crypto_pwhash.obj
 0002:0000eb30       ??_C@_0BL@CJIFKKA@crypto_pwhash_opslimit_min?$AA@ 000000018006cb30     crypto_pwhash.obj
 0002:0000eb50       ??_C@_0CD@OFAGLEMD@crypto_pwhash_opslimit_interacti@ 000000018006cb50     crypto_pwhash.obj
 0002:0000eb78       ??_C@_0CB@DPGNHIEM@crypto_pwhash_opslimit_sensitive@ 000000018006cb78     crypto_pwhash.obj
 0002:0000eba0       ??_C@_0BL@BIHEHOKF@crypto_pwhash_memlimit_max?$AA@ 000000018006cba0     crypto_pwhash.obj
 0002:0000ebc0       ??_C@_0BL@KPPJKMK@crypto_pwhash_memlimit_min?$AA@ 000000018006cbc0     crypto_pwhash.obj
 0002:0000ebe0       ??_C@_0CD@ENLBODBI@crypto_pwhash_memlimit_interacti@ 000000018006cbe0     crypto_pwhash.obj
 0002:0000ec08       ??_C@_0CB@NHPFCCKJ@crypto_pwhash_memlimit_sensitive@ 000000018006cc08     crypto_pwhash.obj
 0002:0000ec30       ??_C@_0BJ@KICHHJHP@crypto_pwhash_passwd_max?$AA@ 000000018006cc30     crypto_pwhash.obj
 0002:0000ec50       ??_C@_0BJ@LKKMJNBA@crypto_pwhash_passwd_min?$AA@ 000000018006cc50     crypto_pwhash.obj
 0002:0000ec70       ??_C@_0BI@FPMMLMOG@crypto_pwhash_saltbytes?$AA@ 000000018006cc70     crypto_pwhash.obj
 0002:0000ec88       ??_C@_0BH@DCCLPFDL@crypto_pwhash_strbytes?$AA@ 000000018006cc88     crypto_pwhash.obj
 0002:0000eca0       ??_C@_0BI@JCNNHLHB@crypto_pwhash_strprefix?$AA@ 000000018006cca0     crypto_pwhash.obj
 0002:0000ecb8       ??_C@_0BI@FAJIHLNG@crypto_pwhash_BYTES_MAX?$AA@ 000000018006ccb8     crypto_pwhash.obj
 0002:0000ecd0       ??_C@_0BI@ECBDJPLJ@crypto_pwhash_BYTES_MIN?$AA@ 000000018006ccd0     crypto_pwhash.obj
 0002:0000ece8       ??_C@_0BL@MMPALDOG@crypto_pwhash_OPSLIMIT_MAX?$AA@ 000000018006cce8     crypto_pwhash.obj
 0002:0000ed08       ??_C@_0BL@NOHLFHIJ@crypto_pwhash_OPSLIMIT_MIN?$AA@ 000000018006cd08     crypto_pwhash.obj
 0002:0000ed28       ??_C@_0CD@MBJBGJCN@crypto_pwhash_OPSLIMIT_INTERACTI@ 000000018006cd28     crypto_pwhash.obj
 0002:0000ed50       ??_C@_0CB@KDCMBEFD@crypto_pwhash_OPSLIMIT_SENSITIVE@ 000000018006cd50     crypto_pwhash.obj
 0002:0000ed78       ??_C@_0BL@MEJHHDIM@crypto_pwhash_MEMLIMIT_MAX?$AA@ 000000018006cd78     crypto_pwhash.obj
 0002:0000ed98       ??_C@_0BL@NGBMJHOD@crypto_pwhash_MEMLIMIT_MIN?$AA@ 000000018006cd98     crypto_pwhash.obj
 0002:0000edb8       ??_C@_0CD@GJCGDOPG@crypto_pwhash_MEMLIMIT_INTERACTI@ 000000018006cdb8     crypto_pwhash.obj
 0002:0000ede0       ??_C@_0CB@ELLEEOLG@crypto_pwhash_MEMLIMIT_SENSITIVE@ 000000018006cde0     crypto_pwhash.obj
 0002:0000ee08       ??_C@_0BJ@NPILOEFL@crypto_pwhash_PASSWD_MAX?$AA@ 000000018006ce08     crypto_pwhash.obj
 0002:0000ee28       ??_C@_0BJ@MNAAAADE@crypto_pwhash_PASSWD_MIN?$AA@ 000000018006ce28     crypto_pwhash.obj
 0002:0000ee48       ??_C@_0BI@GPDNIBBB@crypto_pwhash_SALTBYTES?$AA@ 000000018006ce48     crypto_pwhash.obj
 0002:0000ee60       ??_C@_0BH@ENIHMLBM@crypto_pwhash_STRBYTES?$AA@ 000000018006ce60     crypto_pwhash.obj
 0002:0000ee78       ??_C@_0BK@MHNHONJA@crypto_pwhash_ALG_DEFAULT?$AA@ 000000018006ce78     crypto_pwhash.obj
 0002:0000ee98       ??_C@_0BM@EBKFIFBE@crypto_pwhash_ALG_ARGON2I13?$AA@ 000000018006ce98     crypto_pwhash.obj
 0002:0000eeb8       ??_C@_0BN@LBJFJAAI@crypto_pwhash_ALG_ARGON2ID13?$AA@ 000000018006ceb8     crypto_pwhash.obj
 0002:0000eed8       ??_C@_0BI@KCCMEGIG@crypto_pwhash_STRPREFIX?$AA@ 000000018006ced8     crypto_pwhash.obj
 0002:0000eef0       ??_C@_07LLNBPPOP@argon2i?$AA@ 000000018006cef0     crypto_pwhash.obj
 0002:0000eef8       ??_C@_0BI@JJDNIABB@crypto_pwhash_PRIMITIVE?$AA@ 000000018006cef8     crypto_pwhash.obj
 0002:0000ef10       ??_C@_0CC@ENGNNMND@argument?5message?5must?5be?5a?5buffe@ 000000018006cf10     crypto_hash.obj
 0002:0000ef38       ??_C@_0M@POCAIDNF@crypto_hash?$AA@ 000000018006cf38     crypto_hash.obj
 0002:0000ef48       ??_C@_0BC@GBONBHLO@crypto_hash_bytes?$AA@ 000000018006cf48     crypto_hash.obj
 0002:0000ef60       ??_C@_0BG@OADJKBNN@crypto_hash_primitive?$AA@ 000000018006cf60     crypto_hash.obj
 0002:0000ef78       ??_C@_0BC@KKHLPAPA@crypto_hash_BYTES?$AA@ 000000018006cf78     crypto_hash.obj
 0002:0000ef8c       ??_C@_06PAMKOKLI@sha512?$AA@ 000000018006cf8c     crypto_hash.obj
 0002:0000ef98       ??_C@_0BG@NAMIJMCK@crypto_hash_PRIMITIVE?$AA@ 000000018006cf98     crypto_hash.obj
 0002:0000efb0       ??_C@_0FN@BDJFOMAO@argument?5state?5must?5be?5crypto_ha@ 000000018006cfb0     crypto_hash_sha256.obj
 0002:0000f010       ??_C@_0BD@CGEKHKDG@crypto_hash_sha256?$AA@ 000000018006d010     crypto_hash_sha256.obj
 0002:0000f028       ??_C@_0BI@CKGGOFJP@crypto_hash_sha256_init?$AA@ 000000018006d028     crypto_hash_sha256.obj
 0002:0000f040       ??_C@_0BK@GLDOADGH@crypto_hash_sha256_update?$AA@ 000000018006d040     crypto_hash_sha256.obj
 0002:0000f060       ??_C@_0BJ@GNJOPLHM@crypto_hash_sha256_final?$AA@ 000000018006d060     crypto_hash_sha256.obj
 0002:0000f080       ??_C@_0BJ@GDBIDPFB@crypto_hash_sha256_bytes?$AA@ 000000018006d080     crypto_hash_sha256.obj
 0002:0000f0a0       ??_C@_0BO@CGLNPDDO@crypto_hash_sha256_statebytes?$AA@ 000000018006d0a0     crypto_hash_sha256.obj
 0002:0000f0c0       ??_C@_0BJ@KIIONIBP@crypto_hash_sha256_BYTES?$AA@ 000000018006d0c0     crypto_hash_sha256.obj
 0002:0000f0e0       ??_C@_0FN@NLBKJEOD@argument?5state?5must?5be?5crypto_ha@ 000000018006d0e0     crypto_hash_sha512.obj
 0002:0000f140       ??_C@_0BD@NIPICPFH@crypto_hash_sha512?$AA@ 000000018006d140     crypto_hash_sha512.obj
 0002:0000f158       ??_C@_0BI@DOACKCLP@crypto_hash_sha512_init?$AA@ 000000018006d158     crypto_hash_sha512.obj
 0002:0000f170       ??_C@_0BK@BGACOHJC@crypto_hash_sha512_update?$AA@ 000000018006d170     crypto_hash_sha512.obj
 0002:0000f190       ??_C@_0BJ@FGOELPPD@crypto_hash_sha512_final?$AA@ 000000018006d190     crypto_hash_sha512.obj
 0002:0000f1b0       ??_C@_0BJ@FIGCHLNO@crypto_hash_sha512_bytes?$AA@ 000000018006d1b0     crypto_hash_sha512.obj
 0002:0000f1d0       ??_C@_0BO@GEKJBJKJ@crypto_hash_sha512_statebytes?$AA@ 000000018006d1d0     crypto_hash_sha512.obj
 0002:0000f1f0       ??_C@_0BJ@JDPEJMJA@crypto_hash_sha512_BYTES?$AA@ 000000018006d1f0     crypto_hash_sha512.obj
 0002:0000f210       ??_C@_0DP@MGGOFGML@argument?5key?5must?5be?516U?5bytes?5l@ 000000018006d210     crypto_shorthash.obj
 0002:0000f250       ??_C@_0BB@NGCEJMBE@crypto_shorthash?$AA@ 000000018006d250     crypto_shorthash.obj
 0002:0000f268       ??_C@_0BH@CLEDLNLN@crypto_shorthash_BYTES?$AA@ 000000018006d268     crypto_shorthash.obj
 0002:0000f280       ??_C@_0BK@GBEFKPBI@crypto_shorthash_KEYBYTES?$AA@ 000000018006d280     crypto_shorthash.obj
 0002:0000f2a0       ??_C@_09PKEPFGPK@siphash24?$AA@ 000000018006d2a0     crypto_shorthash.obj
 0002:0000f2b0       ??_C@_0BL@EMNEANBE@crypto_shorthash_PRIMITIVE?$AA@ 000000018006d2b0     crypto_shorthash.obj
 0002:0000f2d0       ??_C@_0BL@LKLHCCPK@crypto_shorthash_siphash24?$AA@ 000000018006d2d0     crypto_shorthash_siphash24.obj
 0002:0000f2f0       ??_C@_0CB@EGMCANDE@crypto_shorthash_siphash24_BYTES@ 000000018006d2f0     crypto_shorthash_siphash24.obj
 0002:0000f318       ??_C@_0CE@PBNLJCHE@crypto_shorthash_siphash24_KEYBY@ 000000018006d318     crypto_shorthash_siphash24.obj
 0002:0000f340       ??_C@_0CL@DOBLOAPD@arguments?5must?5be?3?5hash?5size?0?5me@ 000000018006d340     crypto_generichash.obj
 0002:0000f370       ??_C@_0CD@EHLCPMLO@argument?5out_size?5must?5be?5a?5numb@ 000000018006d370     crypto_generichash.obj
 0002:0000f398       ??_C@_0DB@DPGGPEGC@key_size?5length?5cannot?5be?5smalle@ 000000018006d398     crypto_generichash.obj
 0002:0000f3d0       ??_C@_0DA@HANGNNC@key_size?5length?5cannot?5be?5bigger@ 000000018006d3d0     crypto_generichash.obj
 0002:0000f400       ??_C@_0DB@OIKPPELF@out_size?5length?5cannot?5be?5smalle@ 000000018006d400     crypto_generichash.obj
 0002:0000f438       ??_C@_0DA@MDNPFEDD@out_size?5length?5cannot?5be?5bigger@ 000000018006d438     crypto_generichash.obj
 0002:0000f468       ??_C@_0CL@HCJMJNID@arguments?5must?5be?3?5key?5buffer?0?5o@ 000000018006d468     crypto_generichash.obj
 0002:0000f498       ??_C@_0DA@OEHIIMBH@arguments?5must?5be?3?5state?5buffer?0@ 000000018006d498     crypto_generichash.obj
 0002:0000f4d0       ??_C@_0FN@JJGCKFMH@argument?5state?5must?5be?5crypto_ge@ 000000018006d4d0     crypto_generichash.obj
 0002:0000f530       ??_C@_0CN@KGCECKBP@arguments?5must?5be?3?5state?5buffer?0@ 000000018006d530     crypto_generichash.obj
 0002:0000f560       ??_C@_0BD@IIIFHMJL@crypto_generichash?$AA@ 000000018006d560     crypto_generichash.obj
 0002:0000f578       ??_C@_0BI@CNMNKBHO@crypto_generichash_init?$AA@ 000000018006d578     crypto_generichash.obj
 0002:0000f590       ??_C@_0BK@FNOKEDOI@crypto_generichash_update?$AA@ 000000018006d590     crypto_generichash.obj
 0002:0000f5b0       ??_C@_0BJ@LKJEICNG@crypto_generichash_final?$AA@ 000000018006d5b0     crypto_generichash.obj
 0002:0000f5d0       ??_C@_0BK@HKBLCLDA@crypto_generichash_keygen?$AA@ 000000018006d5d0     crypto_generichash.obj
 0002:0000f5f0       ??_C@_07BFJDAEII@blake2b?$AA@ 000000018006d5f0     crypto_generichash.obj
 0002:0000f5f8       ??_C@_0BN@HEOBKLIL@crypto_generichash_PRIMITIVE?$AA@ 000000018006d5f8     crypto_generichash.obj
 0002:0000f618       ??_C@_0BO@MJPDENBB@crypto_generichash_statebytes?$AA@ 000000018006d618     crypto_generichash.obj
 0002:0000f638       ??_C@_0BJ@HPIEKBLF@crypto_generichash_BYTES?$AA@ 000000018006d638     crypto_generichash.obj
 0002:0000f658       ??_C@_0BN@KPMPLECD@crypto_generichash_BYTES_MIN?$AA@ 000000018006d658     crypto_generichash.obj
 0002:0000f678       ??_C@_0BN@LNEEFAEM@crypto_generichash_BYTES_MAX?$AA@ 000000018006d678     crypto_generichash.obj
 0002:0000f698       ??_C@_0BM@IMCBPELK@crypto_generichash_KEYBYTES?$AA@ 000000018006d698     crypto_generichash.obj
 0002:0000f6b8       ??_C@_0CA@GKBPKDCE@crypto_generichash_KEYBYTES_MIN?$AA@ 000000018006d6b8     crypto_generichash.obj
 0002:0000f6d8       ??_C@_0CA@HIJEEHEL@crypto_generichash_KEYBYTES_MAX?$AA@ 000000018006d6d8     crypto_generichash.obj
 0002:0000f6f8       ??_C@_0BN@EEBAJGHM@crypto_generichash_primitive?$AA@ 000000018006d6f8     crypto_generichash.obj
 0002:0000f718       ??_C@_0BJ@LEBCEGPL@crypto_generichash_bytes?$AA@ 000000018006d718     crypto_generichash.obj
 0002:0000f738       ??_C@_0BN@FOPPKGNA@crypto_generichash_bytes_min?$AA@ 000000018006d738     crypto_generichash.obj
 0002:0000f758       ??_C@_0BN@EMHEECLP@crypto_generichash_bytes_max?$AA@ 000000018006d758     crypto_generichash.obj
 0002:0000f778       ??_C@_0BM@PDINMKJN@crypto_generichash_keybytes?$AA@ 000000018006d778     crypto_generichash.obj
 0002:0000f798       ??_C@_0CA@LGPMKOAN@crypto_generichash_keybytes_min?$AA@ 000000018006d798     crypto_generichash.obj
 0002:0000f7b8       ??_C@_0CA@KEHHEKGC@crypto_generichash_keybytes_max?$AA@ 000000018006d7b8     crypto_generichash.obj
 0002:0000f7e0       ??_C@_0GF@BCBLDAIM@argument?5state?5must?5be?5crypto_ge@ 000000018006d7e0     crypto_generichash_blake2b.obj
 0002:0000f848       ??_C@_0CF@GPAGPKKD@argument?5?$CCpersonal?$CC?5must?5be?5a?5bu@ 000000018006d848     crypto_generichash_blake2b.obj
 0002:0000f870       ??_C@_0EC@GBMJNAE@arguments?5must?5five?5buffers?3?5out@ 000000018006d870     crypto_generichash_blake2b.obj
 0002:0000f8b8       ??_C@_0BL@LEGMMGHJ@crypto_generichash_blake2b?$AA@ 000000018006d8b8     crypto_generichash_blake2b.obj
 0002:0000f8e0       ??_C@_0EE@EPEAFNPH@argument?5personal?5must?5be?516U?5by@ 000000018006d8e0     crypto_generichash_blake2b.obj
 0002:0000f928       ??_C@_0CC@ONLNCGHC@crypto_generichash_blake2b_updat@ 000000018006d928     crypto_generichash_blake2b.obj
 0002:0000f950       ??_C@_0CA@NINGAJOP@crypto_generichash_blake2b_init?$AA@ 000000018006d950     crypto_generichash_blake2b.obj
 0002:0000f970       ??_C@_0CJ@FBNIFCEM@crypto_generichash_blake2b_salt_@ 000000018006d970     crypto_generichash_blake2b.obj
 0002:0000f9a0       ??_C@_0CB@DNGJDKKM@crypto_generichash_blake2b_final@ 000000018006d9a0     crypto_generichash_blake2b.obj
 0002:0000f9c8       ??_C@_0CG@GLIJDNAF@crypto_generichash_blake2b_state@ 000000018006d9c8     crypto_generichash_blake2b.obj
 0002:0000f9f0       ??_C@_0CC@MKEMEOKK@crypto_generichash_blake2b_keyge@ 000000018006d9f0     crypto_generichash_blake2b.obj
 0002:0000fa18       ??_C@_0CF@LCMONCAA@crypto_generichash_blake2b_BYTES@ 000000018006da18     crypto_generichash_blake2b.obj
 0002:0000fa40       ??_C@_0CB@PIHJBJMP@crypto_generichash_blake2b_BYTES@ 000000018006da40     crypto_generichash_blake2b.obj
 0002:0000fa68       ??_C@_0CE@DKFHLDKK@crypto_generichash_blake2b_KEYBY@ 000000018006da68     crypto_generichash_blake2b.obj
 0002:0000fa90       ??_C@_0CF@KAEFDGGP@crypto_generichash_blake2b_BYTES@ 000000018006da90     crypto_generichash_blake2b.obj
 0002:0000fab8       ??_C@_0CI@GDPEDFI@crypto_generichash_blake2b_KEYBY@ 000000018006dab8     crypto_generichash_blake2b.obj
 0002:0000fae0       ??_C@_0CI@BELEKHDH@crypto_generichash_blake2b_KEYBY@ 000000018006dae0     crypto_generichash_blake2b.obj
 0002:0000fb08       ??_C@_0CJ@JMNDDMIC@crypto_generichash_blake2b_PERSO@ 000000018006db08     crypto_generichash_blake2b.obj
 0002:0000fb38       ??_C@_0CF@JPOAMMKI@crypto_generichash_blake2b_SALTB@ 000000018006db38     crypto_generichash_blake2b.obj
 0002:0000fb60       ??_C@_0CF@EDPOMAPD@crypto_generichash_blake2b_bytes@ 000000018006db60     crypto_generichash_blake2b.obj
 0002:0000fb88       ??_C@_0CB@DDOPPOIB@crypto_generichash_blake2b_bytes@ 000000018006db88     crypto_generichash_blake2b.obj
 0002:0000fbb0       ??_C@_0CE@EFPLININ@crypto_generichash_blake2b_keyby@ 000000018006dbb0     crypto_generichash_blake2b.obj
 0002:0000fbd8       ??_C@_0CF@FBHFCEJM@crypto_generichash_blake2b_bytes@ 000000018006dbd8     crypto_generichash_blake2b.obj
 0002:0000fc00       ??_C@_0CI@NKNMEOHB@crypto_generichash_blake2b_keyby@ 000000018006dc00     crypto_generichash_blake2b.obj
 0002:0000fc28       ??_C@_0CI@MIFHKKBO@crypto_generichash_blake2b_keyby@ 000000018006dc28     crypto_generichash_blake2b.obj
 0002:0000fc50       ??_C@_0CJ@EMJFGGHH@crypto_generichash_blake2b_perso@ 000000018006dc50     crypto_generichash_blake2b.obj
 0002:0000fc80       ??_C@_0CF@KPBBPBFP@crypto_generichash_blake2b_saltb@ 000000018006dc80     crypto_generichash_blake2b.obj
 0002:0000fca8       ??_C@_0BK@KHOOIAPL@crypto_onetimeauth_verify?$AA@ 000000018006dca8     crypto_onetimeauth.obj
 0002:0000fcc8       ??_C@_0BD@DKBAHOKL@crypto_onetimeauth?$AA@ 000000018006dcc8     crypto_onetimeauth.obj
 0002:0000fce0       ??_C@_0BK@BGNMGJMA@crypto_onetimeauth_update?$AA@ 000000018006dce0     crypto_onetimeauth.obj
 0002:0000fd00       ??_C@_0BI@LMOGHFC@crypto_onetimeauth_init?$AA@ 000000018006dd00     crypto_onetimeauth.obj
 0002:0000fd18       ??_C@_0BK@DBCNABBI@crypto_onetimeauth_keygen?$AA@ 000000018006dd18     crypto_onetimeauth.obj
 0002:0000fd38       ??_C@_0BJ@IIGKONPD@crypto_onetimeauth_final?$AA@ 000000018006dd38     crypto_onetimeauth.obj
 0002:0000fd58       ??_C@_0BM@KMHNIPA@crypto_onetimeauth_KEYBYTES?$AA@ 000000018006dd58     crypto_onetimeauth.obj
 0002:0000fd78       ??_C@_0BJ@ENHKMOJA@crypto_onetimeauth_BYTES?$AA@ 000000018006dd78     crypto_onetimeauth.obj
 0002:0000fd98       ??_C@_0BN@OCGOOFCJ@crypto_onetimeauth_PRIMITIVE?$AA@ 000000018006dd98     crypto_onetimeauth.obj
 0002:0000fdb8       ??_C@_08HICAABFE@poly1305?$AA@ 000000018006ddb8     crypto_onetimeauth.obj
 0002:0000fdd0       ??_C@_0EB@BFEIBEMP@argument?5token?5must?5be?516U?5bytes@ 000000018006ddd0     crypto_onetimeauth_poly1305.obj
 0002:0000fe20       ??_C@_0GG@CGOEPPNM@argument?5state?5must?5be?5crypto_on@ 000000018006de20     crypto_onetimeauth_poly1305.obj
 0002:0000fe88       ??_C@_0BO@CNFNFABG@argument?5key?5must?5be?5a?5buffer?$AA@ 000000018006de88     crypto_onetimeauth_poly1305.obj
 0002:0000fea8       ??_C@_0BM@DENNBAFG@crypto_onetimeauth_poly1305?$AA@ 000000018006dea8     crypto_onetimeauth_poly1305.obj
 0002:0000fec8       ??_C@_0CA@EPMAHOBB@arguments?5must?5be?3?5state?5buffer?$AA@ 000000018006dec8     crypto_onetimeauth_poly1305.obj
 0002:0000fee8       ??_C@_0CB@GHGHFLBD@crypto_onetimeauth_poly1305_init@ 000000018006dee8     crypto_onetimeauth_poly1305.obj
 0002:0000ff10       ??_C@_0CD@GBODOOJB@crypto_onetimeauth_poly1305_veri@ 000000018006df10     crypto_onetimeauth_poly1305.obj
 0002:0000ff38       ??_C@_0CC@IJNNDFMJ@crypto_onetimeauth_poly1305_fina@ 000000018006df38     crypto_onetimeauth_poly1305.obj
 0002:0000ff60       ??_C@_0CD@NANBAHKK@crypto_onetimeauth_poly1305_upda@ 000000018006df60     crypto_onetimeauth_poly1305.obj
 0002:0000ff88       ??_C@_0CF@EAHDOPKI@crypto_onetimeauth_poly1305_keyb@ 000000018006df88     crypto_onetimeauth_poly1305.obj
 0002:0000ffb0       ??_C@_0CC@IHFLPBOE@crypto_onetimeauth_poly1305_byte@ 000000018006dfb0     crypto_onetimeauth_poly1305.obj
 0002:0000ffd8       ??_C@_0CH@CAMGOIBO@crypto_onetimeauth_poly1305_stat@ 000000018006dfd8     crypto_onetimeauth_poly1305.obj
 0002:00010000       ??_C@_0CD@PHCAGPHC@crypto_onetimeauth_poly1305_keyg@ 000000018006e000     crypto_onetimeauth_poly1305.obj
 0002:00010028       ??_C@_0CF@DPNPNBIP@crypto_onetimeauth_poly1305_KEYB@ 000000018006e028     crypto_onetimeauth_poly1305.obj
 0002:00010050       ??_C@_0CC@EMMNBGKK@crypto_onetimeauth_poly1305_BYTE@ 000000018006e050     crypto_onetimeauth_poly1305.obj
 0002:00010078       ??_C@_08JDDNMFDB@node?4exe?$AA@ 000000018006e078     win_delay_load_hook.obj
 0002:00010088       ??_C@_08HCOMDCCD@iojs?4exe?$AA@ 000000018006e088     win_delay_load_hook.obj
 0002:00010098       __pfnDliNotifyHook2        000000018006e098     win_delay_load_hook.obj
 0002:00010500       __real@3ff0000000000000    000000018006e500     crypto_pwhash.obj
 0002:00010508       __real@4000000000000000    000000018006e508     crypto_pwhash.obj
 0002:00010510       __real@4008000000000000    000000018006e510     crypto_pwhash_algos.obj
 0002:00010518       __real@4010000000000000    000000018006e518     crypto_pwhash.obj
 0002:00010520       __real@4018000000000000    000000018006e520     crypto_pwhash_algos.obj
 0002:00010528       __real@4020000000000000    000000018006e528     crypto_shorthash_siphash24.obj
 0002:00010530       __real@4028000000000000    000000018006e530     crypto_streams.obj
 0002:00010538       __real@4030000000000000    000000018006e538     crypto_onetimeauth.obj
 0002:00010540       __real@4038000000000000    000000018006e540     crypto_stream.obj
 0002:00010548       __real@4040000000000000    000000018006e548     crypto_onetimeauth.obj
 0002:00010550       __real@4048000000000000    000000018006e550     crypto_box.obj
 0002:00010558       __real@4050000000000000    000000018006e558     crypto_hash_sha512.obj
 0002:00010560       __real@4059800000000000    000000018006e560     crypto_pwhash_algos.obj
 0002:00010568       __real@4060000000000000    000000018006e568     crypto_pwhash.obj
 0002:00010570       __real@40c0000000000000    000000018006e570     crypto_pwhash.obj
 0002:00010578       __real@40e0000000000000    000000018006e578     crypto_pwhash_algos.obj
 0002:00010580       __real@4120000000000000    000000018006e580     crypto_pwhash_algos.obj
 0002:00010588       __real@4170000000000000    000000018006e588     crypto_pwhash_algos.obj
 0002:00010590       __real@4180000000000000    000000018006e590     crypto_pwhash_algos.obj
 0002:00010598       __real@4190000000000000    000000018006e598     crypto_pwhash.obj
 0002:000105a0       __real@41a0000000000000    000000018006e5a0     crypto_pwhash_algos.obj
 0002:000105a8       __real@41b0000000000000    000000018006e5a8     crypto_pwhash_algos.obj
 0002:000105b0       __real@41c0000000000000    000000018006e5b0     crypto_pwhash_algos.obj
 0002:000105b8       __real@41d0000000000000    000000018006e5b8     crypto_pwhash.obj
 0002:000105c0       __real@41efffffffe00000    000000018006e5c0     crypto_pwhash.obj
 0002:000105c8       __real@4230000000000000    000000018006e5c8     crypto_pwhash_algos.obj
 0002:000105d0       __real@423fffffffe00000    000000018006e5d0     crypto_pwhash_algos.obj
 0002:000105d8       __real@428fffffffe00000    000000018006e5d8     crypto_pwhash.obj
 0002:000105e0       __real@43f0000000000000    000000018006e5e0     crypto_onetimeauth_poly1305.obj
 0002:00011b00       ??_R4exception@std@@6B@    000000018006fb00     libcpmt:xthrow.obj
 0002:00011b28       ??_R3exception@std@@8      000000018006fb28     libcpmt:xthrow.obj
 0002:00011b40       ??_R2exception@std@@8      000000018006fb40     libcpmt:xthrow.obj
 0002:00011b50       ??_R1A@?0A@EA@exception@std@@8 000000018006fb50     libcpmt:xthrow.obj
 0002:00011b78       ??_R4bad_alloc@std@@6B@    000000018006fb78     libcpmt:xthrow.obj
 0002:00011ba0       ??_R3bad_alloc@std@@8      000000018006fba0     libcpmt:xthrow.obj
 0002:00011bb8       ??_R2bad_alloc@std@@8      000000018006fbb8     libcpmt:xthrow.obj
 0002:00011bd0       ??_R1A@?0A@EA@bad_alloc@std@@8 000000018006fbd0     libcpmt:xthrow.obj
 0002:00011bf8       ??_R4logic_error@std@@6B@  000000018006fbf8     libcpmt:xthrow.obj
 0002:00011c20       ??_R3logic_error@std@@8    000000018006fc20     libcpmt:xthrow.obj
 0002:00011c38       ??_R2logic_error@std@@8    000000018006fc38     libcpmt:xthrow.obj
 0002:00011c50       ??_R1A@?0A@EA@logic_error@std@@8 000000018006fc50     libcpmt:xthrow.obj
 0002:00011c78       ??_R4length_error@std@@6B@ 000000018006fc78     libcpmt:xthrow.obj
 0002:00011ca0       ??_R3length_error@std@@8   000000018006fca0     libcpmt:xthrow.obj
 0002:00011cb8       ??_R2length_error@std@@8   000000018006fcb8     libcpmt:xthrow.obj
 0002:00011cd8       ??_R1A@?0A@EA@length_error@std@@8 000000018006fcd8     libcpmt:xthrow.obj
 0002:00011d00       ??_R4type_info@@6B@        000000018006fd00     LIBCMT:std_type_info_static.obj
 0002:00011d28       ??_R3type_info@@8          000000018006fd28     LIBCMT:std_type_info_static.obj
 0002:00011d40       ??_R2type_info@@8          000000018006fd40     LIBCMT:std_type_info_static.obj
 0002:00011d50       ??_R1A@?0A@EA@type_info@@8 000000018006fd50     LIBCMT:std_type_info_static.obj
 0002:00011d78       ??_R4bad_array_new_length@std@@6B@ 000000018006fd78     LIBCMT:throw_bad_alloc.obj
 0002:00011da0       ??_R3bad_array_new_length@std@@8 000000018006fda0     LIBCMT:throw_bad_alloc.obj
 0002:00011db8       ??_R2bad_array_new_length@std@@8 000000018006fdb8     LIBCMT:throw_bad_alloc.obj
 0002:00011dd8       ??_R1A@?0A@EA@bad_array_new_length@std@@8 000000018006fdd8     LIBCMT:throw_bad_alloc.obj
 0002:00011e00       ??_R4bad_exception@std@@6B@ 000000018006fe00     libvcruntime:frame.obj
 0002:00011e28       ??_R3bad_exception@std@@8  000000018006fe28     libvcruntime:frame.obj
 0002:00011e40       ??_R2bad_exception@std@@8  000000018006fe40     libvcruntime:frame.obj
 0002:00011e58       ??_R1A@?0A@EA@bad_exception@std@@8 000000018006fe58     libvcruntime:frame.obj
 0002:00012248       __rtc_iaa                  0000000180070248     LIBCMT:_initsect_.obj
 0002:00012250       __rtc_izz                  0000000180070250     LIBCMT:_initsect_.obj
 0002:00012258       __rtc_taa                  0000000180070258     LIBCMT:_initsect_.obj
 0002:00012260       __rtc_tzz                  0000000180070260     LIBCMT:_initsect_.obj
 0002:00019a00       _TI2?AVbad_alloc@std@@     0000000180077a00     libcpmt:xthrow.obj
 0002:00019a20       _CTA2?AVbad_alloc@std@@    0000000180077a20     libcpmt:xthrow.obj
 0002:00019a38       _CT??_R0?AVbad_alloc@std@@@8??0bad_alloc@std@@QEAA@AEBV01@@Z24 0000000180077a38     libcpmt:xthrow.obj
 0002:00019a60       _CT??_R0?AVexception@std@@@8??0exception@std@@QEAA@AEBV01@@Z24 0000000180077a60     libcpmt:xthrow.obj
 0002:00019a88       _CT??_R0?AVlogic_error@std@@@8??0logic_error@std@@QEAA@AEBV01@@Z24 0000000180077a88     libcpmt:xthrow.obj
 0002:00019ab0       _TI3?AVlength_error@std@@  0000000180077ab0     libcpmt:xthrow.obj
 0002:00019ad0       _CTA3?AVlength_error@std@@ 0000000180077ad0     libcpmt:xthrow.obj
 0002:00019af0       _CT??_R0?AVlength_error@std@@@8??0length_error@std@@QEAA@AEBV01@@Z24 0000000180077af0     libcpmt:xthrow.obj
 0002:00019b18       _TI3?AVbad_array_new_length@std@@ 0000000180077b18     LIBCMT:throw_bad_alloc.obj
 0002:00019b38       _CTA3?AVbad_array_new_length@std@@ 0000000180077b38     LIBCMT:throw_bad_alloc.obj
 0002:00019b58       _CT??_R0?AVbad_array_new_length@std@@@8??0bad_array_new_length@std@@QEAA@AEBV01@@Z24 0000000180077b58     LIBCMT:throw_bad_alloc.obj
 0002:00019b80       _TI2?AVbad_exception@std@@ 0000000180077b80     libvcruntime:frame.obj
 0002:00019ba0       _CTA2?AVbad_exception@std@@ 0000000180077ba0     libvcruntime:frame.obj
 0002:00019bb8       _CT??_R0?AVbad_exception@std@@@8??0bad_exception@std@@QEAA@AEBV01@@Z24 0000000180077bb8     libvcruntime:frame.obj
 0002:00019be0       _TI4?AVError@Napi@@        0000000180077be0     crypto_aead.obj
 0002:00019c00       _CT??_R0?AVObjectReference@Napi@@@82416 0000000180077c00     crypto_aead.obj
 0002:00019c28       _CT??_R0?AVError@Napi@@@872 0000000180077c28     crypto_aead.obj
 0002:00019c50       _CT??_R0?AV?$Reference@VObject@Napi@@@Napi@@@82416 0000000180077c50     crypto_aead.obj
 0002:00019c78       _CTA4?AVError@Napi@@       0000000180077c78     crypto_aead.obj
 0002:00019ca0       _CT??_R0?AVexception@stdext@@@816 0000000180077ca0     crypto_aead.obj
 0002:00019cc4       __DELAY_IMPORT_DESCRIPTOR_node_exe 0000000180077cc4     node:node.exe
 0002:00019ce4       __NULL_DELAY_IMPORT_DESCRIPTOR 0000000180077ce4     node:node.exe
 0002:00019e28       \177node_NULL_THUNK_DATA_DLN 0000000180077e28     node:node.exe
 0002:0001a1a0       \177node_NULL_THUNK_DATA_DLB 00000001800781a0     node:node.exe
 0002:0001a310       __IMPORT_DESCRIPTOR_KERNEL32 0000000180078310     kernel32:KERNEL32.dll
 0002:0001a324       __IMPORT_DESCRIPTOR_libsodium 0000000180078324     libsodium:libsodium.dll
 0002:0001a338       __NULL_IMPORT_DESCRIPTOR   0000000180078338     kernel32:KERNEL32.dll
 0003:00000000       __security_cookie          000000018007d000     LIBCMT:gs_cookie.obj
 0003:00000008       __security_cookie_complement 000000018007d008     LIBCMT:gs_cookie.obj
 0003:00000010       __scrt_native_dllmain_reason 000000018007d010     LIBCMT:utility.obj
 0003:00000018       __isa_available            000000018007d018     LIBCMT:_cpu_disp_.obj
 0003:0000001c       __isa_enabled              000000018007d01c     LIBCMT:_cpu_disp_.obj
 0003:00000020       __memcpy_nt_iters          000000018007d020     LIBCMT:_cpu_disp_.obj
 0003:00000040       __abort_behavior           000000018007d040     libucrt:abort.obj
 0003:00000050       __acrt_initial_locale_data 000000018007d050     libucrt:nlsdata.obj
 0003:000001a8       __acrt_initial_locale_pointers 000000018007d1a8     libucrt:nlsdata.obj
 0003:000001b8       __acrt_wide_c_locale_string 000000018007d1b8     libucrt:nlsdata.obj
 0003:000001c0       __acrt_initial_multibyte_data 000000018007d1c0     libucrt:mbctype.obj
 0003:000003e8       __acrt_current_multibyte_data 000000018007d3e8     libucrt:mbctype.obj
 0003:000004f0       _mbctype                   000000018007d4f0     libucrt:mbctype.obj
 0003:00000600       _mbcasemap                 000000018007d600     libucrt:mbctype.obj
 0003:00000700       _iob                       000000018007d700     libucrt:_file.obj
 0003:00000808       __globallocalestatus       000000018007d808     libucrt:glstatus.obj
 0003:00000810       __acrt_lconv_c             000000018007d810     libucrt:localeconv.obj
 0003:000008a8       __acrt_lconv_static_decimal 000000018007d8a8     libucrt:localeconv.obj
 0003:000008ac       __acrt_lconv_static_W_decimal 000000018007d8ac     libucrt:localeconv.obj
 0003:000008b0       __dcrt_lowio_console_output_handle 000000018007d8b0     libucrt:initcon.obj
 0003:000008d0       _fltused                   000000018007d8d0     LIBCMT:fltused.obj
 0003:00000928       ??_R0?AVbad_alloc@std@@@8  000000018007d928     libcpmt:xthrow.obj
 0003:00000950       ??_R0?AVexception@std@@@8  000000018007d950     libcpmt:xthrow.obj
 0003:00000978       ??_R0?AVlogic_error@std@@@8 000000018007d978     libcpmt:xthrow.obj
 0003:000009a0       ??_R0?AVlength_error@std@@@8 000000018007d9a0     libcpmt:xthrow.obj
 0003:000009c8       ??_R0?AVtype_info@@@8      000000018007d9c8     LIBCMT:std_type_info_static.obj
 0003:000009e8       ??_R0?AVbad_array_new_length@std@@@8 000000018007d9e8     LIBCMT:throw_bad_alloc.obj
 0003:00000a18       ??_R0?AVbad_exception@std@@@8 000000018007da18     libvcruntime:frame.obj
 0003:00000a40       ??_R0?AVexception@stdext@@@8 000000018007da40     crypto_aead.obj
 0003:00000a68       ??_R0?AVObjectReference@Napi@@@8 000000018007da68     crypto_aead.obj
 0003:00000a98       ??_R0?AV?$Reference@VObject@Napi@@@Napi@@@8 000000018007da98     crypto_aead.obj
 0003:00000ad0       ??_R0?AVError@Napi@@@8     000000018007dad0     crypto_aead.obj
 0003:00000af8       __imp_napi_create_function 000000018007daf8     node:node.exe
 0003:00000b00       __imp_napi_open_handle_scope 000000018007db00     node:node.exe
 0003:00000b08       __imp_napi_get_boolean     000000018007db08     node:node.exe
 0003:00000b10       __imp_napi_get_last_error_info 000000018007db10     node:node.exe
 0003:00000b18       __imp_napi_create_error    000000018007db18     node:node.exe
 0003:00000b20       __imp_napi_is_buffer       000000018007db20     node:node.exe
 0003:00000b28       __imp_napi_get_null        000000018007db28     node:node.exe
 0003:00000b30       __imp_napi_delete_reference 000000018007db30     node:node.exe
 0003:00000b38       __imp_napi_fatal_error     000000018007db38     node:node.exe
 0003:00000b40       __imp_napi_is_exception_pending 000000018007db40     node:node.exe
 0003:00000b48       __imp_napi_create_symbol   000000018007db48     node:node.exe
 0003:00000b50       __imp_napi_get_value_string_utf8 000000018007db50     node:node.exe
 0003:00000b58       __imp_napi_close_escapable_handle_scope 000000018007db58     node:node.exe
 0003:00000b60       __imp_napi_escape_handle   000000018007db60     node:node.exe
 0003:00000b68       __imp_napi_get_buffer_info 000000018007db68     node:node.exe
 0003:00000b70       __imp_napi_create_type_error 000000018007db70     node:node.exe
 0003:00000b78       __imp_napi_create_external 000000018007db78     node:node.exe
 0003:00000b80       __imp_napi_create_string_utf8 000000018007db80     node:node.exe
 0003:00000b88       __imp_napi_create_buffer   000000018007db88     node:node.exe
 0003:00000b90       __imp_napi_get_named_property 000000018007db90     node:node.exe
 0003:00000b98       __imp_napi_define_properties 000000018007db98     node:node.exe
 0003:00000ba0       __imp_napi_typeof          000000018007dba0     node:node.exe
 0003:00000ba8       __imp_napi_throw           000000018007dba8     node:node.exe
 0003:00000bb0       __imp_napi_get_and_clear_last_exception 000000018007dbb0     node:node.exe
 0003:00000bb8       __imp_napi_create_object   000000018007dbb8     node:node.exe
 0003:00000bc0       __imp_napi_get_undefined   000000018007dbc0     node:node.exe
 0003:00000bc8       __imp_napi_get_typedarray_info 000000018007dbc8     node:node.exe
 0003:00000bd0       __imp_napi_set_property    000000018007dbd0     node:node.exe
 0003:00000bd8       __imp_napi_get_cb_info     000000018007dbd8     node:node.exe
 0003:00000be0       __imp_napi_open_escapable_handle_scope 000000018007dbe0     node:node.exe
 0003:00000be8       __imp_napi_create_reference 000000018007dbe8     node:node.exe
 0003:00000bf0       __imp_napi_close_handle_scope 000000018007dbf0     node:node.exe
 0003:00000bf8       __imp_napi_create_double   000000018007dbf8     node:node.exe
 0003:00000c00       __imp_napi_get_reference_value 000000018007dc00     node:node.exe
 0003:00000c08       __imp_napi_module_register 000000018007dc08     node:node.exe
 0003:00000c10       __imp_napi_get_value_uint32 000000018007dc10     node:node.exe
 0003:00000c18       \177node_NULL_THUNK_DATA_DLA 000000018007dc18     node:node.exe
 0003:00000c20       __hmod__node_exe           000000018007dc20     node:node.exe
 0003:000011a0       __scrt_current_native_startup_state 000000018007e1a0     LIBCMT:utility.obj
 0003:000011a8       __scrt_native_startup_lock 000000018007e1a8     LIBCMT:utility.obj
 0003:000011f0       ?__type_info_root_node@@3U__type_info_node@@A 000000018007e1f0     LIBCMT:tncleanup.obj
 0003:00001200       ?_OptionsStorage@?1??__local_stdio_printf_options@@9@4_KA 000000018007e200     LIBCMT:default_local_stdio_options.obj
 0003:00001208       ?_OptionsStorage@?1??__local_stdio_scanf_options@@9@4_KA 000000018007e208     LIBCMT:default_local_stdio_options.obj
 0003:00001210       __scrt_debugger_hook_flag  000000018007e210     LIBCMT:utility_desktop.obj
 0003:00001214       __favor                    000000018007e214     LIBCMT:_cpu_disp_.obj
 0003:00001218       ?g_OutOfMemoryExceptionCallback@@3P6APEAXXZEA 000000018007e218     libvcruntime:frame.obj
 0003:00001338       __pPurecall                000000018007e338     libvcruntime:purevirt_data.obj
 0003:00001340       ?pArgList@UnDecorator@@0PEAVReplicator@@EA 000000018007e340     libvcruntime:undname.obj
 0003:00001348       ?pZNameList@UnDecorator@@0PEAVReplicator@@EA 000000018007e348     libvcruntime:undname.obj
 0003:00001350       ?pTemplateArgList@UnDecorator@@0PEAVReplicator@@EA 000000018007e350     libvcruntime:undname.obj
 0003:00001358       ?gName@UnDecorator@@0PEBDEB 000000018007e358     libvcruntime:undname.obj
 0003:00001360       ?name@UnDecorator@@0PEBDEB 000000018007e360     libvcruntime:undname.obj
 0003:00001368       ?outputString@UnDecorator@@0PEADEA 000000018007e368     libvcruntime:undname.obj
 0003:00001370       ?maxStringLength@UnDecorator@@0HA 000000018007e370     libvcruntime:undname.obj
 0003:00001374       ?disableFlags@UnDecorator@@0KA 000000018007e374     libvcruntime:undname.obj
 0003:00001378       ?fExplicitTemplateParams@UnDecorator@@0_NA 000000018007e378     libvcruntime:undname.obj
 0003:00001379       ?fGetTemplateArgumentList@UnDecorator@@0_NA 000000018007e379     libvcruntime:undname.obj
 0003:00001380       ?m_pGetParameter@UnDecorator@@0P6APEADJ@ZEA 000000018007e380     libvcruntime:undname.obj
 0003:000014e8       _environ_table             000000018007e4e8     libucrt:environment_initialization.obj
 0003:000014f0       _wenviron_table            000000018007e4f0     libucrt:environment_initialization.obj
 0003:000014f8       __dcrt_initial_wide_environment 000000018007e4f8     libucrt:environment_initialization.obj
 0003:00001500       __dcrt_initial_narrow_environment 000000018007e500     libucrt:environment_initialization.obj
 0003:00001508       __acrt_atexit_table        000000018007e508     libucrt:onexit.obj
 0003:00001520       __acrt_at_quick_exit_table 000000018007e520     libucrt:onexit.obj
 0003:00001538       __acrt_locale_changed_data 000000018007e538     libucrt:wsetlocale.obj
 0003:00001540       __acrt_current_locale_data 000000018007e540     libucrt:nlsdata.obj
 0003:00001904       __mbcodepage               000000018007e904     libucrt:mbctype.obj
 0003:00001908       __ismbcodepage             000000018007e908     libucrt:mbctype.obj
 0003:00001910       __mbulinfo                 000000018007e910     libucrt:mbctype.obj
 0003:00001920       __mblocalename             000000018007e920     libucrt:mbctype.obj
 0003:0000192c       __argc                     000000018007e92c     libucrt:argv_data.obj
 0003:00001930       __argv                     000000018007e930     libucrt:argv_data.obj
 0003:00001938       __wargv                    000000018007e938     libucrt:argv_data.obj
 0003:00001940       _acmdln                    000000018007e940     libucrt:argv_data.obj
 0003:00001948       _wcmdln                    000000018007e948     libucrt:argv_data.obj
 0003:00001950       _pgmptr                    000000018007e950     libucrt:argv_data.obj
 0003:00001958       __acrt_heap                000000018007e958     libucrt:heap_handle.obj
 0003:00001960       __pioinfo                  000000018007e960     libucrt:ioinit.obj
 0003:00001d60       _nhandle                   000000018007ed60     libucrt:ioinit.obj
 0003:00001d90       __acrt_stdout_buffer       000000018007ed90     libucrt:_sftbuf.obj
 0003:00001d98       __acrt_stderr_buffer       000000018007ed98     libucrt:_sftbuf.obj
 0003:00001da8       _nstream                   000000018007eda8     libucrt:_file.obj
 0003:00001db0       __piob                     000000018007edb0     libucrt:_file.obj
 0003:00001db8       __acrt_lconv_static_null   000000018007edb8     libucrt:localeconv.obj
 0003:00001dbc       __acrt_lconv_static_W_null 000000018007edbc     libucrt:localeconv.obj
 0003:00001dc4       __fma3_is_available        000000018007edc4     libucrt:fma3_available.obj
 0003:00001dc8       __use_fma3_lib             000000018007edc8     libucrt:fma3_available.obj
 0003:00001dd0       ?DloadKernel32@@3PEAUHINSTANCE__@@EA 000000018007edd0     DelayImp:delayhlp.obj
 0003:00001dd8       ?DloadAcquireSRWLockExclusive@@3P6AXPEA_K@ZEA 000000018007edd8     DelayImp:delayhlp.obj
 0003:00001de0       ?DloadReleaseSRWLockExclusive@@3P6AXPEA_K@ZEA 000000018007ede0     DelayImp:delayhlp.obj
 0003:00001de8       ?DloadSrwLock@@3_KA        000000018007ede8     DelayImp:delayhlp.obj
 0003:00001df0       ?DloadSectionLockCount@@3KA 000000018007edf0     DelayImp:delayhlp.obj
 0003:00001df4       ?DloadSectionOldProtection@@3KA 000000018007edf4     DelayImp:delayhlp.obj
 0003:00001df8       ?DloadSectionCommitPermanent@@3KA 000000018007edf8     DelayImp:delayhlp.obj
 0003:00001dfc       __scrt_ucrt_dll_is_in_use  000000018007edfc     <common>
 0003:00001e00       __dyn_tls_init_callback    000000018007ee00     <common>

 entry point at        0001:0004f390

 Static symbols

 0000:fff7b000       .debug$S                   0000000180000000     kernel32:KERNEL32.dll
 0000:fff7b000       .debug$S                   0000000180000000     libsodium:libsodium.dll
 0000:fff7b000       .debug$S                   0000000180000000     libsodium:libsodium.dll
 0000:fff7b000       .debug$S                   0000000180000000     libsodium:libsodium.dll
 0000:fff7b000       .debug$S                   0000000180000000     libsodium:libsodium.dll
 0000:fff7b000       .debug$S                   0000000180000000     libsodium:libsodium.dll
 0000:fff7b000       .debug$S                   0000000180000000     libsodium:libsodium.dll
 0000:fff7b000       .debug$S                   0000000180000000     libsodium:libsodium.dll
 0000:fff7b000       .debug$S                   0000000180000000     libsodium:libsodium.dll
 0000:fff7b000       .debug$S                   0000000180000000     libsodium:libsodium.dll
 0000:fff7b000       .debug$S                   0000000180000000     libsodium:libsodium.dll
 0000:fff7b000       .debug$S                   0000000180000000     libsodium:libsodium.dll
 0000:fff7b000       .debug$S                   0000000180000000     libsodium:libsodium.dll
 0000:fff7b000       .debug$S                   0000000180000000     libsodium:libsodium.dll
 0000:fff7b000       .debug$S                   0000000180000000     libsodium:libsodium.dll
 0000:fff7b000       .debug$S                   0000000180000000     libsodium:libsodium.dll
 0000:fff7b000       .debug$S                   0000000180000000     libsodium:libsodium.dll
 0000:fff7b000       .debug$S                   0000000180000000     libsodium:libsodium.dll
 0000:fff7b000       .debug$S                   0000000180000000     libsodium:libsodium.dll
 0000:fff7b000       .debug$S                   0000000180000000     libsodium:libsodium.dll
 0000:fff7b000       .debug$S                   0000000180000000     libsodium:libsodium.dll
 0000:fff7b000       .debug$S                   0000000180000000     libsodium:libsodium.dll
 0000:fff7b000       .debug$S                   0000000180000000     libsodium:libsodium.dll
 0000:fff7b000       .debug$S                   0000000180000000     libsodium:libsodium.dll
 0000:fff7b000       .debug$S                   0000000180000000     libsodium:libsodium.dll
 0000:fff7b000       .debug$S                   0000000180000000     libsodium:libsodium.dll
 0000:fff7b000       .debug$S                   0000000180000000     libsodium:libsodium.dll
 0000:fff7b000       .debug$S                   0000000180000000     libsodium:libsodium.dll
 0000:fff7b000       .debug$S                   0000000180000000     libsodium:libsodium.dll
 0000:fff7b000       .debug$S                   0000000180000000     libsodium:libsodium.dll
 0000:fff7b000       .debug$S                   0000000180000000     libsodium:libsodium.dll
 0000:fff7b000       .debug$S                   0000000180000000     libsodium:libsodium.dll
 0000:fff7b000       .debug$S                   0000000180000000     libsodium:libsodium.dll
 0000:fff7b000       .debug$S                   0000000180000000     libsodium:libsodium.dll
 0000:fff7b000       .debug$S                   0000000180000000     libsodium:libsodium.dll
 0000:fff7b000       .debug$S                   0000000180000000     libsodium:libsodium.dll
 0000:fff7b000       .debug$S                   0000000180000000     libsodium:libsodium.dll
 0000:fff7b000       .debug$S                   0000000180000000     libsodium:libsodium.dll
 0000:fff7b000       .debug$S                   0000000180000000     libsodium:libsodium.dll
 0000:fff7b000       .debug$S                   0000000180000000     libsodium:libsodium.dll
 0000:fff7b000       .debug$S                   0000000180000000     libsodium:libsodium.dll
 0000:fff7b000       .debug$S                   0000000180000000     libsodium:libsodium.dll
 0000:fff7b000       .debug$S                   0000000180000000     libsodium:libsodium.dll
 0000:fff7b000       .debug$S                   0000000180000000     libsodium:libsodium.dll
 0000:fff7b000       .debug$S                   0000000180000000     libsodium:libsodium.dll
 0000:fff7b000       .debug$S                   0000000180000000     libsodium:libsodium.dll
 0000:fff7b000       .debug$S                   0000000180000000     libsodium:libsodium.dll
 0000:fff7b000       .debug$S                   0000000180000000     libsodium:libsodium.dll
 0000:fff7b000       .debug$S                   0000000180000000     libsodium:libsodium.dll
 0000:fff7b000       .debug$S                   0000000180000000     libsodium:libsodium.dll
 0000:fff7b000       .debug$S                   0000000180000000     libsodium:libsodium.dll
 0000:fff7b000       .debug$S                   0000000180000000     libsodium:libsodium.dll
 0000:fff7b000       .debug$S                   0000000180000000     libsodium:libsodium.dll
 0000:fff7b000       .debug$S                   0000000180000000     libsodium:libsodium.dll
 0000:fff7b000       .debug$S                   0000000180000000     libsodium:libsodium.dll
 0000:fff7b000       .debug$S                   0000000180000000     libsodium:libsodium.dll
 0000:fff7b000       .debug$S                   0000000180000000     libsodium:libsodium.dll
 0000:fff7b000       .debug$S                   0000000180000000     libsodium:libsodium.dll
 0000:fff7b000       .debug$S                   0000000180000000     libsodium:libsodium.dll
 0000:fff7b000       .debug$S                   0000000180000000     libsodium:libsodium.dll
 0000:fff7b000       .debug$S                   0000000180000000     libsodium:libsodium.dll
 0000:fff7b000       .debug$S                   0000000180000000     libsodium:libsodium.dll
 0000:fff7b000       .debug$S                   0000000180000000     libsodium:libsodium.dll
 0000:fff7b000       .debug$S                   0000000180000000     libsodium:libsodium.dll
 0000:fff7b000       .debug$S                   0000000180000000     libsodium:libsodium.dll
 0000:fff7b000       .debug$S                   0000000180000000     libsodium:libsodium.dll
 0000:fff7b000       .debug$S                   0000000180000000     libsodium:libsodium.dll
 0000:fff7b000       .debug$S                   0000000180000000     libsodium:libsodium.dll
 0000:fff7b000       .debug$S                   0000000180000000     libsodium:libsodium.dll
 0000:fff7b000       .debug$S                   0000000180000000     libsodium:libsodium.dll
 0000:fff7b000       .debug$S                   0000000180000000     libsodium:libsodium.dll
 0000:fff7b000       .debug$S                   0000000180000000     libsodium:libsodium.dll
 0000:fff7b000       .debug$S                   0000000180000000     libsodium:libsodium.dll
 0000:fff7b000       .debug$S                   0000000180000000     libsodium:libsodium.dll
 0000:fff7b000       .debug$S                   0000000180000000     libsodium:libsodium.dll
 0000:fff7b000       .debug$S                   0000000180000000     libsodium:libsodium.dll
 0000:fff7b000       .debug$S                   0000000180000000     libsodium:libsodium.dll
 0000:fff7b000       .debug$S                   0000000180000000     libsodium:libsodium.dll
 0000:fff7b000       .debug$S                   0000000180000000     libsodium:libsodium.dll
 0000:fff7b000       .debug$S                   0000000180000000     libsodium:libsodium.dll
 0000:fff7b000       .debug$S                   0000000180000000     libsodium:libsodium.dll
 0000:fff7b000       .debug$S                   0000000180000000     libsodium:libsodium.dll
 0000:fff7b000       .debug$S                   0000000180000000     libsodium:libsodium.dll
 0000:fff7b000       .debug$S                   0000000180000000     libsodium:libsodium.dll
 0000:fff7b000       .debug$S                   0000000180000000     libsodium:libsodium.dll
 0000:fff7b000       .debug$S                   0000000180000000     libsodium:libsodium.dll
 0000:fff7b000       .debug$S                   0000000180000000     libsodium:libsodium.dll
 0000:fff7b000       .debug$S                   0000000180000000     libsodium:libsodium.dll
 0000:fff7b000       .debug$S                   0000000180000000     libsodium:libsodium.dll
 0000:fff7b000       .debug$S                   0000000180000000     libsodium:libsodium.dll
 0000:fff7b000       .debug$S                   0000000180000000     libsodium:libsodium.dll
 0000:fff7b000       .debug$S                   0000000180000000     libsodium:libsodium.dll
 0000:fff7b000       .debug$S                   0000000180000000     libsodium:libsodium.dll
 0000:fff7b000       .debug$S                   0000000180000000     libsodium:libsodium.dll
 0000:fff7b000       .debug$S                   0000000180000000     libsodium:libsodium.dll
 0000:fff7b000       .debug$S                   0000000180000000     libsodium:libsodium.dll
 0000:fff7b000       .debug$S                   0000000180000000     libsodium:libsodium.dll
 0000:fff7b000       .debug$S                   0000000180000000     libsodium:libsodium.dll
 0000:fff7b000       .debug$S                   0000000180000000     libsodium:libsodium.dll
 0000:fff7b000       .debug$S                   0000000180000000     libsodium:libsodium.dll
 0000:fff7b000       .debug$S                   0000000180000000     libsodium:libsodium.dll
 0000:fff7b000       .debug$S                   0000000180000000     libsodium:libsodium.dll
 0000:fff7b000       .debug$S                   0000000180000000     libsodium:libsodium.dll
 0000:fff7b000       .debug$S                   0000000180000000     libsodium:libsodium.dll
 0000:fff7b000       .debug$S                   0000000180000000     libsodium:libsodium.dll
 0000:fff7b000       .debug$S                   0000000180000000     libsodium:libsodium.dll
 0000:fff7b000       .debug$S                   0000000180000000     libsodium:libsodium.dll
 0000:fff7b000       .debug$S                   0000000180000000     libsodium:libsodium.dll
 0000:fff7b000       .debug$S                   0000000180000000     libsodium:libsodium.dll
 0000:fff7b000       .debug$S                   0000000180000000     libsodium:libsodium.dll
 0000:fff7b000       .debug$S                   0000000180000000     libsodium:libsodium.dll
 0000:fff7b000       .debug$S                   0000000180000000     libsodium:libsodium.dll
 0000:fff7b000       .debug$S                   0000000180000000     libsodium:libsodium.dll
 0000:fff7b000       .debug$S                   0000000180000000     libsodium:libsodium.dll
 0000:fff7b000       .debug$S                   0000000180000000     libsodium:libsodium.dll
 0000:fff7b000       .debug$S                   0000000180000000     libsodium:libsodium.dll
 0000:fff7b000       .debug$S                   0000000180000000     libsodium:libsodium.dll
 0000:fff7b000       .debug$S                   0000000180000000     libsodium:libsodium.dll
 0000:fff7b000       .debug$S                   0000000180000000     libsodium:libsodium.dll
 0000:fff7b000       .debug$S                   0000000180000000     libsodium:libsodium.dll
 0000:fff7b000       .debug$S                   0000000180000000     libsodium:libsodium.dll
 0000:fff7b000       .debug$S                   0000000180000000     libsodium:libsodium.dll
 0000:fff7b000       .debug$S                   0000000180000000     libsodium:libsodium.dll
 0000:fff7b000       .debug$S                   0000000180000000     libsodium:libsodium.dll
 0000:fff7b000       .debug$S                   0000000180000000     libsodium:libsodium.dll
 0000:fff7b000       .debug$S                   0000000180000000     libsodium:libsodium.dll
 0000:fff7b000       .debug$S                   0000000180000000     libsodium:libsodium.dll
 0000:fff7b000       .debug$S                   0000000180000000     libsodium:libsodium.dll
 0000:fff7b000       .debug$S                   0000000180000000     libsodium:libsodium.dll
 0000:fff7b000       .debug$S                   0000000180000000     libsodium:libsodium.dll
 0000:fff7b000       .debug$S                   0000000180000000     libsodium:libsodium.dll
 0000:fff7b000       .debug$S                   0000000180000000     libsodium:libsodium.dll
 0000:fff7b000       .debug$S                   0000000180000000     libsodium:libsodium.dll
 0000:fff7b000       .debug$S                   0000000180000000     libsodium:libsodium.dll
 0000:fff7b000       .debug$S                   0000000180000000     libsodium:libsodium.dll
 0000:fff7b000       .debug$S                   0000000180000000     libsodium:libsodium.dll
 0000:fff7b000       .debug$S                   0000000180000000     libsodium:libsodium.dll
 0000:fff7b000       .debug$S                   0000000180000000     libsodium:libsodium.dll
 0000:fff7b000       .debug$S                   0000000180000000     libsodium:libsodium.dll
 0000:fff7b000       .debug$S                   0000000180000000     libsodium:libsodium.dll
 0000:fff7b000       .debug$S                   0000000180000000     libsodium:libsodium.dll
 0000:fff7b000       .debug$S                   0000000180000000     libsodium:libsodium.dll
 0000:fff7b000       .debug$S                   0000000180000000     libsodium:libsodium.dll
 0000:fff7b000       .debug$S                   0000000180000000     libsodium:libsodium.dll
 0000:fff7b000       .debug$S                   0000000180000000     libsodium:libsodium.dll
 0000:fff7b000       .debug$S                   0000000180000000     libsodium:libsodium.dll
 0000:fff7b000       .debug$S                   0000000180000000     libsodium:libsodium.dll
 0000:fff7b000       .debug$S                   0000000180000000     libsodium:libsodium.dll
 0000:fff7b000       .debug$S                   0000000180000000     libsodium:libsodium.dll
 0000:fff7b000       .debug$S                   0000000180000000     libsodium:libsodium.dll
 0000:fff7b000       .debug$S                   0000000180000000     libsodium:libsodium.dll
 0000:fff7b000       .debug$S                   0000000180000000     libsodium:libsodium.dll
 0000:fff7b000       .debug$S                   0000000180000000     libsodium:libsodium.dll
 0000:fff7b000       .debug$S                   0000000180000000     libsodium:libsodium.dll
 0000:fff7b000       .debug$S                   0000000180000000     libsodium:libsodium.dll
 0000:fff7b000       .debug$S                   0000000180000000     libsodium:libsodium.dll
 0000:fff7b000       .debug$S                   0000000180000000     libsodium:libsodium.dll
 0000:fff7b000       .debug$S                   0000000180000000     libsodium:libsodium.dll
 0000:fff7b000       .debug$S                   0000000180000000     libsodium:libsodium.dll
 0000:fff7b000       .debug$S                   0000000180000000     libsodium:libsodium.dll
 0000:fff7b000       .debug$S                   0000000180000000     libsodium:libsodium.dll
 0000:fff7b000       .debug$S                   0000000180000000     libsodium:libsodium.dll
 0000:fff7b000       .debug$S                   0000000180000000     libsodium:libsodium.dll
 0000:fff7b000       .debug$S                   0000000180000000     libsodium:libsodium.dll
 0000:fff7b000       .debug$S                   0000000180000000     libsodium:libsodium.dll
 0000:fff7b000       .debug$S                   0000000180000000     libsodium:libsodium.dll
 0000:fff7b000       .debug$S                   0000000180000000     libsodium:libsodium.dll
 0000:fff7b000       .debug$S                   0000000180000000     libsodium:libsodium.dll
 0000:fff7b000       .debug$S                   0000000180000000     libsodium:libsodium.dll
 0000:fff7b000       .debug$S                   0000000180000000     libsodium:libsodium.dll
 0000:fff7b000       .debug$S                   0000000180000000     libsodium:libsodium.dll
 0000:fff7b000       .debug$S                   0000000180000000     libsodium:libsodium.dll
 0000:fff7b000       .debug$S                   0000000180000000     kernel32:KERNEL32.dll
 0000:fff7b000       .debug$S                   0000000180000000     libsodium:libsodium.dll
 0000:fff7b000       .debug$S                   0000000180000000     kernel32:KERNEL32.dll
 0000:fff7b000       .debug$S                   0000000180000000     libsodium:libsodium.dll
 0000:fff7b000       .debug$S                   0000000180000000     kernel32:KERNEL32.dll
 0000:fff7b000       .debug$S                   0000000180000000     libsodium:libsodium.dll
 0000:fff7b000       .debug$S                   0000000180000000     libsodium:libsodium.dll
 0000:fff7b000       .debug$S                   0000000180000000     kernel32:KERNEL32.dll
 0000:fff7b000       .debug$S                   0000000180000000     kernel32:KERNEL32.dll
 0000:fff7b000       .debug$S                   0000000180000000     kernel32:KERNEL32.dll
 0000:fff7b000       .debug$S                   0000000180000000     kernel32:KERNEL32.dll
 0000:fff7b000       .debug$S                   0000000180000000     kernel32:KERNEL32.dll
 0000:fff7b000       .debug$S                   0000000180000000     kernel32:KERNEL32.dll
 0000:fff7b000       .debug$S                   0000000180000000     kernel32:KERNEL32.dll
 0000:fff7b000       .debug$S                   0000000180000000     kernel32:KERNEL32.dll
 0000:fff7b000       .debug$S                   0000000180000000     kernel32:KERNEL32.dll
 0000:fff7b000       .debug$S                   0000000180000000     kernel32:KERNEL32.dll
 0000:fff7b000       .debug$S                   0000000180000000     libsodium:libsodium.dll
 0000:fff7b000       .debug$S                   0000000180000000     kernel32:KERNEL32.dll
 0000:fff7b000       .debug$S                   0000000180000000     kernel32:KERNEL32.dll
 0000:fff7b000       .debug$S                   0000000180000000     kernel32:KERNEL32.dll
 0000:fff7b000       .debug$S                   0000000180000000     libsodium:libsodium.dll
 0000:fff7b000       .debug$S                   0000000180000000     kernel32:KERNEL32.dll
 0000:fff7b000       .debug$S                   0000000180000000     libsodium:libsodium.dll
 0000:fff7b000       .debug$S                   0000000180000000     kernel32:KERNEL32.dll
 0000:fff7b000       .debug$S                   0000000180000000     kernel32:KERNEL32.dll
 0000:fff7b000       .debug$S                   0000000180000000     kernel32:KERNEL32.dll
 0000:fff7b000       .debug$S                   0000000180000000     libsodium:libsodium.dll
 0000:fff7b000       .debug$S                   0000000180000000     kernel32:KERNEL32.dll
 0000:fff7b000       .debug$S                   0000000180000000     libsodium:libsodium.dll
 0000:fff7b000       .debug$S                   0000000180000000     kernel32:KERNEL32.dll
 0000:fff7b000       .debug$S                   0000000180000000     libsodium:libsodium.dll
 0000:fff7b000       .debug$S                   0000000180000000     kernel32:KERNEL32.dll
 0000:fff7b000       .debug$S                   0000000180000000     libsodium:libsodium.dll
 0000:fff7b000       .debug$S                   0000000180000000     libsodium:libsodium.dll
 0000:fff7b000       .debug$S                   0000000180000000     kernel32:KERNEL32.dll
 0000:fff7b000       .debug$S                   0000000180000000     kernel32:KERNEL32.dll
 0000:fff7b000       .debug$S                   0000000180000000     kernel32:KERNEL32.dll
 0000:fff7b000       .debug$S                   0000000180000000     libsodium:libsodium.dll
 0000:fff7b000       .debug$S                   0000000180000000     kernel32:KERNEL32.dll
 0000:fff7b000       .debug$S                   0000000180000000     libsodium:libsodium.dll
 0000:fff7b000       .debug$S                   0000000180000000     kernel32:KERNEL32.dll
 0000:fff7b000       .debug$S                   0000000180000000     libsodium:libsodium.dll
 0000:fff7b000       .debug$S                   0000000180000000     kernel32:KERNEL32.dll
 0000:fff7b000       .debug$S                   0000000180000000     kernel32:KERNEL32.dll
 0000:fff7b000       .debug$S                   0000000180000000     kernel32:KERNEL32.dll
 0000:fff7b000       .debug$S                   0000000180000000     kernel32:KERNEL32.dll
 0000:fff7b000       .debug$S                   0000000180000000     kernel32:KERNEL32.dll
 0000:fff7b000       .debug$S                   0000000180000000     kernel32:KERNEL32.dll
 0000:fff7b000       .debug$S                   0000000180000000     kernel32:KERNEL32.dll
 0000:fff7b000       .debug$S                   0000000180000000     kernel32:KERNEL32.dll
 0000:fff7b000       .debug$S                   0000000180000000     kernel32:KERNEL32.dll
 0000:fff7b000       .debug$S                   0000000180000000     kernel32:KERNEL32.dll
 0000:fff7b000       .debug$S                   0000000180000000     kernel32:KERNEL32.dll
 0000:fff7b000       .debug$S                   0000000180000000     kernel32:KERNEL32.dll
 0000:fff7b000       .debug$S                   0000000180000000     kernel32:KERNEL32.dll
 0000:fff7b000       .debug$S                   0000000180000000     kernel32:KERNEL32.dll
 0000:fff7b000       .debug$S                   0000000180000000     kernel32:KERNEL32.dll
 0000:fff7b000       .debug$S                   0000000180000000     kernel32:KERNEL32.dll
 0000:fff7b000       .debug$S                   0000000180000000     kernel32:KERNEL32.dll
 0000:fff7b000       .debug$S                   0000000180000000     kernel32:KERNEL32.dll
 0000:fff7b000       .debug$S                   0000000180000000     kernel32:KERNEL32.dll
 0000:fff7b000       .debug$S                   0000000180000000     kernel32:KERNEL32.dll
 0000:fff7b000       .debug$S                   0000000180000000     kernel32:KERNEL32.dll
 0000:fff7b000       .debug$S                   0000000180000000     kernel32:KERNEL32.dll
 0000:fff7b000       .debug$S                   0000000180000000     kernel32:KERNEL32.dll
 0000:fff7b000       .debug$S                   0000000180000000     libsodium:libsodium.dll
 0000:fff7b000       .debug$S                   0000000180000000     kernel32:KERNEL32.dll
 0000:fff7b000       .debug$S                   0000000180000000     kernel32:KERNEL32.dll
 0000:fff7b000       .debug$S                   0000000180000000     kernel32:KERNEL32.dll
 0000:fff7b000       .debug$S                   0000000180000000     libsodium:libsodium.dll
 0000:fff7b000       .debug$S                   0000000180000000     kernel32:KERNEL32.dll
 0000:fff7b000       .debug$S                   0000000180000000     kernel32:KERNEL32.dll
 0000:fff7b000       .debug$S                   0000000180000000     kernel32:KERNEL32.dll
 0000:fff7b000       .debug$S                   0000000180000000     libsodium:libsodium.dll
 0000:fff7b000       .debug$S                   0000000180000000     kernel32:KERNEL32.dll
 0000:fff7b000       .debug$S                   0000000180000000     libsodium:libsodium.dll
 0000:fff7b000       .debug$S                   0000000180000000     kernel32:KERNEL32.dll
 0000:fff7b000       .debug$S                   0000000180000000     libsodium:libsodium.dll
 0000:fff7b000       .debug$S                   0000000180000000     kernel32:KERNEL32.dll
 0000:fff7b000       .debug$S                   0000000180000000     kernel32:KERNEL32.dll
 0000:fff7b000       .debug$S                   0000000180000000     kernel32:KERNEL32.dll
 0000:fff7b000       .debug$S                   0000000180000000     libsodium:libsodium.dll
 0000:fff7b000       .debug$S                   0000000180000000     libsodium:libsodium.dll
 0000:fff7b000       .debug$S                   0000000180000000     kernel32:KERNEL32.dll
 0000:fff7b000       .debug$S                   0000000180000000     kernel32:KERNEL32.dll
 0000:fff7b000       .debug$S                   0000000180000000     kernel32:KERNEL32.dll
 0000:fff7b000       .debug$S                   0000000180000000     kernel32:KERNEL32.dll
 0000:fff7b000       .debug$S                   0000000180000000     libsodium:libsodium.dll
 0000:fff7b000       .debug$S                   0000000180000000     sodium.exp
 0000:fff7b000       .debug$S                   0000000180000000     kernel32:KERNEL32.dll
 0000:fff7b000       .debug$S                   0000000180000000     kernel32:KERNEL32.dll
 0000:fff7b000       .debug$S                   0000000180000000     libsodium:libsodium.dll
 0000:fff7b000       .debug$S                   0000000180000000     kernel32:KERNEL32.dll
 0000:fff7b000       .debug$S                   0000000180000000     libsodium:libsodium.dll
 0000:fff7b000       .debug$S                   0000000180000000     kernel32:KERNEL32.dll
 0000:fff7b000       .debug$S                   0000000180000000     libsodium:libsodium.dll
 0000:fff7b000       .debug$S                   0000000180000000     kernel32:KERNEL32.dll
 0000:fff7b000       .debug$S                   0000000180000000     kernel32:KERNEL32.dll
 0000:fff7b000       .debug$S                   0000000180000000     libsodium:libsodium.dll
 0000:fff7b000       .debug$S                   0000000180000000     kernel32:KERNEL32.dll
 0000:fff7b000       .debug$S                   0000000180000000     kernel32:KERNEL32.dll
 0000:fff7b000       .debug$S                   0000000180000000     kernel32:KERNEL32.dll
 0000:fff7b000       .debug$S                   0000000180000000     libsodium:libsodium.dll
 0000:fff7b000       .debug$S                   0000000180000000     libsodium:libsodium.dll
 0000:fff7b000       .debug$S                   0000000180000000     kernel32:KERNEL32.dll
 0000:fff7b000       .debug$S                   0000000180000000     kernel32:KERNEL32.dll
 0000:fff7b000       .debug$S                   0000000180000000     kernel32:KERNEL32.dll
 0000:fff7b000       .debug$S                   0000000180000000     libsodium:libsodium.dll
 0000:fff7b000       .debug$S                   0000000180000000     kernel32:KERNEL32.dll
 0000:fff7b000       .debug$S                   0000000180000000     libsodium:libsodium.dll
 0000:fff7b000       .debug$S                   0000000180000000     kernel32:KERNEL32.dll
 0000:fff7b000       .debug$S                   0000000180000000     libsodium:libsodium.dll
 0000:fff7b000       .debug$S                   0000000180000000     kernel32:KERNEL32.dll
 0000:fff7b000       .debug$S                   0000000180000000     libsodium:libsodium.dll
 0000:fff7b000       .debug$S                   0000000180000000     kernel32:KERNEL32.dll
 0000:fff7b000       .debug$S                   0000000180000000     libsodium:libsodium.dll
 0000:fff7b000       .debug$S                   0000000180000000     kernel32:KERNEL32.dll
 0000:fff7b000       .debug$S                   0000000180000000     libsodium:libsodium.dll
 0000:fff7b000       .debug$S                   0000000180000000     libsodium:libsodium.dll
 0000:fff7b000       .debug$S                   0000000180000000     libsodium:libsodium.dll
 0000:fff7b000       .debug$S                   0000000180000000     kernel32:KERNEL32.dll
 0000:fff7b000       .debug$S                   0000000180000000     kernel32:KERNEL32.dll
 0000:fff7b000       .debug$S                   0000000180000000     libsodium:libsodium.dll
 0000:fff7b000       .debug$S                   0000000180000000     libsodium:libsodium.dll
 0000:fff7b000       .debug$S                   0000000180000000     kernel32:KERNEL32.dll
 0000:fff7b000       .debug$S                   0000000180000000     kernel32:KERNEL32.dll
 0000:fff7b000       .debug$S                   0000000180000000     kernel32:KERNEL32.dll
 0000:fff7b000       .debug$S                   0000000180000000     libsodium:libsodium.dll
 0000:fff7b000       .debug$S                   0000000180000000     kernel32:KERNEL32.dll
 0000:fff7b000       .debug$S                   0000000180000000     libsodium:libsodium.dll
 0000:fff7b000       .debug$S                   0000000180000000     kernel32:KERNEL32.dll
 0000:fff7b000       .debug$S                   0000000180000000     libsodium:libsodium.dll
 0000:fff7b000       .debug$S                   0000000180000000     kernel32:KERNEL32.dll
 0000:fff7b000       .debug$S                   0000000180000000     libsodium:libsodium.dll
 0000:fff7b000       .debug$S                   0000000180000000     libsodium:libsodium.dll
 0000:fff7b000       .debug$S                   0000000180000000     libsodium:libsodium.dll
 0000:fff7b000       .debug$S                   0000000180000000     libsodium:libsodium.dll
 0000:fff7b000       .debug$S                   0000000180000000     libsodium:libsodium.dll
 0000:fff7b000       .debug$S                   0000000180000000     libsodium:libsodium.dll
 0000:fff7b000       .debug$S                   0000000180000000     libsodium:libsodium.dll
 0000:fff7b000       .debug$S                   0000000180000000     libsodium:libsodium.dll
 0000:fff7b000       .debug$S                   0000000180000000     libsodium:libsodium.dll
 0000:fff7b000       .debug$S                   0000000180000000     libsodium:libsodium.dll
 0000:fff7b000       .debug$S                   0000000180000000     libsodium:libsodium.dll
 0000:fff7b000       .debug$S                   0000000180000000     libsodium:libsodium.dll
 0000:fff7b000       .debug$S                   0000000180000000     libsodium:libsodium.dll
 0000:fff7b000       .debug$S                   0000000180000000     libsodium:libsodium.dll
 0000:fff7b000       .debug$S                   0000000180000000     libsodium:libsodium.dll
 0000:fff7b000       .debug$S                   0000000180000000     libsodium:libsodium.dll
 0000:fff7b000       .debug$S                   0000000180000000     libsodium:libsodium.dll
 0000:fff7b000       .debug$S                   0000000180000000     libsodium:libsodium.dll
 0000:fff7b000       .debug$S                   0000000180000000     libsodium:libsodium.dll
 0000:fff7b000       .debug$S                   0000000180000000     libsodium:libsodium.dll
 0000:fff7b000       .debug$S                   0000000180000000     libsodium:libsodium.dll
 0000:fff7b000       .debug$S                   0000000180000000     libsodium:libsodium.dll
 0000:fff7b000       .debug$S                   0000000180000000     libsodium:libsodium.dll
 0000:fff7b000       .debug$S                   0000000180000000     libsodium:libsodium.dll
 0000:fff7b000       .debug$S                   0000000180000000     libsodium:libsodium.dll
 0000:fff7b000       .debug$S                   0000000180000000     libsodium:libsodium.dll
 0000:fff7b000       .debug$S                   0000000180000000     libsodium:libsodium.dll
 0000:fff7b000       .debug$S                   0000000180000000     libsodium:libsodium.dll
 0000:fff7b000       .debug$S                   0000000180000000     libsodium:libsodium.dll
 0000:fff7b000       .debug$S                   0000000180000000     libsodium:libsodium.dll
 0000:fff7b000       .debug$S                   0000000180000000     libsodium:libsodium.dll
 0000:fff7b000       .debug$S                   0000000180000000     libsodium:libsodium.dll
 0000:fff7b000       .debug$S                   0000000180000000     libsodium:libsodium.dll
 0000:fff7b000       .debug$S                   0000000180000000     node:node.exe
 0000:fff7b000       .debug$S                   0000000180000000     libsodium:libsodium.dll
 0000:fff7b000       .debug$S                   0000000180000000     libsodium:libsodium.dll
 0000:fff7b000       .debug$S                   0000000180000000     libsodium:libsodium.dll
 0000:fff7b000       .debug$S                   0000000180000000     libsodium:libsodium.dll
 0000:fff7b000       .debug$S                   0000000180000000     node:node.exe
 0000:fff7b000       .debug$S                   0000000180000000     libsodium:libsodium.dll
 0000:fff7b000       .debug$S                   0000000180000000     node:node.exe
 0000:fff7b000       .debug$S                   0000000180000000     libsodium:libsodium.dll
 0000:fff7b000       .debug$S                   0000000180000000     libsodium:libsodium.dll
 0000:fff7b000       .debug$S                   0000000180000000     node:node.exe
 0000:fff7b000       .debug$S                   0000000180000000     libsodium:libsodium.dll
 0000:fff7b000       .debug$S                   0000000180000000     node:node.exe
 0000:fff7b000       .debug$S                   0000000180000000     libsodium:libsodium.dll
 0000:fff7b000       .debug$S                   0000000180000000     node:node.exe
 0000:fff7b000       .debug$S                   0000000180000000     node:node.exe
 0000:fff7b000       .debug$S                   0000000180000000     node:node.exe
 0000:fff7b000       .debug$S                   0000000180000000     libsodium:libsodium.dll
 0000:fff7b000       .debug$S                   0000000180000000     node:node.exe
 0000:fff7b000       .debug$S                   0000000180000000     node:node.exe
 0000:fff7b000       .debug$S                   0000000180000000     node:node.exe
 0000:fff7b000       .debug$S                   0000000180000000     libsodium:libsodium.dll
 0000:fff7b000       .debug$S                   0000000180000000     node:node.exe
 0000:fff7b000       .debug$S                   0000000180000000     node:node.exe
 0000:fff7b000       .debug$S                   0000000180000000     libsodium:libsodium.dll
 0000:fff7b000       .debug$S                   0000000180000000     node:node.exe
 0000:fff7b000       .debug$S                   0000000180000000     node:node.exe
 0000:fff7b000       .debug$S                   0000000180000000     node:node.exe
 0000:fff7b000       .debug$S                   0000000180000000     libsodium:libsodium.dll
 0000:fff7b000       .debug$S                   0000000180000000     libsodium:libsodium.dll
 0000:fff7b000       .debug$S                   0000000180000000     node:node.exe
 0000:fff7b000       .debug$S                   0000000180000000     node:node.exe
 0000:fff7b000       .debug$S                   0000000180000000     node:node.exe
 0000:fff7b000       .debug$S                   0000000180000000     node:node.exe
 0000:fff7b000       .debug$S                   0000000180000000     node:node.exe
 0000:fff7b000       .debug$S                   0000000180000000     libsodium:libsodium.dll
 0000:fff7b000       .debug$S                   0000000180000000     node:node.exe
 0000:fff7b000       .debug$S                   0000000180000000     libsodium:libsodium.dll
 0000:fff7b000       .debug$S                   0000000180000000     node:node.exe
 0000:fff7b000       .debug$S                   0000000180000000     node:node.exe
 0000:fff7b000       .debug$S                   0000000180000000     libsodium:libsodium.dll
 0000:fff7b000       .debug$S                   0000000180000000     node:node.exe
 0000:fff7b000       .debug$S                   0000000180000000     node:node.exe
 0000:fff7b000       .debug$S                   0000000180000000     node:node.exe
 0000:fff7b000       .debug$S                   0000000180000000     libsodium:libsodium.dll
 0000:fff7b000       .debug$S                   0000000180000000     libsodium:libsodium.dll
 0000:fff7b000       .debug$S                   0000000180000000     libsodium:libsodium.dll
 0000:fff7b000       .debug$S                   0000000180000000     libsodium:libsodium.dll
 0000:fff7b000       .debug$S                   0000000180000000     libsodium:libsodium.dll
 0000:fff7b000       .debug$S                   0000000180000000     node:node.exe
 0000:fff7b000       .debug$S                   0000000180000000     libsodium:libsodium.dll
 0000:fff7b000       .debug$S                   0000000180000000     libsodium:libsodium.dll
 0000:fff7b000       .debug$S                   0000000180000000     node:node.exe
 0000:fff7b000       .debug$S                   0000000180000000     libsodium:libsodium.dll
 0000:fff7b000       .debug$S                   0000000180000000     libsodium:libsodium.dll
 0000:fff7b000       .debug$S                   0000000180000000     libsodium:libsodium.dll
 0000:fff7b000       .debug$S                   0000000180000000     libsodium:libsodium.dll
 0000:fff7b000       .debug$S                   0000000180000000     libsodium:libsodium.dll
 0000:fff7b000       .debug$S                   0000000180000000     libsodium:libsodium.dll
 0000:fff7b000       .debug$S                   0000000180000000     libsodium:libsodium.dll
 0000:fff7b000       .debug$S                   0000000180000000     libsodium:libsodium.dll
 0000:fff7b000       .debug$S                   0000000180000000     libsodium:libsodium.dll
 0000:fff7b000       .debug$S                   0000000180000000     libsodium:libsodium.dll
 0000:fff7b000       .debug$S                   0000000180000000     libsodium:libsodium.dll
 0000:fff7b000       .debug$S                   0000000180000000     libsodium:libsodium.dll
 0000:fff7b000       .debug$S                   0000000180000000     libsodium:libsodium.dll
 0000:fff7b000       .debug$S                   0000000180000000     libsodium:libsodium.dll
 0000:fff7b000       .debug$S                   0000000180000000     libsodium:libsodium.dll
 0000:fff7b000       .debug$S                   0000000180000000     libsodium:libsodium.dll
 0000:fff7b000       .debug$S                   0000000180000000     libsodium:libsodium.dll
 0000:fff7b000       .debug$S                   0000000180000000     libsodium:libsodium.dll
 0000:fff7b000       .debug$S                   0000000180000000     libsodium:libsodium.dll
 0000:fff7b000       .debug$S                   0000000180000000     libsodium:libsodium.dll
 0000:fff7b000       .debug$S                   0000000180000000     libsodium:libsodium.dll
 0000:fff7b000       .debug$S                   0000000180000000     libsodium:libsodium.dll
 0000:fff7b000       .debug$S                   0000000180000000     libsodium:libsodium.dll
 0000:fff7b000       .debug$S                   0000000180000000     libsodium:libsodium.dll
 0000:fff7b000       .debug$S                   0000000180000000     libsodium:libsodium.dll
 0000:fff7b000       .debug$S                   0000000180000000     libsodium:libsodium.dll
 0000:fff7b000       .debug$S                   0000000180000000     libsodium:libsodium.dll
 0000:fff7b000       .debug$S                   0000000180000000     libsodium:libsodium.dll
 0000:fff7b000       .debug$S                   0000000180000000     libsodium:libsodium.dll
 0000:fff7b000       .debug$S                   0000000180000000     libsodium:libsodium.dll
 0000:fff7b000       .debug$S                   0000000180000000     libsodium:libsodium.dll
 0000:fff7b000       .debug$S                   0000000180000000     libsodium:libsodium.dll
 0000:fff7b000       .debug$S                   0000000180000000     libsodium:libsodium.dll
 0000:fff7b000       .debug$S                   0000000180000000     libsodium:libsodium.dll
 0000:fff7b000       .debug$S                   0000000180000000     libsodium:libsodium.dll
 0000:fff7b000       .debug$S                   0000000180000000     libsodium:libsodium.dll
 0000:fff7b000       .debug$S                   0000000180000000     libsodium:libsodium.dll
 0000:fff7b000       .debug$S                   0000000180000000     libsodium:libsodium.dll
 0000:fff7b000       .debug$S                   0000000180000000     libsodium:libsodium.dll
 0000:fff7b000       .debug$S                   0000000180000000     libsodium:libsodium.dll
 0000:fff7b000       .debug$S                   0000000180000000     libsodium:libsodium.dll
 0000:fff7b000       .debug$S                   0000000180000000     libsodium:libsodium.dll
 0000:fff7b000       .debug$S                   0000000180000000     libsodium:libsodium.dll
 0000:fff7b000       .debug$S                   0000000180000000     libsodium:libsodium.dll
 0000:fff7b000       .debug$S                   0000000180000000     libsodium:libsodium.dll
 0000:fff7b000       .debug$S                   0000000180000000     libsodium:libsodium.dll
 0000:fff7b000       .debug$S                   0000000180000000     libsodium:libsodium.dll
 0000:fff7b000       .debug$S                   0000000180000000     libsodium:libsodium.dll
 0000:fff7b000       .debug$S                   0000000180000000     libsodium:libsodium.dll
 0000:fff7b000       .debug$S                   0000000180000000     libsodium:libsodium.dll
 0000:fff7b000       .debug$S                   0000000180000000     libsodium:libsodium.dll
 0000:fff7b000       .debug$S                   0000000180000000     libsodium:libsodium.dll
 0000:fff7b000       .debug$S                   0000000180000000     libsodium:libsodium.dll
 0000:fff7b000       .debug$S                   0000000180000000     node:node.exe
 0000:fff7b000       .debug$S                   0000000180000000     node:node.exe
 0000:fff7b000       .debug$S                   0000000180000000     node:node.exe
 0000:fff7b000       .debug$S                   0000000180000000     libsodium:libsodium.dll
 0000:fff7b000       .debug$S                   0000000180000000     node:node.exe
 0000:fff7b000       .debug$S                   0000000180000000     libsodium:libsodium.dll
 0000:fff7b000       .debug$S                   0000000180000000     node:node.exe
 0000:fff7b000       .debug$S                   0000000180000000     libsodium:libsodium.dll
 0000:fff7b000       .debug$S                   0000000180000000     node:node.exe
 0000:fff7b000       .debug$S                   0000000180000000     libsodium:libsodium.dll
 0000:fff7b000       .debug$S                   0000000180000000     node:node.exe
 0000:fff7b000       .debug$S                   0000000180000000     libsodium:libsodium.dll
 0000:fff7b000       .debug$S                   0000000180000000     libsodium:libsodium.dll
 0000:fff7b000       .debug$S                   0000000180000000     libsodium:libsodium.dll
 0000:fff7b000       .debug$S                   0000000180000000     libsodium:libsodium.dll
 0000:fff7b000       .debug$S                   0000000180000000     libsodium:libsodium.dll
 0000:fff7b000       .debug$S                   0000000180000000     libsodium:libsodium.dll
 0000:fff7b000       .debug$S                   0000000180000000     libsodium:libsodium.dll
 0000:fff7b000       .debug$S                   0000000180000000     libsodium:libsodium.dll
 0000:fff7b000       .debug$S                   0000000180000000     libsodium:libsodium.dll
 0000:fff7b000       .debug$S                   0000000180000000     libsodium:libsodium.dll
 0000:fff7b000       .debug$S                   0000000180000000     libsodium:libsodium.dll
 0000:fff7b000       .debug$S                   0000000180000000     libsodium:libsodium.dll
 0000:fff7b000       .debug$S                   0000000180000000     libsodium:libsodium.dll
 0000:fff7b000       .debug$S                   0000000180000000     libsodium:libsodium.dll
 0000:fff7b000       .debug$S                   0000000180000000     libsodium:libsodium.dll
 0000:fff7b000       .debug$S                   0000000180000000     libsodium:libsodium.dll
 0000:fff7b000       .debug$S                   0000000180000000     libsodium:libsodium.dll
 0000:fff7b000       .debug$S                   0000000180000000     libsodium:libsodium.dll
 0000:fff7b000       .debug$S                   0000000180000000     libsodium:libsodium.dll
 0000:fff7b000       .debug$S                   0000000180000000     libsodium:libsodium.dll
 0000:fff7b000       .debug$S                   0000000180000000     libsodium:libsodium.dll
 0000:fff7b000       .debug$S                   0000000180000000     libsodium:libsodium.dll
 0000:fff7b000       .debug$S                   0000000180000000     libsodium:libsodium.dll
 0000:fff7b000       .debug$S                   0000000180000000     libsodium:libsodium.dll
 0000:fff7b000       .debug$S                   0000000180000000     libsodium:libsodium.dll
 0000:fff7b000       .debug$S                   0000000180000000     libsodium:libsodium.dll
 0000:fff7b000       .debug$S                   0000000180000000     libsodium:libsodium.dll
 0000:fff7b000       .debug$S                   0000000180000000     libsodium:libsodium.dll
 0000:fff7b000       .debug$S                   0000000180000000     libsodium:libsodium.dll
 0000:fff7b000       .debug$S                   0000000180000000     libsodium:libsodium.dll
 0000:fff7b000       .debug$S                   0000000180000000     libsodium:libsodium.dll
 0000:fff7b000       .debug$S                   0000000180000000     libsodium:libsodium.dll
 0000:fff7b000       .debug$S                   0000000180000000     libsodium:libsodium.dll
 0000:fff7b000       .debug$S                   0000000180000000     libsodium:libsodium.dll
 0000:fff7b000       .debug$S                   0000000180000000     libsodium:libsodium.dll
 0000:fff7b000       .debug$S                   0000000180000000     libsodium:libsodium.dll
 0001:0000cb90       ??R<lambda_4b130013be4a466940e6fe08d32cda83>@@QEBA?AVValue@Napi@@XZ 000000018000db90 f   crypto_aead.obj
 0001:0000cd70       ??$AttachData@U?$CallbackData@P6A?AVValue@Napi@@AEBVCallbackInfo@2@@ZV12@@details@Napi@@@details@Napi@@YA?AW4napi_status@@PEAUnapi_env__@@PEAUnapi_value__@@PEAU?$CallbackData@P6A?AVValue@Napi@@AEBVCallbackInfo@2@@ZV12@@01@P6AX0PEAX3@Z3@Z 000000018000dd70 f   crypto_aead.obj
 0001:0000ce30       ?<lambda_invoker_cdecl>@<lambda_33eed0fbe1bc943e60b704f868d0faf0>@@CAXPEAUnapi_env__@@PEAX1@Z 000000018000de30 f   crypto_aead.obj
 0001:00028ab0       _register_sodium           0000000180029ab0 f   sodium.obj
 0001:0004eb30       ?load_exe_hook@@YAP6A_JXZIPEAUDelayLoadInfo@@@Z 000000018004fb30 f   win_delay_load_hook.obj
 0001:0004ef90       $$000000                   000000018004ff90     LIBCMT:_amdsecgs_.obj
 0001:0004f044       ?dllmain_crt_dispatch@@YAHQEAUHINSTANCE__@@KQEAX@Z 0000000180050044 f   LIBCMT:dll_dllmain.obj
 0001:0004f094       ?dllmain_crt_process_attach@@YAHQEAUHINSTANCE__@@QEAX@Z 0000000180050094 f   LIBCMT:dll_dllmain.obj
 0001:0004f1c0       ?dllmain_crt_process_detach@@YAH_N@Z 00000001800501c0 f   LIBCMT:dll_dllmain.obj
 0001:0004f244       ?dllmain_dispatch@@YAHQEAUHINSTANCE__@@KQEAX@Z 0000000180050244 f   LIBCMT:dll_dllmain.obj
 0001:0004f33c       ?dllmain_raw@@YAHQEAUHINSTANCE__@@KQEAX@Z 000000018005033c f   LIBCMT:dll_dllmain.obj
 0001:0004f588       capture_current_context    0000000180050588 f   LIBCMT:gs_report.obj
 0001:0004f5f8       capture_previous_context   00000001800505f8 f   LIBCMT:gs_report.obj
 0001:0004ffb0       $$000000                   0000000180050fb0     libvcruntime:memcpy.obj
 0001:00050057       MoveSmall                  0000000180051057     libvcruntime:memcpy.obj
 0001:000504f4       ?CatchIt@@YAXPEAUEHExceptionRecord@@PEA_KPEAU_CONTEXT@@PEAU_xDISPATCHER_CONTEXT@@PEBU_s_FuncInfo@@PEBU_s_HandlerType@@PEBU_s_CatchableType@@PEBU_s_TryBlockMapEntry@@H1EE@Z 00000001800514f4 f   libvcruntime:frame.obj
 0001:000505b8       ?ExFilterRethrow@@YAHPEAU_EXCEPTION_POINTERS@@PEAUEHExceptionRecord@@PEAH@Z 00000001800515b8 f   libvcruntime:frame.obj
 0001:00050640       ?FindHandler@@YAXPEAUEHExceptionRecord@@PEA_KPEAU_CONTEXT@@PEAU_xDISPATCHER_CONTEXT@@PEBU_s_FuncInfo@@EH1@Z 0000000180051640 f   libvcruntime:frame.obj
 0001:00050b10       ?FindHandlerForForeignException@@YAXPEAUEHExceptionRecord@@PEA_KPEAU_CONTEXT@@PEAU_xDISPATCHER_CONTEXT@@PEBU_s_FuncInfo@@HH1@Z 0000000180051b10 f   libvcruntime:frame.obj
 0001:00050d7c       ?IsInExceptionSpec@@YAEPEAUEHExceptionRecord@@PEBU_s_ESTypeList@@@Z 0000000180051d7c f   libvcruntime:frame.obj
 0001:00051d10       $$000000                   0000000180052d10     libvcruntime:memset.obj
 0001:00051dfc       MsetTab                    0000000180052dfc     libvcruntime:memset.obj
 0001:00052180       $$000000                   0000000180053180     libvcruntime:handlers.obj
 0001:00052880       $$000000                   0000000180053880     libvcruntime:_jmpuwind_.obj
 0001:00052974       ?try_get_function@@YAPEAXW4function_id@?A0x679b24ab@@QEBDQEBW4module_id@2@2@Z 0000000180053974 f   libvcruntime:winapi_downlevel.obj
 0001:00053528       ?atexit_exception_filter@@YAHK@Z 0000000180054528 f   libucrt:exit.obj
 0001:00053534       ?common_exit@@YAXHW4_crt_exit_cleanup_mode@@W4_crt_exit_return_mode@@@Z 0000000180054534 f   libucrt:exit.obj
 0001:000536a0       ?exit_or_terminate_process@@YAXI@Z 00000001800546a0 f   libucrt:exit.obj
 0001:000536ec       ?try_cor_exit_process@@YAXI@Z 00000001800546ec f   libucrt:exit.obj
 0001:00053784       ??$parse_command_line@D@@YAXPEADPEAPEAD0PEA_K2@Z 0000000180054784 f   libucrt:argv_parsing.obj
 0001:00053b1c       ??$common_initialize_environment_nolock@D@@YAHXZ 0000000180054b1c f   libucrt:environment_initialization.obj
 0001:00053b88       ??$create_environment@D@@YAQEAPEADQEAD@Z 0000000180054b88 f   libucrt:environment_initialization.obj
 0001:00053c84       ??$free_environment@_W@@YAXQEAPEA_W@Z 0000000180054c84 f   libucrt:environment_initialization.obj
 0001:00053c84       ??$free_environment@D@@YAXQEAPEAD@Z 0000000180054c84 f   libucrt:environment_initialization.obj
 0001:00053cc8       ??$uninitialize_environment_internal@D@@YAXAEAPEAPEAD@Z 0000000180054cc8 f   libucrt:environment_initialization.obj
 0001:00053ce4       ??$uninitialize_environment_internal@_W@@YAXAEAPEAPEA_W@Z 0000000180054ce4 f   libucrt:environment_initialization.obj
 0001:00053f1c       ??R<lambda_4e60a939b0d047cfe11ddc22648dfba9>@@QEBAHXZ 0000000180054f1c f   libucrt:onexit.obj
 0001:000541cc       initialize_global_variables 00000001800551cc f   libucrt:initialization.obj
 0001:000541e0       initialize_c               00000001800551e0 f   libucrt:initialization.obj
 0001:00054204       uninitialize_environment   0000000180055204 f   libucrt:initialization.obj
 0001:00054214       initialize_pointers        0000000180055214 f   libucrt:initialization.obj
 0001:00054268       uninitialize_vcruntime     0000000180055268 f   libucrt:initialization.obj
 0001:00054270       uninitialize_allocated_memory 0000000180055270 f   libucrt:initialization.obj
 0001:0005467c       ?construct_ptd_array@@YAXQEAU__acrt_ptd@@@Z 000000018005567c f   libucrt:per_thread_data.obj
 0001:0005474c       ?destroy_fls@@YAXPEAX@Z    000000018005574c f   libucrt:per_thread_data.obj
 0001:0005476c       ?destroy_ptd_array@@YAXQEAU__acrt_ptd@@@Z 000000018005576c f   libucrt:per_thread_data.obj
 0001:00054864       ?replace_current_thread_locale_nolock@@YAXQEAU__acrt_ptd@@QEAU__crt_locale_data@@@Z 0000000180055864 f   libucrt:per_thread_data.obj
 0001:00054b7c       ?internal_isupper_l@@YA_NHQEAU__crt_locale_pointers@@@Z 0000000180055b7c f   libucrt:tolower_toupper.obj
 0001:00054e80       ?try_get_function@@YAPEAXW4function_id@?A0x63058377@@QEBDQEBW4module_id@2@2@Z 0000000180055e80 f   libucrt:winapi_thunks.obj
 0001:00055464       ?<helper_func_cdecl>@<lambda_2feae5270eb4d0d5532525f423405775>@@CAHPEBX0@Z 0000000180056464 f   libucrt:argv_wildcards.obj
 0001:00055478       ??$common_expand_argv_wildcards@D@@YAHQEAPEADQEAPEAPEAD@Z 0000000180056478 f   libucrt:argv_wildcards.obj
 0001:00055684       ??$copy_and_add_argument_to_buffer@D@@YAHQEBD0_KAEAV?$argument_list@D@?A0xca0879c4@@@Z 0000000180056684 f   libucrt:argv_wildcards.obj
 0001:00055794       ??$expand_argument_wildcards@D@@YAHQEAD0AEAV?$argument_list@D@?A0xca0879c4@@@Z 0000000180056794 f   libucrt:argv_wildcards.obj
 0001:00055a48       ??R<lambda_ad1ced32f4ac17aa236e5ef05d6b3b7c>@@QEBAXXZ 0000000180056a48 f   libucrt:mbctype.obj
 0001:00055c60       ?getSystemCP@@YAHH@Z       0000000180056c60 f   libucrt:mbctype.obj
 0001:00055ce0       ?setSBCS@@YAXPEAU__crt_multibyte_data@@@Z 0000000180056ce0 f   libucrt:mbctype.obj
 0001:00055d70       ?setSBUpLow@@YAXPEAU__crt_multibyte_data@@@Z 0000000180056d70 f   libucrt:mbctype.obj
 0001:00055f54       ?setmbcp_internal@@YAHH_N@Z 0000000180056f54 f   libucrt:mbctype.obj
 0001:0005649c       ?x_ismbbtype_l@@YAHPEAU__crt_locale_pointers@@IHH@Z 000000018005749c f   libucrt:ismbbyte.obj
 0001:00056550       uninitialize_global_state_isolation 0000000180057550 f   libucrt:initialization.obj
 0001:00056550       report_memory_leaks        0000000180057550 f   libucrt:initialization.obj
 0001:00056550       initialize_environment     0000000180057550 f   libucrt:initialization.obj
 0001:00056550       initialize_global_state_isolation 0000000180057550 f   libucrt:initialization.obj
 0001:00056550       uninitialize_c             0000000180057550 f   libucrt:initialization.obj
 0001:00056720       ?initialize_inherited_file_handles_nolock@@YAXXZ 0000000180057720 f   libucrt:ioinit.obj
 0001:0005680c       ?initialize_stdio_handles_nolock@@YAXXZ 000000018005780c f   libucrt:ioinit.obj
 0001:000576ac       ?__acrt_LCMapStringA_stat@@YAHPEAU__crt_locale_pointers@@PEB_WKPEBDHPEADHHH@Z 00000001800586ac f   libucrt:lcmapstringa.obj
 0001:00057c18       ?free_crt_array_internal@@YAXQEAPEBX_K@Z 0000000180058c18 f   libucrt:inittime.obj
 0001:00057f2c       ?GetTableIndexFromLocaleName@@YAHPEB_W@Z 0000000180058f2c f   libucrt:lcidtoname_downlevel.obj
 0001:00058030       ?shortsort@@YAXPEAD0_KP6AHPEBX2@Z@Z 0000000180059030 f   libucrt:qsort.obj
 0001:00058648       ?initialize_multibyte@@YAHXZ 0000000180059648 f   libucrt:multibyte_initializer.obj
 0001:00058b6c       common_flush_all           0000000180059b6c f   libucrt:fflush.obj
 0001:00058e84       ?write_double_translated_ansi_nolock@@YA?AUwrite_result@?A0x9c548279@@HQEBDI@Z 0000000180059e84 f   libucrt:write.obj
 0001:0005908c       ?write_text_ansi_nolock@@YA?AUwrite_result@?A0x9c548279@@HQEBDI@Z 000000018005a08c f   libucrt:write.obj
 0001:00059194       ?write_text_utf16le_nolock@@YA?AUwrite_result@?A0x9c548279@@HQEBDI@Z 000000018005a194 f   libucrt:write.obj
 0001:000592b0       ?write_text_utf8_nolock@@YA?AUwrite_result@?A0x9c548279@@HQEBDI@Z 000000018005a2b0 f   libucrt:write.obj
 0001:00059800       $$000000                   000000018005a800     libucrt:log10.obj
 0001:00059dac       ??$common_lseek_nolock@_J@@YA_JH_JH@Z 000000018005adac f   libucrt:lseek.obj
 0001:00059f9c       _call_matherr              000000018005af9c f   libucrt:libm_error.obj
 0001:0005a004       _exception_enabled         000000018005b004 f   libucrt:libm_error.obj
 0001:0005a280       _log_special_common        000000018005b280 f   libucrt:log_special.obj
 0001:0005a590       $$000000                   000000018005b590     libucrt:fpsr.obj
 0001:0005b240       $$000000                   000000018005c240     LIBCMT:_chkstk_.obj
 0001:0005b2b0       $$000000                   000000018005c2b0     libvcruntime:memcmp.obj
 0001:0005b410       $$000000                   000000018005c410     LIBCMT:_guard_dispatch_.obj
 0001:0005b430       ?dtor$0@?0??Utf8Value@String@Napi@@QEBA?AV?$basic_string@DU?$char_traits@D@std@@V?$allocator@D@2@@std@@XZ@4HA 000000018005c430 f   crypto_aead.obj
 0001:0005b460       ?dtor$0@?0??Message@Error@Napi@@QEBAAEBV?$basic_string@DU?$char_traits@D@std@@V?$allocator@D@2@@std@@XZ@4HA 000000018005c460 f   crypto_aead.obj
 0001:0005b46c       ?catch$1@?0??Message@Error@Napi@@QEBAAEBV?$basic_string@DU?$char_traits@D@std@@V?$allocator@D@2@@std@@XZ@4HA 000000018005c46c f   crypto_aead.obj
 0001:0005b479       __catch$?Message@Error@Napi@@QEBAAEBV?$basic_string@DU?$char_traits@D@std@@V?$allocator@D@2@@std@@XZ$0 000000018005c479 f   crypto_aead.obj
 0001:0005b490       ?dtor$0@?0???0?$Reference@VObject@Napi@@@Napi@@IEAA@AEBV01@@Z@4HA 000000018005c490 f   crypto_aead.obj
 0001:0005b490       ?dtor$0@?0??ThrowAsJavaScriptException@Error@Napi@@QEBAXXZ@4HA 000000018005c490 f   crypto_aead.obj
 0001:0005b4a0       ?dtor$0@?0??Get@ObjectReference@Napi@@QEBA?AVValue@2@PEBD@Z@4HA 000000018005c4a0 f   crypto_aead.obj
 0001:0005b4b0       ?dtor$0@?0??bind_crypto_sign_ed25519_sk_to_pk_@@YA?AVValue@Napi@@AEBVCallbackInfo@2@@Z@4HA 000000018005c4b0 f   crypto_sign_ed25519.obj
 0001:0005b4b0       ?dtor$0@?0??bind_crypto_scalarmult_curve25519_base_@@YA?AVValue@Napi@@AEBVCallbackInfo@2@@Z@4HA 000000018005c4b0 f   crypto_scalarmult_curve25519.obj
 0001:0005b4b0       ?dtor$0@?0??bind_crypto_aead_aes256gcm_beforenm_@@YA?AVValue@Napi@@AEBVCallbackInfo@2@@Z@4HA 000000018005c4b0 f   crypto_aead.obj
 0001:0005b4b0       ?dtor$0@?0??bind_crypto_onetimeauth_poly1305_init_@@YA?AVValue@Napi@@AEBVCallbackInfo@2@@Z@4HA 000000018005c4b0 f   crypto_onetimeauth_poly1305.obj
 0001:0005b4b0       ?dtor$0@?0??bind_crypto_sign_ed25519_sk_to_seed_@@YA?AVValue@Napi@@AEBVCallbackInfo@2@@Z@4HA 000000018005c4b0 f   crypto_sign_ed25519.obj
 0001:0005b4bc       ?dtor$1@?0??bind_crypto_onetimeauth_poly1305_init_@@YA?AVValue@Napi@@AEBVCallbackInfo@2@@Z@4HA 000000018005c4bc f   crypto_onetimeauth_poly1305.obj
 0001:0005b4bc       ?dtor$1@?0??bind_crypto_sign_ed25519_sk_to_pk_@@YA?AVValue@Napi@@AEBVCallbackInfo@2@@Z@4HA 000000018005c4bc f   crypto_sign_ed25519.obj
 0001:0005b4bc       ?dtor$1@?0??bind_crypto_scalarmult_curve25519_base_@@YA?AVValue@Napi@@AEBVCallbackInfo@2@@Z@4HA 000000018005c4bc f   crypto_scalarmult_curve25519.obj
 0001:0005b4bc       ?dtor$1@?0??bind_crypto_aead_aes256gcm_beforenm_@@YA?AVValue@Napi@@AEBVCallbackInfo@2@@Z@4HA 000000018005c4bc f   crypto_aead.obj
 0001:0005b4bc       ?dtor$1@?0??bind_crypto_sign_ed25519_sk_to_seed_@@YA?AVValue@Napi@@AEBVCallbackInfo@2@@Z@4HA 000000018005c4bc f   crypto_sign_ed25519.obj
 0001:0005b4c8       ?dtor$2@?0??bind_crypto_aead_aes256gcm_beforenm_@@YA?AVValue@Napi@@AEBVCallbackInfo@2@@Z@4HA 000000018005c4c8 f   crypto_aead.obj
 0001:0005b4c8       ?dtor$2@?0??bind_crypto_sign_ed25519_sk_to_seed_@@YA?AVValue@Napi@@AEBVCallbackInfo@2@@Z@4HA 000000018005c4c8 f   crypto_sign_ed25519.obj
 0001:0005b4c8       ?dtor$2@?0??bind_crypto_sign_ed25519_sk_to_pk_@@YA?AVValue@Napi@@AEBVCallbackInfo@2@@Z@4HA 000000018005c4c8 f   crypto_sign_ed25519.obj
 0001:0005b4c8       ?dtor$2@?0??bind_crypto_onetimeauth_poly1305_init_@@YA?AVValue@Napi@@AEBVCallbackInfo@2@@Z@4HA 000000018005c4c8 f   crypto_onetimeauth_poly1305.obj
 0001:0005b4c8       ?dtor$2@?0??bind_crypto_scalarmult_curve25519_base_@@YA?AVValue@Napi@@AEBVCallbackInfo@2@@Z@4HA 000000018005c4c8 f   crypto_scalarmult_curve25519.obj
 0001:0005b4e0       ?dtor$0@?0??bind_crypto_aead_aes256gcm_encrypt_afternm_@@YA?AVValue@Napi@@AEBVCallbackInfo@2@@Z@4HA 000000018005c4e0 f   crypto_aead.obj
 0001:0005b4ec       ?dtor$1@?0??bind_crypto_aead_aes256gcm_encrypt_afternm_@@YA?AVValue@Napi@@AEBVCallbackInfo@2@@Z@4HA 000000018005c4ec f   crypto_aead.obj
 0001:0005b4f8       ?dtor$2@?0??bind_crypto_aead_aes256gcm_encrypt_afternm_@@YA?AVValue@Napi@@AEBVCallbackInfo@2@@Z@4HA 000000018005c4f8 f   crypto_aead.obj
 0001:0005b504       ?dtor$3@?0??bind_crypto_aead_aes256gcm_encrypt_afternm_@@YA?AVValue@Napi@@AEBVCallbackInfo@2@@Z@4HA 000000018005c504 f   crypto_aead.obj
 0001:0005b510       ?dtor$4@?0??bind_crypto_aead_aes256gcm_encrypt_afternm_@@YA?AVValue@Napi@@AEBVCallbackInfo@2@@Z@4HA 000000018005c510 f   crypto_aead.obj
 0001:0005b51c       ?dtor$5@?0??bind_crypto_aead_aes256gcm_encrypt_afternm_@@YA?AVValue@Napi@@AEBVCallbackInfo@2@@Z@4HA 000000018005c51c f   crypto_aead.obj
 0001:0005b528       ?dtor$6@?0??bind_crypto_aead_aes256gcm_encrypt_afternm_@@YA?AVValue@Napi@@AEBVCallbackInfo@2@@Z@4HA 000000018005c528 f   crypto_aead.obj
 0001:0005b540       ?dtor$0@?0??bind_crypto_aead_chacha20poly1305_decrypt_@@YA?AVValue@Napi@@AEBVCallbackInfo@2@@Z@4HA 000000018005c540 f   crypto_aead.obj
 0001:0005b540       ?dtor$0@?0??bind_crypto_aead_aes256gcm_decrypt_@@YA?AVValue@Napi@@AEBVCallbackInfo@2@@Z@4HA 000000018005c540 f   crypto_aead.obj
 0001:0005b540       ?dtor$0@?0??bind_crypto_aead_chacha20poly1305_ietf_decrypt_@@YA?AVValue@Napi@@AEBVCallbackInfo@2@@Z@4HA 000000018005c540 f   crypto_aead.obj
 0001:0005b540       ?dtor$0@?0??bind_crypto_aead_aes256gcm_decrypt_afternm_@@YA?AVValue@Napi@@AEBVCallbackInfo@2@@Z@4HA 000000018005c540 f   crypto_aead.obj
 0001:0005b540       ?dtor$0@?0??bind_crypto_aead_xchacha20poly1305_ietf_decrypt_@@YA?AVValue@Napi@@AEBVCallbackInfo@2@@Z@4HA 000000018005c540 f   crypto_aead.obj
 0001:0005b54c       ?dtor$1@?0??bind_crypto_aead_chacha20poly1305_decrypt_@@YA?AVValue@Napi@@AEBVCallbackInfo@2@@Z@4HA 000000018005c54c f   crypto_aead.obj
 0001:0005b54c       ?dtor$1@?0??bind_crypto_aead_xchacha20poly1305_ietf_decrypt_@@YA?AVValue@Napi@@AEBVCallbackInfo@2@@Z@4HA 000000018005c54c f   crypto_aead.obj
 0001:0005b54c       ?dtor$1@?0??bind_crypto_aead_aes256gcm_decrypt_@@YA?AVValue@Napi@@AEBVCallbackInfo@2@@Z@4HA 000000018005c54c f   crypto_aead.obj
 0001:0005b54c       ?dtor$1@?0??bind_crypto_aead_aes256gcm_decrypt_afternm_@@YA?AVValue@Napi@@AEBVCallbackInfo@2@@Z@4HA 000000018005c54c f   crypto_aead.obj
 0001:0005b54c       ?dtor$1@?0??bind_crypto_aead_chacha20poly1305_ietf_decrypt_@@YA?AVValue@Napi@@AEBVCallbackInfo@2@@Z@4HA 000000018005c54c f   crypto_aead.obj
 0001:0005b558       ?dtor$2@?0??bind_crypto_aead_aes256gcm_decrypt_afternm_@@YA?AVValue@Napi@@AEBVCallbackInfo@2@@Z@4HA 000000018005c558 f   crypto_aead.obj
 0001:0005b558       ?dtor$2@?0??bind_crypto_aead_aes256gcm_decrypt_@@YA?AVValue@Napi@@AEBVCallbackInfo@2@@Z@4HA 000000018005c558 f   crypto_aead.obj
 0001:0005b558       ?dtor$2@?0??bind_crypto_aead_chacha20poly1305_decrypt_@@YA?AVValue@Napi@@AEBVCallbackInfo@2@@Z@4HA 000000018005c558 f   crypto_aead.obj
 0001:0005b558       ?dtor$2@?0??bind_crypto_aead_chacha20poly1305_ietf_decrypt_@@YA?AVValue@Napi@@AEBVCallbackInfo@2@@Z@4HA 000000018005c558 f   crypto_aead.obj
 0001:0005b558       ?dtor$2@?0??bind_crypto_aead_xchacha20poly1305_ietf_decrypt_@@YA?AVValue@Napi@@AEBVCallbackInfo@2@@Z@4HA 000000018005c558 f   crypto_aead.obj
 0001:0005b564       ?dtor$3@?0??bind_crypto_aead_xchacha20poly1305_ietf_decrypt_@@YA?AVValue@Napi@@AEBVCallbackInfo@2@@Z@4HA 000000018005c564 f   crypto_aead.obj
 0001:0005b564       ?dtor$3@?0??bind_crypto_aead_chacha20poly1305_decrypt_@@YA?AVValue@Napi@@AEBVCallbackInfo@2@@Z@4HA 000000018005c564 f   crypto_aead.obj
 0001:0005b564       ?dtor$3@?0??bind_crypto_aead_chacha20poly1305_ietf_decrypt_@@YA?AVValue@Napi@@AEBVCallbackInfo@2@@Z@4HA 000000018005c564 f   crypto_aead.obj
 0001:0005b564       ?dtor$3@?0??bind_crypto_aead_aes256gcm_decrypt_@@YA?AVValue@Napi@@AEBVCallbackInfo@2@@Z@4HA 000000018005c564 f   crypto_aead.obj
 0001:0005b564       ?dtor$3@?0??bind_crypto_aead_aes256gcm_decrypt_afternm_@@YA?AVValue@Napi@@AEBVCallbackInfo@2@@Z@4HA 000000018005c564 f   crypto_aead.obj
 0001:0005b570       ?dtor$4@?0??bind_crypto_aead_chacha20poly1305_decrypt_@@YA?AVValue@Napi@@AEBVCallbackInfo@2@@Z@4HA 000000018005c570 f   crypto_aead.obj
 0001:0005b570       ?dtor$4@?0??bind_crypto_aead_aes256gcm_decrypt_afternm_@@YA?AVValue@Napi@@AEBVCallbackInfo@2@@Z@4HA 000000018005c570 f   crypto_aead.obj
 0001:0005b570       ?dtor$4@?0??bind_crypto_aead_aes256gcm_decrypt_@@YA?AVValue@Napi@@AEBVCallbackInfo@2@@Z@4HA 000000018005c570 f   crypto_aead.obj
 0001:0005b570       ?dtor$4@?0??bind_crypto_aead_xchacha20poly1305_ietf_decrypt_@@YA?AVValue@Napi@@AEBVCallbackInfo@2@@Z@4HA 000000018005c570 f   crypto_aead.obj
 0001:0005b570       ?dtor$4@?0??bind_crypto_aead_chacha20poly1305_ietf_decrypt_@@YA?AVValue@Napi@@AEBVCallbackInfo@2@@Z@4HA 000000018005c570 f   crypto_aead.obj
 0001:0005b57c       ?dtor$5@?0??bind_crypto_aead_aes256gcm_decrypt_afternm_@@YA?AVValue@Napi@@AEBVCallbackInfo@2@@Z@4HA 000000018005c57c f   crypto_aead.obj
 0001:0005b57c       ?dtor$5@?0??bind_crypto_aead_chacha20poly1305_decrypt_@@YA?AVValue@Napi@@AEBVCallbackInfo@2@@Z@4HA 000000018005c57c f   crypto_aead.obj
 0001:0005b57c       ?dtor$5@?0??bind_crypto_aead_aes256gcm_decrypt_@@YA?AVValue@Napi@@AEBVCallbackInfo@2@@Z@4HA 000000018005c57c f   crypto_aead.obj
 0001:0005b57c       ?dtor$5@?0??bind_crypto_aead_xchacha20poly1305_ietf_decrypt_@@YA?AVValue@Napi@@AEBVCallbackInfo@2@@Z@4HA 000000018005c57c f   crypto_aead.obj
 0001:0005b57c       ?dtor$5@?0??bind_crypto_aead_chacha20poly1305_ietf_decrypt_@@YA?AVValue@Napi@@AEBVCallbackInfo@2@@Z@4HA 000000018005c57c f   crypto_aead.obj
 0001:0005b588       ?dtor$6@?0??bind_crypto_aead_chacha20poly1305_decrypt_@@YA?AVValue@Napi@@AEBVCallbackInfo@2@@Z@4HA 000000018005c588 f   crypto_aead.obj
 0001:0005b588       ?dtor$6@?0??bind_crypto_aead_chacha20poly1305_ietf_decrypt_@@YA?AVValue@Napi@@AEBVCallbackInfo@2@@Z@4HA 000000018005c588 f   crypto_aead.obj
 0001:0005b588       ?dtor$6@?0??bind_crypto_aead_xchacha20poly1305_ietf_decrypt_@@YA?AVValue@Napi@@AEBVCallbackInfo@2@@Z@4HA 000000018005c588 f   crypto_aead.obj
 0001:0005b588       ?dtor$6@?0??bind_crypto_aead_aes256gcm_decrypt_afternm_@@YA?AVValue@Napi@@AEBVCallbackInfo@2@@Z@4HA 000000018005c588 f   crypto_aead.obj
 0001:0005b588       ?dtor$6@?0??bind_crypto_aead_aes256gcm_decrypt_@@YA?AVValue@Napi@@AEBVCallbackInfo@2@@Z@4HA 000000018005c588 f   crypto_aead.obj
 0001:0005b594       ?dtor$7@?0??bind_crypto_aead_aes256gcm_decrypt_afternm_@@YA?AVValue@Napi@@AEBVCallbackInfo@2@@Z@4HA 000000018005c594 f   crypto_aead.obj
 0001:0005b594       ?dtor$7@?0??bind_crypto_aead_aes256gcm_decrypt_@@YA?AVValue@Napi@@AEBVCallbackInfo@2@@Z@4HA 000000018005c594 f   crypto_aead.obj
 0001:0005b594       ?dtor$7@?0??bind_crypto_aead_xchacha20poly1305_ietf_decrypt_@@YA?AVValue@Napi@@AEBVCallbackInfo@2@@Z@4HA 000000018005c594 f   crypto_aead.obj
 0001:0005b594       ?dtor$7@?0??bind_crypto_aead_chacha20poly1305_decrypt_@@YA?AVValue@Napi@@AEBVCallbackInfo@2@@Z@4HA 000000018005c594 f   crypto_aead.obj
 0001:0005b594       ?dtor$7@?0??bind_crypto_aead_chacha20poly1305_ietf_decrypt_@@YA?AVValue@Napi@@AEBVCallbackInfo@2@@Z@4HA 000000018005c594 f   crypto_aead.obj
 0001:0005b5a0       ?dtor$0@?0??bind_crypto_aead_chacha20poly1305_encrypt_detached_@@YA?AVValue@Napi@@AEBVCallbackInfo@2@@Z@4HA 000000018005c5a0 f   crypto_aead.obj
 0001:0005b5a0       ?dtor$0@?0??bind_crypto_aead_aes256gcm_encrypt_detached_@@YA?AVValue@Napi@@AEBVCallbackInfo@2@@Z@4HA 000000018005c5a0 f   crypto_aead.obj
 0001:0005b5a0       ?dtor$0@?0??bind_crypto_aead_aes256gcm_encrypt_detached_afternm_@@YA?AVValue@Napi@@AEBVCallbackInfo@2@@Z@4HA 000000018005c5a0 f   crypto_aead.obj
 0001:0005b5a0       ?dtor$0@?0??bind_crypto_aead_xchacha20poly1305_ietf_encrypt_detached_@@YA?AVValue@Napi@@AEBVCallbackInfo@2@@Z@4HA 000000018005c5a0 f   crypto_aead.obj
 0001:0005b5a0       ?dtor$0@?0??bind_crypto_aead_chacha20poly1305_ietf_encrypt_detached_@@YA?AVValue@Napi@@AEBVCallbackInfo@2@@Z@4HA 000000018005c5a0 f   crypto_aead.obj
 0001:0005b5ac       ?dtor$1@?0??bind_crypto_aead_chacha20poly1305_encrypt_detached_@@YA?AVValue@Napi@@AEBVCallbackInfo@2@@Z@4HA 000000018005c5ac f   crypto_aead.obj
 0001:0005b5ac       ?dtor$1@?0??bind_crypto_aead_xchacha20poly1305_ietf_encrypt_detached_@@YA?AVValue@Napi@@AEBVCallbackInfo@2@@Z@4HA 000000018005c5ac f   crypto_aead.obj
 0001:0005b5ac       ?dtor$1@?0??bind_crypto_aead_chacha20poly1305_ietf_encrypt_detached_@@YA?AVValue@Napi@@AEBVCallbackInfo@2@@Z@4HA 000000018005c5ac f   crypto_aead.obj
 0001:0005b5ac       ?dtor$1@?0??bind_crypto_aead_aes256gcm_encrypt_detached_afternm_@@YA?AVValue@Napi@@AEBVCallbackInfo@2@@Z@4HA 000000018005c5ac f   crypto_aead.obj
 0001:0005b5ac       ?dtor$1@?0??bind_crypto_aead_aes256gcm_encrypt_detached_@@YA?AVValue@Napi@@AEBVCallbackInfo@2@@Z@4HA 000000018005c5ac f   crypto_aead.obj
 0001:0005b5b8       ?dtor$2@?0??bind_crypto_aead_chacha20poly1305_encrypt_detached_@@YA?AVValue@Napi@@AEBVCallbackInfo@2@@Z@4HA 000000018005c5b8 f   crypto_aead.obj
 0001:0005b5b8       ?dtor$2@?0??bind_crypto_aead_aes256gcm_encrypt_detached_@@YA?AVValue@Napi@@AEBVCallbackInfo@2@@Z@4HA 000000018005c5b8 f   crypto_aead.obj
 0001:0005b5b8       ?dtor$2@?0??bind_crypto_aead_xchacha20poly1305_ietf_encrypt_detached_@@YA?AVValue@Napi@@AEBVCallbackInfo@2@@Z@4HA 000000018005c5b8 f   crypto_aead.obj
 0001:0005b5b8       ?dtor$2@?0??bind_crypto_aead_chacha20poly1305_ietf_encrypt_detached_@@YA?AVValue@Napi@@AEBVCallbackInfo@2@@Z@4HA 000000018005c5b8 f   crypto_aead.obj
 0001:0005b5b8       ?dtor$2@?0??bind_crypto_aead_aes256gcm_encrypt_detached_afternm_@@YA?AVValue@Napi@@AEBVCallbackInfo@2@@Z@4HA 000000018005c5b8 f   crypto_aead.obj
 0001:0005b5c4       ?dtor$3@?0??bind_crypto_aead_chacha20poly1305_ietf_encrypt_detached_@@YA?AVValue@Napi@@AEBVCallbackInfo@2@@Z@4HA 000000018005c5c4 f   crypto_aead.obj
 0001:0005b5c4       ?dtor$3@?0??bind_crypto_aead_aes256gcm_encrypt_detached_@@YA?AVValue@Napi@@AEBVCallbackInfo@2@@Z@4HA 000000018005c5c4 f   crypto_aead.obj
 0001:0005b5c4       ?dtor$3@?0??bind_crypto_aead_aes256gcm_encrypt_detached_afternm_@@YA?AVValue@Napi@@AEBVCallbackInfo@2@@Z@4HA 000000018005c5c4 f   crypto_aead.obj
 0001:0005b5c4       ?dtor$3@?0??bind_crypto_aead_xchacha20poly1305_ietf_encrypt_detached_@@YA?AVValue@Napi@@AEBVCallbackInfo@2@@Z@4HA 000000018005c5c4 f   crypto_aead.obj
 0001:0005b5c4       ?dtor$3@?0??bind_crypto_aead_chacha20poly1305_encrypt_detached_@@YA?AVValue@Napi@@AEBVCallbackInfo@2@@Z@4HA 000000018005c5c4 f   crypto_aead.obj
 0001:0005b5d0       ?dtor$4@?0??bind_crypto_aead_aes256gcm_encrypt_detached_@@YA?AVValue@Napi@@AEBVCallbackInfo@2@@Z@4HA 000000018005c5d0 f   crypto_aead.obj
 0001:0005b5d0       ?dtor$4@?0??bind_crypto_aead_chacha20poly1305_encrypt_detached_@@YA?AVValue@Napi@@AEBVCallbackInfo@2@@Z@4HA 000000018005c5d0 f   crypto_aead.obj
 0001:0005b5d0       ?dtor$4@?0??bind_crypto_aead_xchacha20poly1305_ietf_encrypt_detached_@@YA?AVValue@Napi@@AEBVCallbackInfo@2@@Z@4HA 000000018005c5d0 f   crypto_aead.obj
 0001:0005b5d0       ?dtor$4@?0??bind_crypto_aead_aes256gcm_encrypt_detached_afternm_@@YA?AVValue@Napi@@AEBVCallbackInfo@2@@Z@4HA 000000018005c5d0 f   crypto_aead.obj
 0001:0005b5d0       ?dtor$4@?0??bind_crypto_aead_chacha20poly1305_ietf_encrypt_detached_@@YA?AVValue@Napi@@AEBVCallbackInfo@2@@Z@4HA 000000018005c5d0 f   crypto_aead.obj
 0001:0005b5dc       ?dtor$5@?0??bind_crypto_aead_xchacha20poly1305_ietf_encrypt_detached_@@YA?AVValue@Napi@@AEBVCallbackInfo@2@@Z@4HA 000000018005c5dc f   crypto_aead.obj
 0001:0005b5dc       ?dtor$5@?0??bind_crypto_aead_chacha20poly1305_encrypt_detached_@@YA?AVValue@Napi@@AEBVCallbackInfo@2@@Z@4HA 000000018005c5dc f   crypto_aead.obj
 0001:0005b5dc       ?dtor$5@?0??bind_crypto_aead_chacha20poly1305_ietf_encrypt_detached_@@YA?AVValue@Napi@@AEBVCallbackInfo@2@@Z@4HA 000000018005c5dc f   crypto_aead.obj
 0001:0005b5dc       ?dtor$5@?0??bind_crypto_aead_aes256gcm_encrypt_detached_afternm_@@YA?AVValue@Napi@@AEBVCallbackInfo@2@@Z@4HA 000000018005c5dc f   crypto_aead.obj
 0001:0005b5dc       ?dtor$5@?0??bind_crypto_aead_aes256gcm_encrypt_detached_@@YA?AVValue@Napi@@AEBVCallbackInfo@2@@Z@4HA 000000018005c5dc f   crypto_aead.obj
 0001:0005b5e8       ?dtor$6@?0??bind_crypto_aead_aes256gcm_encrypt_detached_@@YA?AVValue@Napi@@AEBVCallbackInfo@2@@Z@4HA 000000018005c5e8 f   crypto_aead.obj
 0001:0005b5e8       ?dtor$6@?0??bind_crypto_aead_chacha20poly1305_ietf_encrypt_detached_@@YA?AVValue@Napi@@AEBVCallbackInfo@2@@Z@4HA 000000018005c5e8 f   crypto_aead.obj
 0001:0005b5e8       ?dtor$6@?0??bind_crypto_aead_xchacha20poly1305_ietf_encrypt_detached_@@YA?AVValue@Napi@@AEBVCallbackInfo@2@@Z@4HA 000000018005c5e8 f   crypto_aead.obj
 0001:0005b5e8       ?dtor$6@?0??bind_crypto_aead_aes256gcm_encrypt_detached_afternm_@@YA?AVValue@Napi@@AEBVCallbackInfo@2@@Z@4HA 000000018005c5e8 f   crypto_aead.obj
 0001:0005b5e8       ?dtor$6@?0??bind_crypto_aead_chacha20poly1305_encrypt_detached_@@YA?AVValue@Napi@@AEBVCallbackInfo@2@@Z@4HA 000000018005c5e8 f   crypto_aead.obj
 0001:0005b600       ?dtor$0@?0??bind_crypto_aead_aes256gcm_decrypt_detached_afternm_@@YA?AVValue@Napi@@AEBVCallbackInfo@2@@Z@4HA 000000018005c600 f   crypto_aead.obj
 0001:0005b60c       ?dtor$1@?0??bind_crypto_aead_aes256gcm_decrypt_detached_afternm_@@YA?AVValue@Napi@@AEBVCallbackInfo@2@@Z@4HA 000000018005c60c f   crypto_aead.obj
 0001:0005b618       ?dtor$2@?0??bind_crypto_aead_aes256gcm_decrypt_detached_afternm_@@YA?AVValue@Napi@@AEBVCallbackInfo@2@@Z@4HA 000000018005c618 f   crypto_aead.obj
 0001:0005b624       ?dtor$3@?0??bind_crypto_aead_aes256gcm_decrypt_detached_afternm_@@YA?AVValue@Napi@@AEBVCallbackInfo@2@@Z@4HA 000000018005c624 f   crypto_aead.obj
 0001:0005b630       ?dtor$4@?0??bind_crypto_aead_aes256gcm_decrypt_detached_afternm_@@YA?AVValue@Napi@@AEBVCallbackInfo@2@@Z@4HA 000000018005c630 f   crypto_aead.obj
 0001:0005b63c       ?dtor$5@?0??bind_crypto_aead_aes256gcm_decrypt_detached_afternm_@@YA?AVValue@Napi@@AEBVCallbackInfo@2@@Z@4HA 000000018005c63c f   crypto_aead.obj
 0001:0005b648       ?dtor$6@?0??bind_crypto_aead_aes256gcm_decrypt_detached_afternm_@@YA?AVValue@Napi@@AEBVCallbackInfo@2@@Z@4HA 000000018005c648 f   crypto_aead.obj
 0001:0005b654       ?dtor$7@?0??bind_crypto_aead_aes256gcm_decrypt_detached_afternm_@@YA?AVValue@Napi@@AEBVCallbackInfo@2@@Z@4HA 000000018005c654 f   crypto_aead.obj
 0001:0005b660       ?dtor$8@?0??bind_crypto_aead_aes256gcm_decrypt_detached_afternm_@@YA?AVValue@Napi@@AEBVCallbackInfo@2@@Z@4HA 000000018005c660 f   crypto_aead.obj
 0001:0005b670       ?dtor$0@?0??bind_crypto_aead_aes256gcm_encrypt_@@YA?AVValue@Napi@@AEBVCallbackInfo@2@@Z@4HA 000000018005c670 f   crypto_aead.obj
 0001:0005b670       ?dtor$0@?0??bind_crypto_aead_chacha20poly1305_encrypt_@@YA?AVValue@Napi@@AEBVCallbackInfo@2@@Z@4HA 000000018005c670 f   crypto_aead.obj
 0001:0005b670       ?dtor$0@?0??bind_crypto_aead_xchacha20poly1305_ietf_encrypt_@@YA?AVValue@Napi@@AEBVCallbackInfo@2@@Z@4HA 000000018005c670 f   crypto_aead.obj
 0001:0005b670       ?dtor$0@?0??bind_crypto_aead_chacha20poly1305_ietf_encrypt_@@YA?AVValue@Napi@@AEBVCallbackInfo@2@@Z@4HA 000000018005c670 f   crypto_aead.obj
 0001:0005b67c       ?dtor$1@?0??bind_crypto_aead_chacha20poly1305_encrypt_@@YA?AVValue@Napi@@AEBVCallbackInfo@2@@Z@4HA 000000018005c67c f   crypto_aead.obj
 0001:0005b67c       ?dtor$1@?0??bind_crypto_aead_chacha20poly1305_ietf_encrypt_@@YA?AVValue@Napi@@AEBVCallbackInfo@2@@Z@4HA 000000018005c67c f   crypto_aead.obj
 0001:0005b67c       ?dtor$1@?0??bind_crypto_aead_xchacha20poly1305_ietf_encrypt_@@YA?AVValue@Napi@@AEBVCallbackInfo@2@@Z@4HA 000000018005c67c f   crypto_aead.obj
 0001:0005b67c       ?dtor$1@?0??bind_crypto_aead_aes256gcm_encrypt_@@YA?AVValue@Napi@@AEBVCallbackInfo@2@@Z@4HA 000000018005c67c f   crypto_aead.obj
 0001:0005b688       ?dtor$2@?0??bind_crypto_aead_chacha20poly1305_encrypt_@@YA?AVValue@Napi@@AEBVCallbackInfo@2@@Z@4HA 000000018005c688 f   crypto_aead.obj
 0001:0005b688       ?dtor$2@?0??bind_crypto_aead_aes256gcm_encrypt_@@YA?AVValue@Napi@@AEBVCallbackInfo@2@@Z@4HA 000000018005c688 f   crypto_aead.obj
 0001:0005b688       ?dtor$2@?0??bind_crypto_aead_chacha20poly1305_ietf_encrypt_@@YA?AVValue@Napi@@AEBVCallbackInfo@2@@Z@4HA 000000018005c688 f   crypto_aead.obj
 0001:0005b688       ?dtor$2@?0??bind_crypto_aead_xchacha20poly1305_ietf_encrypt_@@YA?AVValue@Napi@@AEBVCallbackInfo@2@@Z@4HA 000000018005c688 f   crypto_aead.obj
 0001:0005b694       ?dtor$3@?0??bind_crypto_aead_xchacha20poly1305_ietf_encrypt_@@YA?AVValue@Napi@@AEBVCallbackInfo@2@@Z@4HA 000000018005c694 f   crypto_aead.obj
 0001:0005b694       ?dtor$3@?0??bind_crypto_aead_chacha20poly1305_encrypt_@@YA?AVValue@Napi@@AEBVCallbackInfo@2@@Z@4HA 000000018005c694 f   crypto_aead.obj
 0001:0005b694       ?dtor$3@?0??bind_crypto_aead_aes256gcm_encrypt_@@YA?AVValue@Napi@@AEBVCallbackInfo@2@@Z@4HA 000000018005c694 f   crypto_aead.obj
 0001:0005b694       ?dtor$3@?0??bind_crypto_aead_chacha20poly1305_ietf_encrypt_@@YA?AVValue@Napi@@AEBVCallbackInfo@2@@Z@4HA 000000018005c694 f   crypto_aead.obj
 0001:0005b6a0       ?dtor$4@?0??bind_crypto_aead_aes256gcm_encrypt_@@YA?AVValue@Napi@@AEBVCallbackInfo@2@@Z@4HA 000000018005c6a0 f   crypto_aead.obj
 0001:0005b6a0       ?dtor$4@?0??bind_crypto_aead_xchacha20poly1305_ietf_encrypt_@@YA?AVValue@Napi@@AEBVCallbackInfo@2@@Z@4HA 000000018005c6a0 f   crypto_aead.obj
 0001:0005b6a0       ?dtor$4@?0??bind_crypto_aead_chacha20poly1305_encrypt_@@YA?AVValue@Napi@@AEBVCallbackInfo@2@@Z@4HA 000000018005c6a0 f   crypto_aead.obj
 0001:0005b6a0       ?dtor$4@?0??bind_crypto_aead_chacha20poly1305_ietf_encrypt_@@YA?AVValue@Napi@@AEBVCallbackInfo@2@@Z@4HA 000000018005c6a0 f   crypto_aead.obj
 0001:0005b6ac       ?dtor$5@?0??bind_crypto_aead_xchacha20poly1305_ietf_encrypt_@@YA?AVValue@Napi@@AEBVCallbackInfo@2@@Z@4HA 000000018005c6ac f   crypto_aead.obj
 0001:0005b6ac       ?dtor$5@?0??bind_crypto_aead_aes256gcm_encrypt_@@YA?AVValue@Napi@@AEBVCallbackInfo@2@@Z@4HA 000000018005c6ac f   crypto_aead.obj
 0001:0005b6ac       ?dtor$5@?0??bind_crypto_aead_chacha20poly1305_encrypt_@@YA?AVValue@Napi@@AEBVCallbackInfo@2@@Z@4HA 000000018005c6ac f   crypto_aead.obj
 0001:0005b6ac       ?dtor$5@?0??bind_crypto_aead_chacha20poly1305_ietf_encrypt_@@YA?AVValue@Napi@@AEBVCallbackInfo@2@@Z@4HA 000000018005c6ac f   crypto_aead.obj
 0001:0005b6b8       ?dtor$6@?0??bind_crypto_aead_xchacha20poly1305_ietf_encrypt_@@YA?AVValue@Napi@@AEBVCallbackInfo@2@@Z@4HA 000000018005c6b8 f   crypto_aead.obj
 0001:0005b6b8       ?dtor$6@?0??bind_crypto_aead_aes256gcm_encrypt_@@YA?AVValue@Napi@@AEBVCallbackInfo@2@@Z@4HA 000000018005c6b8 f   crypto_aead.obj
 0001:0005b6b8       ?dtor$6@?0??bind_crypto_aead_chacha20poly1305_encrypt_@@YA?AVValue@Napi@@AEBVCallbackInfo@2@@Z@4HA 000000018005c6b8 f   crypto_aead.obj
 0001:0005b6b8       ?dtor$6@?0??bind_crypto_aead_chacha20poly1305_ietf_encrypt_@@YA?AVValue@Napi@@AEBVCallbackInfo@2@@Z@4HA 000000018005c6b8 f   crypto_aead.obj
 0001:0005b6d0       ?dtor$0@?0??bind_crypto_aead_chacha20poly1305_decrypt_detached_@@YA?AVValue@Napi@@AEBVCallbackInfo@2@@Z@4HA 000000018005c6d0 f   crypto_aead.obj
 0001:0005b6d0       ?dtor$0@?0??bind_crypto_aead_chacha20poly1305_ietf_decrypt_detached_@@YA?AVValue@Napi@@AEBVCallbackInfo@2@@Z@4HA 000000018005c6d0 f   crypto_aead.obj
 0001:0005b6d0       ?dtor$0@?0??bind_crypto_aead_aes256gcm_decrypt_detached_@@YA?AVValue@Napi@@AEBVCallbackInfo@2@@Z@4HA 000000018005c6d0 f   crypto_aead.obj
 0001:0005b6d0       ?dtor$0@?0??bind_crypto_aead_xchacha20poly1305_ietf_decrypt_detached_@@YA?AVValue@Napi@@AEBVCallbackInfo@2@@Z@4HA 000000018005c6d0 f   crypto_aead.obj
 0001:0005b6dc       ?dtor$1@?0??bind_crypto_aead_chacha20poly1305_decrypt_detached_@@YA?AVValue@Napi@@AEBVCallbackInfo@2@@Z@4HA 000000018005c6dc f   crypto_aead.obj
 0001:0005b6dc       ?dtor$1@?0??bind_crypto_aead_aes256gcm_decrypt_detached_@@YA?AVValue@Napi@@AEBVCallbackInfo@2@@Z@4HA 000000018005c6dc f   crypto_aead.obj
 0001:0005b6dc       ?dtor$1@?0??bind_crypto_aead_chacha20poly1305_ietf_decrypt_detached_@@YA?AVValue@Napi@@AEBVCallbackInfo@2@@Z@4HA 000000018005c6dc f   crypto_aead.obj
 0001:0005b6dc       ?dtor$1@?0??bind_crypto_aead_xchacha20poly1305_ietf_decrypt_detached_@@YA?AVValue@Napi@@AEBVCallbackInfo@2@@Z@4HA 000000018005c6dc f   crypto_aead.obj
 0001:0005b6e8       ?dtor$2@?0??bind_crypto_aead_aes256gcm_decrypt_detached_@@YA?AVValue@Napi@@AEBVCallbackInfo@2@@Z@4HA 000000018005c6e8 f   crypto_aead.obj
 0001:0005b6e8       ?dtor$2@?0??bind_crypto_aead_chacha20poly1305_decrypt_detached_@@YA?AVValue@Napi@@AEBVCallbackInfo@2@@Z@4HA 000000018005c6e8 f   crypto_aead.obj
 0001:0005b6e8       ?dtor$2@?0??bind_crypto_aead_xchacha20poly1305_ietf_decrypt_detached_@@YA?AVValue@Napi@@AEBVCallbackInfo@2@@Z@4HA 000000018005c6e8 f   crypto_aead.obj
 0001:0005b6e8       ?dtor$2@?0??bind_crypto_aead_chacha20poly1305_ietf_decrypt_detached_@@YA?AVValue@Napi@@AEBVCallbackInfo@2@@Z@4HA 000000018005c6e8 f   crypto_aead.obj
 0001:0005b6f4       ?dtor$3@?0??bind_crypto_aead_aes256gcm_decrypt_detached_@@YA?AVValue@Napi@@AEBVCallbackInfo@2@@Z@4HA 000000018005c6f4 f   crypto_aead.obj
 0001:0005b6f4       ?dtor$3@?0??bind_crypto_aead_chacha20poly1305_decrypt_detached_@@YA?AVValue@Napi@@AEBVCallbackInfo@2@@Z@4HA 000000018005c6f4 f   crypto_aead.obj
 0001:0005b6f4       ?dtor$3@?0??bind_crypto_aead_xchacha20poly1305_ietf_decrypt_detached_@@YA?AVValue@Napi@@AEBVCallbackInfo@2@@Z@4HA 000000018005c6f4 f   crypto_aead.obj
 0001:0005b6f4       ?dtor$3@?0??bind_crypto_aead_chacha20poly1305_ietf_decrypt_detached_@@YA?AVValue@Napi@@AEBVCallbackInfo@2@@Z@4HA 000000018005c6f4 f   crypto_aead.obj
 0001:0005b700       ?dtor$4@?0??bind_crypto_aead_xchacha20poly1305_ietf_decrypt_detached_@@YA?AVValue@Napi@@AEBVCallbackInfo@2@@Z@4HA 000000018005c700 f   crypto_aead.obj
 0001:0005b700       ?dtor$4@?0??bind_crypto_aead_chacha20poly1305_decrypt_detached_@@YA?AVValue@Napi@@AEBVCallbackInfo@2@@Z@4HA 000000018005c700 f   crypto_aead.obj
 0001:0005b700       ?dtor$4@?0??bind_crypto_aead_aes256gcm_decrypt_detached_@@YA?AVValue@Napi@@AEBVCallbackInfo@2@@Z@4HA 000000018005c700 f   crypto_aead.obj
 0001:0005b700       ?dtor$4@?0??bind_crypto_aead_chacha20poly1305_ietf_decrypt_detached_@@YA?AVValue@Napi@@AEBVCallbackInfo@2@@Z@4HA 000000018005c700 f   crypto_aead.obj
 0001:0005b70c       ?dtor$5@?0??bind_crypto_aead_xchacha20poly1305_ietf_decrypt_detached_@@YA?AVValue@Napi@@AEBVCallbackInfo@2@@Z@4HA 000000018005c70c f   crypto_aead.obj
 0001:0005b70c       ?dtor$5@?0??bind_crypto_aead_chacha20poly1305_decrypt_detached_@@YA?AVValue@Napi@@AEBVCallbackInfo@2@@Z@4HA 000000018005c70c f   crypto_aead.obj
 0001:0005b70c       ?dtor$5@?0??bind_crypto_aead_chacha20poly1305_ietf_decrypt_detached_@@YA?AVValue@Napi@@AEBVCallbackInfo@2@@Z@4HA 000000018005c70c f   crypto_aead.obj
 0001:0005b70c       ?dtor$5@?0??bind_crypto_aead_aes256gcm_decrypt_detached_@@YA?AVValue@Napi@@AEBVCallbackInfo@2@@Z@4HA 000000018005c70c f   crypto_aead.obj
 0001:0005b718       ?dtor$6@?0??bind_crypto_aead_chacha20poly1305_ietf_decrypt_detached_@@YA?AVValue@Napi@@AEBVCallbackInfo@2@@Z@4HA 000000018005c718 f   crypto_aead.obj
 0001:0005b718       ?dtor$6@?0??bind_crypto_aead_chacha20poly1305_decrypt_detached_@@YA?AVValue@Napi@@AEBVCallbackInfo@2@@Z@4HA 000000018005c718 f   crypto_aead.obj
 0001:0005b718       ?dtor$6@?0??bind_crypto_aead_xchacha20poly1305_ietf_decrypt_detached_@@YA?AVValue@Napi@@AEBVCallbackInfo@2@@Z@4HA 000000018005c718 f   crypto_aead.obj
 0001:0005b718       ?dtor$6@?0??bind_crypto_aead_aes256gcm_decrypt_detached_@@YA?AVValue@Napi@@AEBVCallbackInfo@2@@Z@4HA 000000018005c718 f   crypto_aead.obj
 0001:0005b724       ?dtor$7@?0??bind_crypto_aead_chacha20poly1305_decrypt_detached_@@YA?AVValue@Napi@@AEBVCallbackInfo@2@@Z@4HA 000000018005c724 f   crypto_aead.obj
 0001:0005b724       ?dtor$7@?0??bind_crypto_aead_chacha20poly1305_ietf_decrypt_detached_@@YA?AVValue@Napi@@AEBVCallbackInfo@2@@Z@4HA 000000018005c724 f   crypto_aead.obj
 0001:0005b724       ?dtor$7@?0??bind_crypto_aead_xchacha20poly1305_ietf_decrypt_detached_@@YA?AVValue@Napi@@AEBVCallbackInfo@2@@Z@4HA 000000018005c724 f   crypto_aead.obj
 0001:0005b724       ?dtor$7@?0??bind_crypto_aead_aes256gcm_decrypt_detached_@@YA?AVValue@Napi@@AEBVCallbackInfo@2@@Z@4HA 000000018005c724 f   crypto_aead.obj
 0001:0005b730       ?dtor$8@?0??bind_crypto_aead_aes256gcm_decrypt_detached_@@YA?AVValue@Napi@@AEBVCallbackInfo@2@@Z@4HA 000000018005c730 f   crypto_aead.obj
 0001:0005b730       ?dtor$8@?0??bind_crypto_aead_chacha20poly1305_decrypt_detached_@@YA?AVValue@Napi@@AEBVCallbackInfo@2@@Z@4HA 000000018005c730 f   crypto_aead.obj
 0001:0005b730       ?dtor$8@?0??bind_crypto_aead_chacha20poly1305_ietf_decrypt_detached_@@YA?AVValue@Napi@@AEBVCallbackInfo@2@@Z@4HA 000000018005c730 f   crypto_aead.obj
 0001:0005b730       ?dtor$8@?0??bind_crypto_aead_xchacha20poly1305_ietf_decrypt_detached_@@YA?AVValue@Napi@@AEBVCallbackInfo@2@@Z@4HA 000000018005c730 f   crypto_aead.obj
 0001:0005b740       ?dtor$0@?0???R<lambda_4b130013be4a466940e6fe08d32cda83>@@QEBA?AVValue@Napi@@XZ@4HA 000000018005c740 f   crypto_aead.obj
 0001:0005b750       ?catch$1@?0???$WrapCallback@V<lambda_4b130013be4a466940e6fe08d32cda83>@@@details@Napi@@YAPEAUnapi_value__@@V<lambda_4b130013be4a466940e6fe08d32cda83>@@@Z@4HA 000000018005c750 f   crypto_aead.obj
 0001:0005b75d       __catch$??$WrapCallback@V<lambda_4b130013be4a466940e6fe08d32cda83>@@@details@Napi@@YAPEAUnapi_value__@@V<lambda_4b130013be4a466940e6fe08d32cda83>@@@Z$0 000000018005c75d f   crypto_aead.obj
 0001:0005b780       ?dtor$0@?0??bind_crypto_pwhash_str_verify_@@YA?AVValue@Napi@@AEBVCallbackInfo@2@@Z@4HA 000000018005c780 f   crypto_pwhash.obj
 0001:0005b780       ?dtor$0@?0??bind_compare_@@YA?AVValue@Napi@@AEBVCallbackInfo@2@@Z@4HA 000000018005c780 f   helpers.obj
 0001:0005b780       ?dtor$0@?0??bind_crypto_hash_sha512_update_@@YA?AVValue@Napi@@AEBVCallbackInfo@2@@Z@4HA 000000018005c780 f   crypto_hash_sha512.obj
 0001:0005b780       ?dtor$0@?0??bind_randombytes_buf_deterministic_@@YA?AVValue@Napi@@AEBVCallbackInfo@2@@Z@4HA 000000018005c780 f   randombytes.obj
 0001:0005b780       ?dtor$0@?0??bind_add_@@YA?AVValue@Napi@@AEBVCallbackInfo@2@@Z@4HA 000000018005c780 f   helpers.obj
 0001:0005b780       ?dtor$0@?0??bind_crypto_hash_sha256_update_@@YA?AVValue@Napi@@AEBVCallbackInfo@2@@Z@4HA 000000018005c780 f   crypto_hash_sha256.obj
 0001:0005b780       ?dtor$0@?0??bind_crypto_generichash_update_@@YA?AVValue@Napi@@AEBVCallbackInfo@2@@Z@4HA 000000018005c780 f   crypto_generichash.obj
 0001:0005b780       ?dtor$0@?0??bind_crypto_pwhash_argon2id_str_verify_@@YA?AVValue@Napi@@AEBVCallbackInfo@2@@Z@4HA 000000018005c780 f   crypto_pwhash_algos.obj
 0001:0005b780       ?dtor$0@?0??bind_crypto_sign_ed25519_sk_to_curve25519_@@YA?AVValue@Napi@@AEBVCallbackInfo@2@@Z@4HA 000000018005c780 f   crypto_sign_ed25519.obj
 0001:0005b780       ?dtor$0@?0??bind_crypto_pwhash_scryptsalsa208sha256_str_verify_@@YA?AVValue@Napi@@AEBVCallbackInfo@2@@Z@4HA 000000018005c780 f   crypto_pwhash_algos.obj
 0001:0005b780       ?dtor$0@?0??bind_crypto_generichash_blake2b_update_@@YA?AVValue@Napi@@AEBVCallbackInfo@2@@Z@4HA 000000018005c780 f   crypto_generichash_blake2b.obj
 0001:0005b780       ?dtor$0@?0??bind_crypto_onetimeauth_poly1305_update_@@YA?AVValue@Napi@@AEBVCallbackInfo@2@@Z@4HA 000000018005c780 f   crypto_onetimeauth_poly1305.obj
 0001:0005b780       ?dtor$0@?0??bind_crypto_pwhash_argon2i_str_verify_@@YA?AVValue@Napi@@AEBVCallbackInfo@2@@Z@4HA 000000018005c780 f   crypto_pwhash_algos.obj
 0001:0005b780       ?dtor$0@?0??bind_crypto_sign_ed25519_pk_to_curve25519_@@YA?AVValue@Napi@@AEBVCallbackInfo@2@@Z@4HA 000000018005c780 f   crypto_sign_ed25519.obj
 0001:0005b78c       ?dtor$1@?0??bind_crypto_pwhash_str_verify_@@YA?AVValue@Napi@@AEBVCallbackInfo@2@@Z@4HA 000000018005c78c f   crypto_pwhash.obj
 0001:0005b78c       ?dtor$1@?0??bind_crypto_generichash_update_@@YA?AVValue@Napi@@AEBVCallbackInfo@2@@Z@4HA 000000018005c78c f   crypto_generichash.obj
 0001:0005b78c       ?dtor$1@?0??bind_crypto_pwhash_argon2i_str_verify_@@YA?AVValue@Napi@@AEBVCallbackInfo@2@@Z@4HA 000000018005c78c f   crypto_pwhash_algos.obj
 0001:0005b78c       ?dtor$1@?0??bind_crypto_pwhash_argon2id_str_verify_@@YA?AVValue@Napi@@AEBVCallbackInfo@2@@Z@4HA 000000018005c78c f   crypto_pwhash_algos.obj
 0001:0005b78c       ?dtor$1@?0??bind_crypto_sign_ed25519_pk_to_curve25519_@@YA?AVValue@Napi@@AEBVCallbackInfo@2@@Z@4HA 000000018005c78c f   crypto_sign_ed25519.obj
 0001:0005b78c       ?dtor$1@?0??bind_crypto_hash_sha512_update_@@YA?AVValue@Napi@@AEBVCallbackInfo@2@@Z@4HA 000000018005c78c f   crypto_hash_sha512.obj
 0001:0005b78c       ?dtor$1@?0??bind_crypto_hash_sha256_update_@@YA?AVValue@Napi@@AEBVCallbackInfo@2@@Z@4HA 000000018005c78c f   crypto_hash_sha256.obj
 0001:0005b78c       ?dtor$1@?0??bind_randombytes_buf_deterministic_@@YA?AVValue@Napi@@AEBVCallbackInfo@2@@Z@4HA 000000018005c78c f   randombytes.obj
 0001:0005b78c       ?dtor$1@?0??bind_add_@@YA?AVValue@Napi@@AEBVCallbackInfo@2@@Z@4HA 000000018005c78c f   helpers.obj
 0001:0005b78c       ?dtor$1@?0??bind_crypto_sign_ed25519_sk_to_curve25519_@@YA?AVValue@Napi@@AEBVCallbackInfo@2@@Z@4HA 000000018005c78c f   crypto_sign_ed25519.obj
 0001:0005b78c       ?dtor$1@?0??bind_crypto_pwhash_scryptsalsa208sha256_str_verify_@@YA?AVValue@Napi@@AEBVCallbackInfo@2@@Z@4HA 000000018005c78c f   crypto_pwhash_algos.obj
 0001:0005b78c       ?dtor$1@?0??bind_compare_@@YA?AVValue@Napi@@AEBVCallbackInfo@2@@Z@4HA 000000018005c78c f   helpers.obj
 0001:0005b78c       ?dtor$1@?0??bind_crypto_onetimeauth_poly1305_update_@@YA?AVValue@Napi@@AEBVCallbackInfo@2@@Z@4HA 000000018005c78c f   crypto_onetimeauth_poly1305.obj
 0001:0005b78c       ?dtor$1@?0??bind_crypto_generichash_blake2b_update_@@YA?AVValue@Napi@@AEBVCallbackInfo@2@@Z@4HA 000000018005c78c f   crypto_generichash_blake2b.obj
 0001:0005b798       ?dtor$2@?0??bind_crypto_pwhash_argon2i_str_verify_@@YA?AVValue@Napi@@AEBVCallbackInfo@2@@Z@4HA 000000018005c798 f   crypto_pwhash_algos.obj
 0001:0005b798       ?dtor$2@?0??bind_randombytes_buf_deterministic_@@YA?AVValue@Napi@@AEBVCallbackInfo@2@@Z@4HA 000000018005c798 f   randombytes.obj
 0001:0005b798       ?dtor$2@?0??bind_crypto_hash_sha512_update_@@YA?AVValue@Napi@@AEBVCallbackInfo@2@@Z@4HA 000000018005c798 f   crypto_hash_sha512.obj
 0001:0005b798       ?dtor$2@?0??bind_crypto_pwhash_argon2id_str_verify_@@YA?AVValue@Napi@@AEBVCallbackInfo@2@@Z@4HA 000000018005c798 f   crypto_pwhash_algos.obj
 0001:0005b798       ?dtor$2@?0??bind_crypto_pwhash_str_verify_@@YA?AVValue@Napi@@AEBVCallbackInfo@2@@Z@4HA 000000018005c798 f   crypto_pwhash.obj
 0001:0005b798       ?dtor$2@?0??bind_crypto_pwhash_scryptsalsa208sha256_str_verify_@@YA?AVValue@Napi@@AEBVCallbackInfo@2@@Z@4HA 000000018005c798 f   crypto_pwhash_algos.obj
 0001:0005b798       ?dtor$2@?0??bind_crypto_sign_ed25519_pk_to_curve25519_@@YA?AVValue@Napi@@AEBVCallbackInfo@2@@Z@4HA 000000018005c798 f   crypto_sign_ed25519.obj
 0001:0005b798       ?dtor$2@?0??bind_crypto_generichash_blake2b_update_@@YA?AVValue@Napi@@AEBVCallbackInfo@2@@Z@4HA 000000018005c798 f   crypto_generichash_blake2b.obj
 0001:0005b798       ?dtor$2@?0??bind_crypto_hash_sha256_update_@@YA?AVValue@Napi@@AEBVCallbackInfo@2@@Z@4HA 000000018005c798 f   crypto_hash_sha256.obj
 0001:0005b798       ?dtor$2@?0??bind_crypto_sign_ed25519_sk_to_curve25519_@@YA?AVValue@Napi@@AEBVCallbackInfo@2@@Z@4HA 000000018005c798 f   crypto_sign_ed25519.obj
 0001:0005b798       ?dtor$2@?0??bind_crypto_generichash_update_@@YA?AVValue@Napi@@AEBVCallbackInfo@2@@Z@4HA 000000018005c798 f   crypto_generichash.obj
 0001:0005b798       ?dtor$2@?0??bind_crypto_onetimeauth_poly1305_update_@@YA?AVValue@Napi@@AEBVCallbackInfo@2@@Z@4HA 000000018005c798 f   crypto_onetimeauth_poly1305.obj
 0001:0005b798       ?dtor$2@?0??bind_add_@@YA?AVValue@Napi@@AEBVCallbackInfo@2@@Z@4HA 000000018005c798 f   helpers.obj
 0001:0005b798       ?dtor$2@?0??bind_compare_@@YA?AVValue@Napi@@AEBVCallbackInfo@2@@Z@4HA 000000018005c798 f   helpers.obj
 0001:0005b7a4       ?dtor$3@?0??bind_crypto_sign_ed25519_pk_to_curve25519_@@YA?AVValue@Napi@@AEBVCallbackInfo@2@@Z@4HA 000000018005c7a4 f   crypto_sign_ed25519.obj
 0001:0005b7a4       ?dtor$3@?0??bind_compare_@@YA?AVValue@Napi@@AEBVCallbackInfo@2@@Z@4HA 000000018005c7a4 f   helpers.obj
 0001:0005b7a4       ?dtor$3@?0??bind_crypto_hash_sha256_update_@@YA?AVValue@Napi@@AEBVCallbackInfo@2@@Z@4HA 000000018005c7a4 f   crypto_hash_sha256.obj
 0001:0005b7a4       ?dtor$3@?0??bind_crypto_generichash_update_@@YA?AVValue@Napi@@AEBVCallbackInfo@2@@Z@4HA 000000018005c7a4 f   crypto_generichash.obj
 0001:0005b7a4       ?dtor$3@?0??bind_add_@@YA?AVValue@Napi@@AEBVCallbackInfo@2@@Z@4HA 000000018005c7a4 f   helpers.obj
 0001:0005b7a4       ?dtor$3@?0??bind_crypto_generichash_blake2b_update_@@YA?AVValue@Napi@@AEBVCallbackInfo@2@@Z@4HA 000000018005c7a4 f   crypto_generichash_blake2b.obj
 0001:0005b7a4       ?dtor$3@?0??bind_randombytes_buf_deterministic_@@YA?AVValue@Napi@@AEBVCallbackInfo@2@@Z@4HA 000000018005c7a4 f   randombytes.obj
 0001:0005b7a4       ?dtor$3@?0??bind_crypto_hash_sha512_update_@@YA?AVValue@Napi@@AEBVCallbackInfo@2@@Z@4HA 000000018005c7a4 f   crypto_hash_sha512.obj
 0001:0005b7a4       ?dtor$3@?0??bind_crypto_pwhash_argon2i_str_verify_@@YA?AVValue@Napi@@AEBVCallbackInfo@2@@Z@4HA 000000018005c7a4 f   crypto_pwhash_algos.obj
 0001:0005b7a4       ?dtor$3@?0??bind_crypto_pwhash_argon2id_str_verify_@@YA?AVValue@Napi@@AEBVCallbackInfo@2@@Z@4HA 000000018005c7a4 f   crypto_pwhash_algos.obj
 0001:0005b7a4       ?dtor$3@?0??bind_crypto_onetimeauth_poly1305_update_@@YA?AVValue@Napi@@AEBVCallbackInfo@2@@Z@4HA 000000018005c7a4 f   crypto_onetimeauth_poly1305.obj
 0001:0005b7a4       ?dtor$3@?0??bind_crypto_pwhash_str_verify_@@YA?AVValue@Napi@@AEBVCallbackInfo@2@@Z@4HA 000000018005c7a4 f   crypto_pwhash.obj
 0001:0005b7a4       ?dtor$3@?0??bind_crypto_pwhash_scryptsalsa208sha256_str_verify_@@YA?AVValue@Napi@@AEBVCallbackInfo@2@@Z@4HA 000000018005c7a4 f   crypto_pwhash_algos.obj
 0001:0005b7a4       ?dtor$3@?0??bind_crypto_sign_ed25519_sk_to_curve25519_@@YA?AVValue@Napi@@AEBVCallbackInfo@2@@Z@4HA 000000018005c7a4 f   crypto_sign_ed25519.obj
 0001:0005b7b0       ?dtor$0@?0??bind_crypto_sign_ed25519_@@YA?AVValue@Napi@@AEBVCallbackInfo@2@@Z@4HA 000000018005c7b0 f   crypto_sign_ed25519.obj
 0001:0005b7b0       ?dtor$0@?0??bind_crypto_sign_ed25519_open_@@YA?AVValue@Napi@@AEBVCallbackInfo@2@@Z@4HA 000000018005c7b0 f   crypto_sign_ed25519.obj
 0001:0005b7b0       ?dtor$0@?0??bind_crypto_sign_ed25519_detached_@@YA?AVValue@Napi@@AEBVCallbackInfo@2@@Z@4HA 000000018005c7b0 f   crypto_sign_ed25519.obj
 0001:0005b7bc       ?dtor$1@?0??bind_crypto_sign_ed25519_detached_@@YA?AVValue@Napi@@AEBVCallbackInfo@2@@Z@4HA 000000018005c7bc f   crypto_sign_ed25519.obj
 0001:0005b7bc       ?dtor$1@?0??bind_crypto_sign_ed25519_open_@@YA?AVValue@Napi@@AEBVCallbackInfo@2@@Z@4HA 000000018005c7bc f   crypto_sign_ed25519.obj
 0001:0005b7bc       ?dtor$1@?0??bind_crypto_sign_ed25519_@@YA?AVValue@Napi@@AEBVCallbackInfo@2@@Z@4HA 000000018005c7bc f   crypto_sign_ed25519.obj
 0001:0005b7c8       ?dtor$2@?0??bind_crypto_sign_ed25519_open_@@YA?AVValue@Napi@@AEBVCallbackInfo@2@@Z@4HA 000000018005c7c8 f   crypto_sign_ed25519.obj
 0001:0005b7c8       ?dtor$2@?0??bind_crypto_sign_ed25519_detached_@@YA?AVValue@Napi@@AEBVCallbackInfo@2@@Z@4HA 000000018005c7c8 f   crypto_sign_ed25519.obj
 0001:0005b7c8       ?dtor$2@?0??bind_crypto_sign_ed25519_@@YA?AVValue@Napi@@AEBVCallbackInfo@2@@Z@4HA 000000018005c7c8 f   crypto_sign_ed25519.obj
 0001:0005b7d4       ?dtor$3@?0??bind_crypto_sign_ed25519_open_@@YA?AVValue@Napi@@AEBVCallbackInfo@2@@Z@4HA 000000018005c7d4 f   crypto_sign_ed25519.obj
 0001:0005b7d4       ?dtor$3@?0??bind_crypto_sign_ed25519_detached_@@YA?AVValue@Napi@@AEBVCallbackInfo@2@@Z@4HA 000000018005c7d4 f   crypto_sign_ed25519.obj
 0001:0005b7d4       ?dtor$3@?0??bind_crypto_sign_ed25519_@@YA?AVValue@Napi@@AEBVCallbackInfo@2@@Z@4HA 000000018005c7d4 f   crypto_sign_ed25519.obj
 0001:0005b7e0       ?dtor$0@?0??bind_crypto_stream_salsa20_@@YA?AVValue@Napi@@AEBVCallbackInfo@2@@Z@4HA 000000018005c7e0 f   crypto_streams.obj
 0001:0005b7e0       ?dtor$0@?0??bind_crypto_box_curve25519xsalsa20poly1305_beforenm_@@YA?AVValue@Napi@@AEBVCallbackInfo@2@@Z@4HA 000000018005c7e0 f   crypto_box_curve25519xsalsa20poly1305.obj
 0001:0005b7e0       ?dtor$0@?0??bind_crypto_stream_chacha20_ietf_@@YA?AVValue@Napi@@AEBVCallbackInfo@2@@Z@4HA 000000018005c7e0 f   crypto_streams.obj
 0001:0005b7e0       ?dtor$0@?0??bind_crypto_stream_xsalsa20_@@YA?AVValue@Napi@@AEBVCallbackInfo@2@@Z@4HA 000000018005c7e0 f   crypto_streams.obj
 0001:0005b7e0       ?dtor$0@?0??bind_crypto_sign_ed25519_verify_detached_@@YA?AVValue@Napi@@AEBVCallbackInfo@2@@Z@4HA 000000018005c7e0 f   crypto_sign_ed25519.obj
 0001:0005b7e0       ?dtor$0@?0??bind_crypto_onetimeauth_poly1305_verify_@@YA?AVValue@Napi@@AEBVCallbackInfo@2@@Z@4HA 000000018005c7e0 f   crypto_onetimeauth_poly1305.obj
 0001:0005b7e0       ?dtor$0@?0??bind_crypto_stream_chacha20_@@YA?AVValue@Napi@@AEBVCallbackInfo@2@@Z@4HA 000000018005c7e0 f   crypto_streams.obj
 0001:0005b7e0       ?dtor$0@?0??bind_crypto_stream_salsa208_@@YA?AVValue@Napi@@AEBVCallbackInfo@2@@Z@4HA 000000018005c7e0 f   crypto_streams.obj
 0001:0005b7e0       ?dtor$0@?0??bind_crypto_stream_salsa2012_@@YA?AVValue@Napi@@AEBVCallbackInfo@2@@Z@4HA 000000018005c7e0 f   crypto_streams.obj
 0001:0005b7ec       ?dtor$1@?0??bind_crypto_onetimeauth_poly1305_verify_@@YA?AVValue@Napi@@AEBVCallbackInfo@2@@Z@4HA 000000018005c7ec f   crypto_onetimeauth_poly1305.obj
 0001:0005b7ec       ?dtor$1@?0??bind_crypto_stream_xsalsa20_@@YA?AVValue@Napi@@AEBVCallbackInfo@2@@Z@4HA 000000018005c7ec f   crypto_streams.obj
 0001:0005b7ec       ?dtor$1@?0??bind_crypto_stream_salsa208_@@YA?AVValue@Napi@@AEBVCallbackInfo@2@@Z@4HA 000000018005c7ec f   crypto_streams.obj
 0001:0005b7ec       ?dtor$1@?0??bind_crypto_stream_chacha20_@@YA?AVValue@Napi@@AEBVCallbackInfo@2@@Z@4HA 000000018005c7ec f   crypto_streams.obj
 0001:0005b7ec       ?dtor$1@?0??bind_crypto_sign_ed25519_verify_detached_@@YA?AVValue@Napi@@AEBVCallbackInfo@2@@Z@4HA 000000018005c7ec f   crypto_sign_ed25519.obj
 0001:0005b7ec       ?dtor$1@?0??bind_crypto_stream_chacha20_ietf_@@YA?AVValue@Napi@@AEBVCallbackInfo@2@@Z@4HA 000000018005c7ec f   crypto_streams.obj
 0001:0005b7ec       ?dtor$1@?0??bind_crypto_stream_salsa2012_@@YA?AVValue@Napi@@AEBVCallbackInfo@2@@Z@4HA 000000018005c7ec f   crypto_streams.obj
 0001:0005b7ec       ?dtor$1@?0??bind_crypto_box_curve25519xsalsa20poly1305_beforenm_@@YA?AVValue@Napi@@AEBVCallbackInfo@2@@Z@4HA 000000018005c7ec f   crypto_box_curve25519xsalsa20poly1305.obj
 0001:0005b7ec       ?dtor$1@?0??bind_crypto_stream_salsa20_@@YA?AVValue@Napi@@AEBVCallbackInfo@2@@Z@4HA 000000018005c7ec f   crypto_streams.obj
 0001:0005b7f8       ?dtor$2@?0??bind_crypto_stream_salsa2012_@@YA?AVValue@Napi@@AEBVCallbackInfo@2@@Z@4HA 000000018005c7f8 f   crypto_streams.obj
 0001:0005b7f8       ?dtor$2@?0??bind_crypto_onetimeauth_poly1305_verify_@@YA?AVValue@Napi@@AEBVCallbackInfo@2@@Z@4HA 000000018005c7f8 f   crypto_onetimeauth_poly1305.obj
 0001:0005b7f8       ?dtor$2@?0??bind_crypto_stream_chacha20_@@YA?AVValue@Napi@@AEBVCallbackInfo@2@@Z@4HA 000000018005c7f8 f   crypto_streams.obj
 0001:0005b7f8       ?dtor$2@?0??bind_crypto_stream_chacha20_ietf_@@YA?AVValue@Napi@@AEBVCallbackInfo@2@@Z@4HA 000000018005c7f8 f   crypto_streams.obj
 0001:0005b7f8       ?dtor$2@?0??bind_crypto_stream_xsalsa20_@@YA?AVValue@Napi@@AEBVCallbackInfo@2@@Z@4HA 000000018005c7f8 f   crypto_streams.obj
 0001:0005b7f8       ?dtor$2@?0??bind_crypto_box_curve25519xsalsa20poly1305_beforenm_@@YA?AVValue@Napi@@AEBVCallbackInfo@2@@Z@4HA 000000018005c7f8 f   crypto_box_curve25519xsalsa20poly1305.obj
 0001:0005b7f8       ?dtor$2@?0??bind_crypto_sign_ed25519_verify_detached_@@YA?AVValue@Napi@@AEBVCallbackInfo@2@@Z@4HA 000000018005c7f8 f   crypto_sign_ed25519.obj
 0001:0005b7f8       ?dtor$2@?0??bind_crypto_stream_salsa208_@@YA?AVValue@Napi@@AEBVCallbackInfo@2@@Z@4HA 000000018005c7f8 f   crypto_streams.obj
 0001:0005b7f8       ?dtor$2@?0??bind_crypto_stream_salsa20_@@YA?AVValue@Napi@@AEBVCallbackInfo@2@@Z@4HA 000000018005c7f8 f   crypto_streams.obj
 0001:0005b804       ?dtor$3@?0??bind_crypto_stream_xsalsa20_@@YA?AVValue@Napi@@AEBVCallbackInfo@2@@Z@4HA 000000018005c804 f   crypto_streams.obj
 0001:0005b804       ?dtor$3@?0??bind_crypto_stream_chacha20_ietf_@@YA?AVValue@Napi@@AEBVCallbackInfo@2@@Z@4HA 000000018005c804 f   crypto_streams.obj
 0001:0005b804       ?dtor$3@?0??bind_crypto_stream_chacha20_@@YA?AVValue@Napi@@AEBVCallbackInfo@2@@Z@4HA 000000018005c804 f   crypto_streams.obj
 0001:0005b804       ?dtor$3@?0??bind_crypto_stream_salsa2012_@@YA?AVValue@Napi@@AEBVCallbackInfo@2@@Z@4HA 000000018005c804 f   crypto_streams.obj
 0001:0005b804       ?dtor$3@?0??bind_crypto_sign_ed25519_verify_detached_@@YA?AVValue@Napi@@AEBVCallbackInfo@2@@Z@4HA 000000018005c804 f   crypto_sign_ed25519.obj
 0001:0005b804       ?dtor$3@?0??bind_crypto_box_curve25519xsalsa20poly1305_beforenm_@@YA?AVValue@Napi@@AEBVCallbackInfo@2@@Z@4HA 000000018005c804 f   crypto_box_curve25519xsalsa20poly1305.obj
 0001:0005b804       ?dtor$3@?0??bind_crypto_stream_salsa20_@@YA?AVValue@Napi@@AEBVCallbackInfo@2@@Z@4HA 000000018005c804 f   crypto_streams.obj
 0001:0005b804       ?dtor$3@?0??bind_crypto_onetimeauth_poly1305_verify_@@YA?AVValue@Napi@@AEBVCallbackInfo@2@@Z@4HA 000000018005c804 f   crypto_onetimeauth_poly1305.obj
 0001:0005b804       ?dtor$3@?0??bind_crypto_stream_salsa208_@@YA?AVValue@Napi@@AEBVCallbackInfo@2@@Z@4HA 000000018005c804 f   crypto_streams.obj
 0001:0005b810       ?dtor$4@?0??bind_crypto_stream_xsalsa20_@@YA?AVValue@Napi@@AEBVCallbackInfo@2@@Z@4HA 000000018005c810 f   crypto_streams.obj
 0001:0005b810       ?dtor$4@?0??bind_crypto_stream_salsa20_@@YA?AVValue@Napi@@AEBVCallbackInfo@2@@Z@4HA 000000018005c810 f   crypto_streams.obj
 0001:0005b810       ?dtor$4@?0??bind_crypto_sign_ed25519_verify_detached_@@YA?AVValue@Napi@@AEBVCallbackInfo@2@@Z@4HA 000000018005c810 f   crypto_sign_ed25519.obj
 0001:0005b810       ?dtor$4@?0??bind_crypto_onetimeauth_poly1305_verify_@@YA?AVValue@Napi@@AEBVCallbackInfo@2@@Z@4HA 000000018005c810 f   crypto_onetimeauth_poly1305.obj
 0001:0005b810       ?dtor$4@?0??bind_crypto_stream_salsa2012_@@YA?AVValue@Napi@@AEBVCallbackInfo@2@@Z@4HA 000000018005c810 f   crypto_streams.obj
 0001:0005b810       ?dtor$4@?0??bind_crypto_stream_chacha20_@@YA?AVValue@Napi@@AEBVCallbackInfo@2@@Z@4HA 000000018005c810 f   crypto_streams.obj
 0001:0005b810       ?dtor$4@?0??bind_crypto_stream_chacha20_ietf_@@YA?AVValue@Napi@@AEBVCallbackInfo@2@@Z@4HA 000000018005c810 f   crypto_streams.obj
 0001:0005b810       ?dtor$4@?0??bind_crypto_box_curve25519xsalsa20poly1305_beforenm_@@YA?AVValue@Napi@@AEBVCallbackInfo@2@@Z@4HA 000000018005c810 f   crypto_box_curve25519xsalsa20poly1305.obj
 0001:0005b810       ?dtor$4@?0??bind_crypto_stream_salsa208_@@YA?AVValue@Napi@@AEBVCallbackInfo@2@@Z@4HA 000000018005c810 f   crypto_streams.obj
 0001:0005b81c       ?dtor$5@?0??bind_crypto_stream_salsa2012_@@YA?AVValue@Napi@@AEBVCallbackInfo@2@@Z@4HA 000000018005c81c f   crypto_streams.obj
 0001:0005b81c       ?dtor$5@?0??bind_crypto_stream_chacha20_ietf_@@YA?AVValue@Napi@@AEBVCallbackInfo@2@@Z@4HA 000000018005c81c f   crypto_streams.obj
 0001:0005b81c       ?dtor$5@?0??bind_crypto_stream_salsa208_@@YA?AVValue@Napi@@AEBVCallbackInfo@2@@Z@4HA 000000018005c81c f   crypto_streams.obj
 0001:0005b81c       ?dtor$5@?0??bind_crypto_stream_chacha20_@@YA?AVValue@Napi@@AEBVCallbackInfo@2@@Z@4HA 000000018005c81c f   crypto_streams.obj
 0001:0005b81c       ?dtor$5@?0??bind_crypto_box_curve25519xsalsa20poly1305_beforenm_@@YA?AVValue@Napi@@AEBVCallbackInfo@2@@Z@4HA 000000018005c81c f   crypto_box_curve25519xsalsa20poly1305.obj
 0001:0005b81c       ?dtor$5@?0??bind_crypto_onetimeauth_poly1305_verify_@@YA?AVValue@Napi@@AEBVCallbackInfo@2@@Z@4HA 000000018005c81c f   crypto_onetimeauth_poly1305.obj
 0001:0005b81c       ?dtor$5@?0??bind_crypto_sign_ed25519_verify_detached_@@YA?AVValue@Napi@@AEBVCallbackInfo@2@@Z@4HA 000000018005c81c f   crypto_sign_ed25519.obj
 0001:0005b81c       ?dtor$5@?0??bind_crypto_stream_xsalsa20_@@YA?AVValue@Napi@@AEBVCallbackInfo@2@@Z@4HA 000000018005c81c f   crypto_streams.obj
 0001:0005b81c       ?dtor$5@?0??bind_crypto_stream_salsa20_@@YA?AVValue@Napi@@AEBVCallbackInfo@2@@Z@4HA 000000018005c81c f   crypto_streams.obj
 0001:0005b830       ?dtor$0@?0??bind_crypto_auth_hmacsha512_@@YA?AVValue@Napi@@AEBVCallbackInfo@2@@Z@4HA 000000018005c830 f   crypto_auth_algos.obj
 0001:0005b830       ?dtor$0@?0??bind_crypto_auth_hmacsha256_@@YA?AVValue@Napi@@AEBVCallbackInfo@2@@Z@4HA 000000018005c830 f   crypto_auth_algos.obj
 0001:0005b830       ?dtor$0@?0??bind_crypto_box_seed_keypair_@@YA?AVValue@Napi@@AEBVCallbackInfo@2@@Z@4HA 000000018005c830 f   crypto_box.obj
 0001:0005b830       ?dtor$0@?0??bind_crypto_auth_hmacsha512256_@@YA?AVValue@Napi@@AEBVCallbackInfo@2@@Z@4HA 000000018005c830 f   crypto_auth_algos.obj
 0001:0005b830       ?dtor$0@?0??bind_crypto_sign_ed25519_seed_keypair_@@YA?AVValue@Napi@@AEBVCallbackInfo@2@@Z@4HA 000000018005c830 f   crypto_sign_ed25519.obj
 0001:0005b83c       ?dtor$1@?0??bind_crypto_box_seed_keypair_@@YA?AVValue@Napi@@AEBVCallbackInfo@2@@Z@4HA 000000018005c83c f   crypto_box.obj
 0001:0005b83c       ?dtor$1@?0??bind_crypto_sign_ed25519_seed_keypair_@@YA?AVValue@Napi@@AEBVCallbackInfo@2@@Z@4HA 000000018005c83c f   crypto_sign_ed25519.obj
 0001:0005b83c       ?dtor$1@?0??bind_crypto_auth_hmacsha256_@@YA?AVValue@Napi@@AEBVCallbackInfo@2@@Z@4HA 000000018005c83c f   crypto_auth_algos.obj
 0001:0005b83c       ?dtor$1@?0??bind_crypto_auth_hmacsha512256_@@YA?AVValue@Napi@@AEBVCallbackInfo@2@@Z@4HA 000000018005c83c f   crypto_auth_algos.obj
 0001:0005b83c       ?dtor$1@?0??bind_crypto_auth_hmacsha512_@@YA?AVValue@Napi@@AEBVCallbackInfo@2@@Z@4HA 000000018005c83c f   crypto_auth_algos.obj
 0001:0005b848       ?dtor$2@?0??bind_crypto_auth_hmacsha512_@@YA?AVValue@Napi@@AEBVCallbackInfo@2@@Z@4HA 000000018005c848 f   crypto_auth_algos.obj
 0001:0005b848       ?dtor$2@?0??bind_crypto_auth_hmacsha512256_@@YA?AVValue@Napi@@AEBVCallbackInfo@2@@Z@4HA 000000018005c848 f   crypto_auth_algos.obj
 0001:0005b848       ?dtor$2@?0??bind_crypto_auth_hmacsha256_@@YA?AVValue@Napi@@AEBVCallbackInfo@2@@Z@4HA 000000018005c848 f   crypto_auth_algos.obj
 0001:0005b848       ?dtor$2@?0??bind_crypto_sign_ed25519_seed_keypair_@@YA?AVValue@Napi@@AEBVCallbackInfo@2@@Z@4HA 000000018005c848 f   crypto_sign_ed25519.obj
 0001:0005b848       ?dtor$2@?0??bind_crypto_box_seed_keypair_@@YA?AVValue@Napi@@AEBVCallbackInfo@2@@Z@4HA 000000018005c848 f   crypto_box.obj
 0001:0005b860       ?dtor$0@?0??bind_crypto_box_curve25519xsalsa20poly1305_@@YA?AVValue@Napi@@AEBVCallbackInfo@2@@Z@4HA 000000018005c860 f   crypto_box_curve25519xsalsa20poly1305.obj
 0001:0005b860       ?dtor$0@?0??bind_crypto_box_@@YA?AVValue@Napi@@AEBVCallbackInfo@2@@Z@4HA 000000018005c860 f   crypto_box.obj
 0001:0005b86c       ?dtor$1@?0??bind_crypto_box_curve25519xsalsa20poly1305_@@YA?AVValue@Napi@@AEBVCallbackInfo@2@@Z@4HA 000000018005c86c f   crypto_box_curve25519xsalsa20poly1305.obj
 0001:0005b86c       ?dtor$1@?0??bind_crypto_box_@@YA?AVValue@Napi@@AEBVCallbackInfo@2@@Z@4HA 000000018005c86c f   crypto_box.obj
 0001:0005b878       ?dtor$2@?0??bind_crypto_box_@@YA?AVValue@Napi@@AEBVCallbackInfo@2@@Z@4HA 000000018005c878 f   crypto_box.obj
 0001:0005b878       ?dtor$2@?0??bind_crypto_box_curve25519xsalsa20poly1305_@@YA?AVValue@Napi@@AEBVCallbackInfo@2@@Z@4HA 000000018005c878 f   crypto_box_curve25519xsalsa20poly1305.obj
 0001:0005b884       ?dtor$3@?0??bind_crypto_box_@@YA?AVValue@Napi@@AEBVCallbackInfo@2@@Z@4HA 000000018005c884 f   crypto_box.obj
 0001:0005b884       ?dtor$3@?0??bind_crypto_box_curve25519xsalsa20poly1305_@@YA?AVValue@Napi@@AEBVCallbackInfo@2@@Z@4HA 000000018005c884 f   crypto_box_curve25519xsalsa20poly1305.obj
 0001:0005b890       ?dtor$4@?0??bind_crypto_box_curve25519xsalsa20poly1305_@@YA?AVValue@Napi@@AEBVCallbackInfo@2@@Z@4HA 000000018005c890 f   crypto_box_curve25519xsalsa20poly1305.obj
 0001:0005b890       ?dtor$4@?0??bind_crypto_box_@@YA?AVValue@Napi@@AEBVCallbackInfo@2@@Z@4HA 000000018005c890 f   crypto_box.obj
 0001:0005b89c       ?dtor$5@?0??bind_crypto_box_@@YA?AVValue@Napi@@AEBVCallbackInfo@2@@Z@4HA 000000018005c89c f   crypto_box.obj
 0001:0005b89c       ?dtor$5@?0??bind_crypto_box_curve25519xsalsa20poly1305_@@YA?AVValue@Napi@@AEBVCallbackInfo@2@@Z@4HA 000000018005c89c f   crypto_box_curve25519xsalsa20poly1305.obj
 0001:0005b8a8       ?dtor$6@?0??bind_crypto_box_@@YA?AVValue@Napi@@AEBVCallbackInfo@2@@Z@4HA 000000018005c8a8 f   crypto_box.obj
 0001:0005b8a8       ?dtor$6@?0??bind_crypto_box_curve25519xsalsa20poly1305_@@YA?AVValue@Napi@@AEBVCallbackInfo@2@@Z@4HA 000000018005c8a8 f   crypto_box_curve25519xsalsa20poly1305.obj
 0001:0005b8b4       ?dtor$7@?0??bind_crypto_box_curve25519xsalsa20poly1305_@@YA?AVValue@Napi@@AEBVCallbackInfo@2@@Z@4HA 000000018005c8b4 f   crypto_box_curve25519xsalsa20poly1305.obj
 0001:0005b8b4       ?dtor$7@?0??bind_crypto_box_@@YA?AVValue@Napi@@AEBVCallbackInfo@2@@Z@4HA 000000018005c8b4 f   crypto_box.obj
 0001:0005b8c0       ?dtor$0@?0??bind_crypto_box_easy_@@YA?AVValue@Napi@@AEBVCallbackInfo@2@@Z@4HA 000000018005c8c0 f   crypto_box.obj
 0001:0005b8cc       ?dtor$1@?0??bind_crypto_box_easy_@@YA?AVValue@Napi@@AEBVCallbackInfo@2@@Z@4HA 000000018005c8cc f   crypto_box.obj
 0001:0005b8d8       ?dtor$2@?0??bind_crypto_box_easy_@@YA?AVValue@Napi@@AEBVCallbackInfo@2@@Z@4HA 000000018005c8d8 f   crypto_box.obj
 0001:0005b8e4       ?dtor$3@?0??bind_crypto_box_easy_@@YA?AVValue@Napi@@AEBVCallbackInfo@2@@Z@4HA 000000018005c8e4 f   crypto_box.obj
 0001:0005b8f0       ?dtor$4@?0??bind_crypto_box_easy_@@YA?AVValue@Napi@@AEBVCallbackInfo@2@@Z@4HA 000000018005c8f0 f   crypto_box.obj
 0001:0005b8fc       ?dtor$5@?0??bind_crypto_box_easy_@@YA?AVValue@Napi@@AEBVCallbackInfo@2@@Z@4HA 000000018005c8fc f   crypto_box.obj
 0001:0005b908       ?dtor$6@?0??bind_crypto_box_easy_@@YA?AVValue@Napi@@AEBVCallbackInfo@2@@Z@4HA 000000018005c908 f   crypto_box.obj
 0001:0005b914       ?dtor$7@?0??bind_crypto_box_easy_@@YA?AVValue@Napi@@AEBVCallbackInfo@2@@Z@4HA 000000018005c914 f   crypto_box.obj
 0001:0005b920       ?dtor$0@?0??bind_crypto_box_curve25519xsalsa20poly1305_open_@@YA?AVValue@Napi@@AEBVCallbackInfo@2@@Z@4HA 000000018005c920 f   crypto_box_curve25519xsalsa20poly1305.obj
 0001:0005b920       ?dtor$0@?0??bind_crypto_box_open_@@YA?AVValue@Napi@@AEBVCallbackInfo@2@@Z@4HA 000000018005c920 f   crypto_box.obj
 0001:0005b92c       ?dtor$1@?0??bind_crypto_box_open_@@YA?AVValue@Napi@@AEBVCallbackInfo@2@@Z@4HA 000000018005c92c f   crypto_box.obj
 0001:0005b92c       ?dtor$1@?0??bind_crypto_box_curve25519xsalsa20poly1305_open_@@YA?AVValue@Napi@@AEBVCallbackInfo@2@@Z@4HA 000000018005c92c f   crypto_box_curve25519xsalsa20poly1305.obj
 0001:0005b938       ?dtor$2@?0??bind_crypto_box_open_@@YA?AVValue@Napi@@AEBVCallbackInfo@2@@Z@4HA 000000018005c938 f   crypto_box.obj
 0001:0005b938       ?dtor$2@?0??bind_crypto_box_curve25519xsalsa20poly1305_open_@@YA?AVValue@Napi@@AEBVCallbackInfo@2@@Z@4HA 000000018005c938 f   crypto_box_curve25519xsalsa20poly1305.obj
 0001:0005b944       ?dtor$3@?0??bind_crypto_box_curve25519xsalsa20poly1305_open_@@YA?AVValue@Napi@@AEBVCallbackInfo@2@@Z@4HA 000000018005c944 f   crypto_box_curve25519xsalsa20poly1305.obj
 0001:0005b944       ?dtor$3@?0??bind_crypto_box_open_@@YA?AVValue@Napi@@AEBVCallbackInfo@2@@Z@4HA 000000018005c944 f   crypto_box.obj
 0001:0005b950       ?dtor$4@?0??bind_crypto_box_curve25519xsalsa20poly1305_open_@@YA?AVValue@Napi@@AEBVCallbackInfo@2@@Z@4HA 000000018005c950 f   crypto_box_curve25519xsalsa20poly1305.obj
 0001:0005b950       ?dtor$4@?0??bind_crypto_box_open_@@YA?AVValue@Napi@@AEBVCallbackInfo@2@@Z@4HA 000000018005c950 f   crypto_box.obj
 0001:0005b95c       ?dtor$5@?0??bind_crypto_box_open_@@YA?AVValue@Napi@@AEBVCallbackInfo@2@@Z@4HA 000000018005c95c f   crypto_box.obj
 0001:0005b95c       ?dtor$5@?0??bind_crypto_box_curve25519xsalsa20poly1305_open_@@YA?AVValue@Napi@@AEBVCallbackInfo@2@@Z@4HA 000000018005c95c f   crypto_box_curve25519xsalsa20poly1305.obj
 0001:0005b968       ?dtor$6@?0??bind_crypto_box_curve25519xsalsa20poly1305_open_@@YA?AVValue@Napi@@AEBVCallbackInfo@2@@Z@4HA 000000018005c968 f   crypto_box_curve25519xsalsa20poly1305.obj
 0001:0005b968       ?dtor$6@?0??bind_crypto_box_open_@@YA?AVValue@Napi@@AEBVCallbackInfo@2@@Z@4HA 000000018005c968 f   crypto_box.obj
 0001:0005b974       ?dtor$7@?0??bind_crypto_box_curve25519xsalsa20poly1305_open_@@YA?AVValue@Napi@@AEBVCallbackInfo@2@@Z@4HA 000000018005c974 f   crypto_box_curve25519xsalsa20poly1305.obj
 0001:0005b974       ?dtor$7@?0??bind_crypto_box_open_@@YA?AVValue@Napi@@AEBVCallbackInfo@2@@Z@4HA 000000018005c974 f   crypto_box.obj
 0001:0005b980       ?dtor$8@?0??bind_crypto_box_curve25519xsalsa20poly1305_open_@@YA?AVValue@Napi@@AEBVCallbackInfo@2@@Z@4HA 000000018005c980 f   crypto_box_curve25519xsalsa20poly1305.obj
 0001:0005b980       ?dtor$8@?0??bind_crypto_box_open_@@YA?AVValue@Napi@@AEBVCallbackInfo@2@@Z@4HA 000000018005c980 f   crypto_box.obj
 0001:0005b98c       ?dtor$9@?0??bind_crypto_box_curve25519xsalsa20poly1305_open_@@YA?AVValue@Napi@@AEBVCallbackInfo@2@@Z@4HA 000000018005c98c f   crypto_box_curve25519xsalsa20poly1305.obj
 0001:0005b98c       ?dtor$9@?0??bind_crypto_box_open_@@YA?AVValue@Napi@@AEBVCallbackInfo@2@@Z@4HA 000000018005c98c f   crypto_box.obj
 0001:0005b9a0       ?dtor$0@?0??bind_crypto_box_open_easy_@@YA?AVValue@Napi@@AEBVCallbackInfo@2@@Z@4HA 000000018005c9a0 f   crypto_box.obj
 0001:0005b9ac       ?dtor$1@?0??bind_crypto_box_open_easy_@@YA?AVValue@Napi@@AEBVCallbackInfo@2@@Z@4HA 000000018005c9ac f   crypto_box.obj
 0001:0005b9b8       ?dtor$2@?0??bind_crypto_box_open_easy_@@YA?AVValue@Napi@@AEBVCallbackInfo@2@@Z@4HA 000000018005c9b8 f   crypto_box.obj
 0001:0005b9c4       ?dtor$3@?0??bind_crypto_box_open_easy_@@YA?AVValue@Napi@@AEBVCallbackInfo@2@@Z@4HA 000000018005c9c4 f   crypto_box.obj
 0001:0005b9d0       ?dtor$4@?0??bind_crypto_box_open_easy_@@YA?AVValue@Napi@@AEBVCallbackInfo@2@@Z@4HA 000000018005c9d0 f   crypto_box.obj
 0001:0005b9dc       ?dtor$5@?0??bind_crypto_box_open_easy_@@YA?AVValue@Napi@@AEBVCallbackInfo@2@@Z@4HA 000000018005c9dc f   crypto_box.obj
 0001:0005b9e8       ?dtor$6@?0??bind_crypto_box_open_easy_@@YA?AVValue@Napi@@AEBVCallbackInfo@2@@Z@4HA 000000018005c9e8 f   crypto_box.obj
 0001:0005b9f4       ?dtor$7@?0??bind_crypto_box_open_easy_@@YA?AVValue@Napi@@AEBVCallbackInfo@2@@Z@4HA 000000018005c9f4 f   crypto_box.obj
 0001:0005ba00       ?dtor$8@?0??bind_crypto_box_open_easy_@@YA?AVValue@Napi@@AEBVCallbackInfo@2@@Z@4HA 000000018005ca00 f   crypto_box.obj
 0001:0005ba10       ?dtor$0@?0??bind_crypto_scalarmult_curve25519_@@YA?AVValue@Napi@@AEBVCallbackInfo@2@@Z@4HA 000000018005ca10 f   crypto_scalarmult_curve25519.obj
 0001:0005ba10       ?dtor$0@?0??bind_crypto_auth_hmacsha256_verify_@@YA?AVValue@Napi@@AEBVCallbackInfo@2@@Z@4HA 000000018005ca10 f   crypto_auth_algos.obj
 0001:0005ba10       ?dtor$0@?0??bind_crypto_auth_hmacsha512256_verify_@@YA?AVValue@Napi@@AEBVCallbackInfo@2@@Z@4HA 000000018005ca10 f   crypto_auth_algos.obj
 0001:0005ba10       ?dtor$0@?0??bind_crypto_auth_hmacsha512_verify_@@YA?AVValue@Napi@@AEBVCallbackInfo@2@@Z@4HA 000000018005ca10 f   crypto_auth_algos.obj
 0001:0005ba10       ?dtor$0@?0??bind_crypto_box_beforenm_@@YA?AVValue@Napi@@AEBVCallbackInfo@2@@Z@4HA 000000018005ca10 f   crypto_box.obj
 0001:0005ba1c       ?dtor$1@?0??bind_crypto_scalarmult_curve25519_@@YA?AVValue@Napi@@AEBVCallbackInfo@2@@Z@4HA 000000018005ca1c f   crypto_scalarmult_curve25519.obj
 0001:0005ba1c       ?dtor$1@?0??bind_crypto_box_beforenm_@@YA?AVValue@Napi@@AEBVCallbackInfo@2@@Z@4HA 000000018005ca1c f   crypto_box.obj
 0001:0005ba1c       ?dtor$1@?0??bind_crypto_auth_hmacsha512256_verify_@@YA?AVValue@Napi@@AEBVCallbackInfo@2@@Z@4HA 000000018005ca1c f   crypto_auth_algos.obj
 0001:0005ba1c       ?dtor$1@?0??bind_crypto_auth_hmacsha256_verify_@@YA?AVValue@Napi@@AEBVCallbackInfo@2@@Z@4HA 000000018005ca1c f   crypto_auth_algos.obj
 0001:0005ba1c       ?dtor$1@?0??bind_crypto_auth_hmacsha512_verify_@@YA?AVValue@Napi@@AEBVCallbackInfo@2@@Z@4HA 000000018005ca1c f   crypto_auth_algos.obj
 0001:0005ba28       ?dtor$2@?0??bind_crypto_box_beforenm_@@YA?AVValue@Napi@@AEBVCallbackInfo@2@@Z@4HA 000000018005ca28 f   crypto_box.obj
 0001:0005ba28       ?dtor$2@?0??bind_crypto_auth_hmacsha512_verify_@@YA?AVValue@Napi@@AEBVCallbackInfo@2@@Z@4HA 000000018005ca28 f   crypto_auth_algos.obj
 0001:0005ba28       ?dtor$2@?0??bind_crypto_auth_hmacsha512256_verify_@@YA?AVValue@Napi@@AEBVCallbackInfo@2@@Z@4HA 000000018005ca28 f   crypto_auth_algos.obj
 0001:0005ba28       ?dtor$2@?0??bind_crypto_scalarmult_curve25519_@@YA?AVValue@Napi@@AEBVCallbackInfo@2@@Z@4HA 000000018005ca28 f   crypto_scalarmult_curve25519.obj
 0001:0005ba28       ?dtor$2@?0??bind_crypto_auth_hmacsha256_verify_@@YA?AVValue@Napi@@AEBVCallbackInfo@2@@Z@4HA 000000018005ca28 f   crypto_auth_algos.obj
 0001:0005ba34       ?dtor$3@?0??bind_crypto_auth_hmacsha512256_verify_@@YA?AVValue@Napi@@AEBVCallbackInfo@2@@Z@4HA 000000018005ca34 f   crypto_auth_algos.obj
 0001:0005ba34       ?dtor$3@?0??bind_crypto_box_beforenm_@@YA?AVValue@Napi@@AEBVCallbackInfo@2@@Z@4HA 000000018005ca34 f   crypto_box.obj
 0001:0005ba34       ?dtor$3@?0??bind_crypto_auth_hmacsha512_verify_@@YA?AVValue@Napi@@AEBVCallbackInfo@2@@Z@4HA 000000018005ca34 f   crypto_auth_algos.obj
 0001:0005ba34       ?dtor$3@?0??bind_crypto_scalarmult_curve25519_@@YA?AVValue@Napi@@AEBVCallbackInfo@2@@Z@4HA 000000018005ca34 f   crypto_scalarmult_curve25519.obj
 0001:0005ba34       ?dtor$3@?0??bind_crypto_auth_hmacsha256_verify_@@YA?AVValue@Napi@@AEBVCallbackInfo@2@@Z@4HA 000000018005ca34 f   crypto_auth_algos.obj
 0001:0005ba40       ?dtor$4@?0??bind_crypto_auth_hmacsha512_verify_@@YA?AVValue@Napi@@AEBVCallbackInfo@2@@Z@4HA 000000018005ca40 f   crypto_auth_algos.obj
 0001:0005ba40       ?dtor$4@?0??bind_crypto_box_beforenm_@@YA?AVValue@Napi@@AEBVCallbackInfo@2@@Z@4HA 000000018005ca40 f   crypto_box.obj
 0001:0005ba40       ?dtor$4@?0??bind_crypto_auth_hmacsha512256_verify_@@YA?AVValue@Napi@@AEBVCallbackInfo@2@@Z@4HA 000000018005ca40 f   crypto_auth_algos.obj
 0001:0005ba40       ?dtor$4@?0??bind_crypto_scalarmult_curve25519_@@YA?AVValue@Napi@@AEBVCallbackInfo@2@@Z@4HA 000000018005ca40 f   crypto_scalarmult_curve25519.obj
 0001:0005ba40       ?dtor$4@?0??bind_crypto_auth_hmacsha256_verify_@@YA?AVValue@Napi@@AEBVCallbackInfo@2@@Z@4HA 000000018005ca40 f   crypto_auth_algos.obj
 0001:0005ba50       ?dtor$0@?0??bind_crypto_secretbox_@@YA?AVValue@Napi@@AEBVCallbackInfo@2@@Z@4HA 000000018005ca50 f   crypto_secretbox.obj
 0001:0005ba50       ?dtor$0@?0??bind_crypto_box_curve25519xsalsa20poly1305_afternm_@@YA?AVValue@Napi@@AEBVCallbackInfo@2@@Z@4HA 000000018005ca50 f   crypto_box_curve25519xsalsa20poly1305.obj
 0001:0005ba50       ?dtor$0@?0??bind_crypto_secretbox_xsalsa20poly1305_@@YA?AVValue@Napi@@AEBVCallbackInfo@2@@Z@4HA 000000018005ca50 f   crypto_secretbox_xsalsa20poly1305.obj
 0001:0005ba50       ?dtor$0@?0??bind_crypto_box_afternm_@@YA?AVValue@Napi@@AEBVCallbackInfo@2@@Z@4HA 000000018005ca50 f   crypto_box.obj
 0001:0005ba50       ?dtor$0@?0??bind_crypto_box_detached_afternm_@@YA?AVValue@Napi@@AEBVCallbackInfo@2@@Z@4HA 000000018005ca50 f   crypto_box.obj
 0001:0005ba5c       ?dtor$1@?0??bind_crypto_box_curve25519xsalsa20poly1305_afternm_@@YA?AVValue@Napi@@AEBVCallbackInfo@2@@Z@4HA 000000018005ca5c f   crypto_box_curve25519xsalsa20poly1305.obj
 0001:0005ba5c       ?dtor$1@?0??bind_crypto_box_detached_afternm_@@YA?AVValue@Napi@@AEBVCallbackInfo@2@@Z@4HA 000000018005ca5c f   crypto_box.obj
 0001:0005ba5c       ?dtor$1@?0??bind_crypto_secretbox_xsalsa20poly1305_@@YA?AVValue@Napi@@AEBVCallbackInfo@2@@Z@4HA 000000018005ca5c f   crypto_secretbox_xsalsa20poly1305.obj
 0001:0005ba5c       ?dtor$1@?0??bind_crypto_secretbox_@@YA?AVValue@Napi@@AEBVCallbackInfo@2@@Z@4HA 000000018005ca5c f   crypto_secretbox.obj
 0001:0005ba5c       ?dtor$1@?0??bind_crypto_box_afternm_@@YA?AVValue@Napi@@AEBVCallbackInfo@2@@Z@4HA 000000018005ca5c f   crypto_box.obj
 0001:0005ba68       ?dtor$2@?0??bind_crypto_box_detached_afternm_@@YA?AVValue@Napi@@AEBVCallbackInfo@2@@Z@4HA 000000018005ca68 f   crypto_box.obj
 0001:0005ba68       ?dtor$2@?0??bind_crypto_box_curve25519xsalsa20poly1305_afternm_@@YA?AVValue@Napi@@AEBVCallbackInfo@2@@Z@4HA 000000018005ca68 f   crypto_box_curve25519xsalsa20poly1305.obj
 0001:0005ba68       ?dtor$2@?0??bind_crypto_secretbox_xsalsa20poly1305_@@YA?AVValue@Napi@@AEBVCallbackInfo@2@@Z@4HA 000000018005ca68 f   crypto_secretbox_xsalsa20poly1305.obj
 0001:0005ba68       ?dtor$2@?0??bind_crypto_box_afternm_@@YA?AVValue@Napi@@AEBVCallbackInfo@2@@Z@4HA 000000018005ca68 f   crypto_box.obj
 0001:0005ba68       ?dtor$2@?0??bind_crypto_secretbox_@@YA?AVValue@Napi@@AEBVCallbackInfo@2@@Z@4HA 000000018005ca68 f   crypto_secretbox.obj
 0001:0005ba74       ?dtor$3@?0??bind_crypto_secretbox_@@YA?AVValue@Napi@@AEBVCallbackInfo@2@@Z@4HA 000000018005ca74 f   crypto_secretbox.obj
 0001:0005ba74       ?dtor$3@?0??bind_crypto_box_afternm_@@YA?AVValue@Napi@@AEBVCallbackInfo@2@@Z@4HA 000000018005ca74 f   crypto_box.obj
 0001:0005ba74       ?dtor$3@?0??bind_crypto_secretbox_xsalsa20poly1305_@@YA?AVValue@Napi@@AEBVCallbackInfo@2@@Z@4HA 000000018005ca74 f   crypto_secretbox_xsalsa20poly1305.obj
 0001:0005ba74       ?dtor$3@?0??bind_crypto_box_curve25519xsalsa20poly1305_afternm_@@YA?AVValue@Napi@@AEBVCallbackInfo@2@@Z@4HA 000000018005ca74 f   crypto_box_curve25519xsalsa20poly1305.obj
 0001:0005ba74       ?dtor$3@?0??bind_crypto_box_detached_afternm_@@YA?AVValue@Napi@@AEBVCallbackInfo@2@@Z@4HA 000000018005ca74 f   crypto_box.obj
 0001:0005ba80       ?dtor$4@?0??bind_crypto_secretbox_xsalsa20poly1305_@@YA?AVValue@Napi@@AEBVCallbackInfo@2@@Z@4HA 000000018005ca80 f   crypto_secretbox_xsalsa20poly1305.obj
 0001:0005ba80       ?dtor$4@?0??bind_crypto_secretbox_@@YA?AVValue@Napi@@AEBVCallbackInfo@2@@Z@4HA 000000018005ca80 f   crypto_secretbox.obj
 0001:0005ba80       ?dtor$4@?0??bind_crypto_box_afternm_@@YA?AVValue@Napi@@AEBVCallbackInfo@2@@Z@4HA 000000018005ca80 f   crypto_box.obj
 0001:0005ba80       ?dtor$4@?0??bind_crypto_box_detached_afternm_@@YA?AVValue@Napi@@AEBVCallbackInfo@2@@Z@4HA 000000018005ca80 f   crypto_box.obj
 0001:0005ba80       ?dtor$4@?0??bind_crypto_box_curve25519xsalsa20poly1305_afternm_@@YA?AVValue@Napi@@AEBVCallbackInfo@2@@Z@4HA 000000018005ca80 f   crypto_box_curve25519xsalsa20poly1305.obj
 0001:0005ba8c       ?dtor$5@?0??bind_crypto_secretbox_xsalsa20poly1305_@@YA?AVValue@Napi@@AEBVCallbackInfo@2@@Z@4HA 000000018005ca8c f   crypto_secretbox_xsalsa20poly1305.obj
 0001:0005ba8c       ?dtor$5@?0??bind_crypto_box_afternm_@@YA?AVValue@Napi@@AEBVCallbackInfo@2@@Z@4HA 000000018005ca8c f   crypto_box.obj
 0001:0005ba8c       ?dtor$5@?0??bind_crypto_box_curve25519xsalsa20poly1305_afternm_@@YA?AVValue@Napi@@AEBVCallbackInfo@2@@Z@4HA 000000018005ca8c f   crypto_box_curve25519xsalsa20poly1305.obj
 0001:0005ba8c       ?dtor$5@?0??bind_crypto_box_detached_afternm_@@YA?AVValue@Napi@@AEBVCallbackInfo@2@@Z@4HA 000000018005ca8c f   crypto_box.obj
 0001:0005ba8c       ?dtor$5@?0??bind_crypto_secretbox_@@YA?AVValue@Napi@@AEBVCallbackInfo@2@@Z@4HA 000000018005ca8c f   crypto_secretbox.obj
 0001:0005baa0       ?dtor$0@?0??bind_crypto_secretbox_open_@@YA?AVValue@Napi@@AEBVCallbackInfo@2@@Z@4HA 000000018005caa0 f   crypto_secretbox.obj
 0001:0005baa0       ?dtor$0@?0??bind_crypto_secretbox_xsalsa20poly1305_open_@@YA?AVValue@Napi@@AEBVCallbackInfo@2@@Z@4HA 000000018005caa0 f   crypto_secretbox_xsalsa20poly1305.obj
 0001:0005baa0       ?dtor$0@?0??bind_crypto_box_curve25519xsalsa20poly1305_open_afternm_@@YA?AVValue@Napi@@AEBVCallbackInfo@2@@Z@4HA 000000018005caa0 f   crypto_box_curve25519xsalsa20poly1305.obj
 0001:0005baa0       ?dtor$0@?0??bind_crypto_box_open_afternm_@@YA?AVValue@Napi@@AEBVCallbackInfo@2@@Z@4HA 000000018005caa0 f   crypto_box.obj
 0001:0005baac       ?dtor$1@?0??bind_crypto_secretbox_open_@@YA?AVValue@Napi@@AEBVCallbackInfo@2@@Z@4HA 000000018005caac f   crypto_secretbox.obj
 0001:0005baac       ?dtor$1@?0??bind_crypto_box_curve25519xsalsa20poly1305_open_afternm_@@YA?AVValue@Napi@@AEBVCallbackInfo@2@@Z@4HA 000000018005caac f   crypto_box_curve25519xsalsa20poly1305.obj
 0001:0005baac       ?dtor$1@?0??bind_crypto_box_open_afternm_@@YA?AVValue@Napi@@AEBVCallbackInfo@2@@Z@4HA 000000018005caac f   crypto_box.obj
 0001:0005baac       ?dtor$1@?0??bind_crypto_secretbox_xsalsa20poly1305_open_@@YA?AVValue@Napi@@AEBVCallbackInfo@2@@Z@4HA 000000018005caac f   crypto_secretbox_xsalsa20poly1305.obj
 0001:0005bab8       ?dtor$2@?0??bind_crypto_secretbox_open_@@YA?AVValue@Napi@@AEBVCallbackInfo@2@@Z@4HA 000000018005cab8 f   crypto_secretbox.obj
 0001:0005bab8       ?dtor$2@?0??bind_crypto_box_curve25519xsalsa20poly1305_open_afternm_@@YA?AVValue@Napi@@AEBVCallbackInfo@2@@Z@4HA 000000018005cab8 f   crypto_box_curve25519xsalsa20poly1305.obj
 0001:0005bab8       ?dtor$2@?0??bind_crypto_secretbox_xsalsa20poly1305_open_@@YA?AVValue@Napi@@AEBVCallbackInfo@2@@Z@4HA 000000018005cab8 f   crypto_secretbox_xsalsa20poly1305.obj
 0001:0005bab8       ?dtor$2@?0??bind_crypto_box_open_afternm_@@YA?AVValue@Napi@@AEBVCallbackInfo@2@@Z@4HA 000000018005cab8 f   crypto_box.obj
 0001:0005bac4       ?dtor$3@?0??bind_crypto_box_curve25519xsalsa20poly1305_open_afternm_@@YA?AVValue@Napi@@AEBVCallbackInfo@2@@Z@4HA 000000018005cac4 f   crypto_box_curve25519xsalsa20poly1305.obj
 0001:0005bac4       ?dtor$3@?0??bind_crypto_secretbox_open_@@YA?AVValue@Napi@@AEBVCallbackInfo@2@@Z@4HA 000000018005cac4 f   crypto_secretbox.obj
 0001:0005bac4       ?dtor$3@?0??bind_crypto_box_open_afternm_@@YA?AVValue@Napi@@AEBVCallbackInfo@2@@Z@4HA 000000018005cac4 f   crypto_box.obj
 0001:0005bac4       ?dtor$3@?0??bind_crypto_secretbox_xsalsa20poly1305_open_@@YA?AVValue@Napi@@AEBVCallbackInfo@2@@Z@4HA 000000018005cac4 f   crypto_secretbox_xsalsa20poly1305.obj
 0001:0005bad0       ?dtor$4@?0??bind_crypto_secretbox_open_@@YA?AVValue@Napi@@AEBVCallbackInfo@2@@Z@4HA 000000018005cad0 f   crypto_secretbox.obj
 0001:0005bad0       ?dtor$4@?0??bind_crypto_box_open_afternm_@@YA?AVValue@Napi@@AEBVCallbackInfo@2@@Z@4HA 000000018005cad0 f   crypto_box.obj
 0001:0005bad0       ?dtor$4@?0??bind_crypto_box_curve25519xsalsa20poly1305_open_afternm_@@YA?AVValue@Napi@@AEBVCallbackInfo@2@@Z@4HA 000000018005cad0 f   crypto_box_curve25519xsalsa20poly1305.obj
 0001:0005bad0       ?dtor$4@?0??bind_crypto_secretbox_xsalsa20poly1305_open_@@YA?AVValue@Napi@@AEBVCallbackInfo@2@@Z@4HA 000000018005cad0 f   crypto_secretbox_xsalsa20poly1305.obj
 0001:0005badc       ?dtor$5@?0??bind_crypto_box_curve25519xsalsa20poly1305_open_afternm_@@YA?AVValue@Napi@@AEBVCallbackInfo@2@@Z@4HA 000000018005cadc f   crypto_box_curve25519xsalsa20poly1305.obj
 0001:0005badc       ?dtor$5@?0??bind_crypto_secretbox_open_@@YA?AVValue@Napi@@AEBVCallbackInfo@2@@Z@4HA 000000018005cadc f   crypto_secretbox.obj
 0001:0005badc       ?dtor$5@?0??bind_crypto_box_open_afternm_@@YA?AVValue@Napi@@AEBVCallbackInfo@2@@Z@4HA 000000018005cadc f   crypto_box.obj
 0001:0005badc       ?dtor$5@?0??bind_crypto_secretbox_xsalsa20poly1305_open_@@YA?AVValue@Napi@@AEBVCallbackInfo@2@@Z@4HA 000000018005cadc f   crypto_secretbox_xsalsa20poly1305.obj
 0001:0005bae8       ?dtor$6@?0??bind_crypto_box_open_afternm_@@YA?AVValue@Napi@@AEBVCallbackInfo@2@@Z@4HA 000000018005cae8 f   crypto_box.obj
 0001:0005bae8       ?dtor$6@?0??bind_crypto_secretbox_open_@@YA?AVValue@Napi@@AEBVCallbackInfo@2@@Z@4HA 000000018005cae8 f   crypto_secretbox.obj
 0001:0005bae8       ?dtor$6@?0??bind_crypto_box_curve25519xsalsa20poly1305_open_afternm_@@YA?AVValue@Napi@@AEBVCallbackInfo@2@@Z@4HA 000000018005cae8 f   crypto_box_curve25519xsalsa20poly1305.obj
 0001:0005bae8       ?dtor$6@?0??bind_crypto_secretbox_xsalsa20poly1305_open_@@YA?AVValue@Napi@@AEBVCallbackInfo@2@@Z@4HA 000000018005cae8 f   crypto_secretbox_xsalsa20poly1305.obj
 0001:0005baf4       ?dtor$7@?0??bind_crypto_box_open_afternm_@@YA?AVValue@Napi@@AEBVCallbackInfo@2@@Z@4HA 000000018005caf4 f   crypto_box.obj
 0001:0005baf4       ?dtor$7@?0??bind_crypto_secretbox_open_@@YA?AVValue@Napi@@AEBVCallbackInfo@2@@Z@4HA 000000018005caf4 f   crypto_secretbox.obj
 0001:0005baf4       ?dtor$7@?0??bind_crypto_box_curve25519xsalsa20poly1305_open_afternm_@@YA?AVValue@Napi@@AEBVCallbackInfo@2@@Z@4HA 000000018005caf4 f   crypto_box_curve25519xsalsa20poly1305.obj
 0001:0005baf4       ?dtor$7@?0??bind_crypto_secretbox_xsalsa20poly1305_open_@@YA?AVValue@Napi@@AEBVCallbackInfo@2@@Z@4HA 000000018005caf4 f   crypto_secretbox_xsalsa20poly1305.obj
 0001:0005bb00       ?dtor$0@?0??bind_crypto_box_detached_@@YA?AVValue@Napi@@AEBVCallbackInfo@2@@Z@4HA 000000018005cb00 f   crypto_box.obj
 0001:0005bb0c       ?dtor$1@?0??bind_crypto_box_detached_@@YA?AVValue@Napi@@AEBVCallbackInfo@2@@Z@4HA 000000018005cb0c f   crypto_box.obj
 0001:0005bb18       ?dtor$2@?0??bind_crypto_box_detached_@@YA?AVValue@Napi@@AEBVCallbackInfo@2@@Z@4HA 000000018005cb18 f   crypto_box.obj
 0001:0005bb24       ?dtor$3@?0??bind_crypto_box_detached_@@YA?AVValue@Napi@@AEBVCallbackInfo@2@@Z@4HA 000000018005cb24 f   crypto_box.obj
 0001:0005bb30       ?dtor$4@?0??bind_crypto_box_detached_@@YA?AVValue@Napi@@AEBVCallbackInfo@2@@Z@4HA 000000018005cb30 f   crypto_box.obj
 0001:0005bb3c       ?dtor$5@?0??bind_crypto_box_detached_@@YA?AVValue@Napi@@AEBVCallbackInfo@2@@Z@4HA 000000018005cb3c f   crypto_box.obj
 0001:0005bb48       ?dtor$6@?0??bind_crypto_box_detached_@@YA?AVValue@Napi@@AEBVCallbackInfo@2@@Z@4HA 000000018005cb48 f   crypto_box.obj
 0001:0005bb54       ?dtor$7@?0??bind_crypto_box_detached_@@YA?AVValue@Napi@@AEBVCallbackInfo@2@@Z@4HA 000000018005cb54 f   crypto_box.obj
 0001:0005bb60       ?dtor$0@?0??bind_crypto_box_open_detached_@@YA?AVValue@Napi@@AEBVCallbackInfo@2@@Z@4HA 000000018005cb60 f   crypto_box.obj
 0001:0005bb6c       ?dtor$1@?0??bind_crypto_box_open_detached_@@YA?AVValue@Napi@@AEBVCallbackInfo@2@@Z@4HA 000000018005cb6c f   crypto_box.obj
 0001:0005bb78       ?dtor$2@?0??bind_crypto_box_open_detached_@@YA?AVValue@Napi@@AEBVCallbackInfo@2@@Z@4HA 000000018005cb78 f   crypto_box.obj
 0001:0005bb84       ?dtor$3@?0??bind_crypto_box_open_detached_@@YA?AVValue@Napi@@AEBVCallbackInfo@2@@Z@4HA 000000018005cb84 f   crypto_box.obj
 0001:0005bb90       ?dtor$4@?0??bind_crypto_box_open_detached_@@YA?AVValue@Napi@@AEBVCallbackInfo@2@@Z@4HA 000000018005cb90 f   crypto_box.obj
 0001:0005bb9c       ?dtor$5@?0??bind_crypto_box_open_detached_@@YA?AVValue@Napi@@AEBVCallbackInfo@2@@Z@4HA 000000018005cb9c f   crypto_box.obj
 0001:0005bba8       ?dtor$6@?0??bind_crypto_box_open_detached_@@YA?AVValue@Napi@@AEBVCallbackInfo@2@@Z@4HA 000000018005cba8 f   crypto_box.obj
 0001:0005bbb4       ?dtor$7@?0??bind_crypto_box_open_detached_@@YA?AVValue@Napi@@AEBVCallbackInfo@2@@Z@4HA 000000018005cbb4 f   crypto_box.obj
 0001:0005bbc0       ?dtor$8@?0??bind_crypto_box_open_detached_@@YA?AVValue@Napi@@AEBVCallbackInfo@2@@Z@4HA 000000018005cbc0 f   crypto_box.obj
 0001:0005bbcc       ?dtor$9@?0??bind_crypto_box_open_detached_@@YA?AVValue@Napi@@AEBVCallbackInfo@2@@Z@4HA 000000018005cbcc f   crypto_box.obj
 0001:0005bbe0       ?dtor$0@?0??bind_crypto_box_seal_@@YA?AVValue@Napi@@AEBVCallbackInfo@2@@Z@4HA 000000018005cbe0 f   crypto_box.obj
 0001:0005bbe0       ?dtor$0@?0??bind_crypto_onetimeauth_poly1305_@@YA?AVValue@Napi@@AEBVCallbackInfo@2@@Z@4HA 000000018005cbe0 f   crypto_onetimeauth_poly1305.obj
 0001:0005bbe0       ?dtor$0@?0??bind_crypto_shorthash_siphash24_@@YA?AVValue@Napi@@AEBVCallbackInfo@2@@Z@4HA 000000018005cbe0 f   crypto_shorthash_siphash24.obj
 0001:0005bbe0       ?dtor$0@?0??bind_crypto_shorthash_@@YA?AVValue@Napi@@AEBVCallbackInfo@2@@Z@4HA 000000018005cbe0 f   crypto_shorthash.obj
 0001:0005bbec       ?dtor$1@?0??bind_crypto_shorthash_@@YA?AVValue@Napi@@AEBVCallbackInfo@2@@Z@4HA 000000018005cbec f   crypto_shorthash.obj
 0001:0005bbec       ?dtor$1@?0??bind_crypto_box_seal_@@YA?AVValue@Napi@@AEBVCallbackInfo@2@@Z@4HA 000000018005cbec f   crypto_box.obj
 0001:0005bbec       ?dtor$1@?0??bind_crypto_onetimeauth_poly1305_@@YA?AVValue@Napi@@AEBVCallbackInfo@2@@Z@4HA 000000018005cbec f   crypto_onetimeauth_poly1305.obj
 0001:0005bbec       ?dtor$1@?0??bind_crypto_shorthash_siphash24_@@YA?AVValue@Napi@@AEBVCallbackInfo@2@@Z@4HA 000000018005cbec f   crypto_shorthash_siphash24.obj
 0001:0005bbf8       ?dtor$2@?0??bind_crypto_onetimeauth_poly1305_@@YA?AVValue@Napi@@AEBVCallbackInfo@2@@Z@4HA 000000018005cbf8 f   crypto_onetimeauth_poly1305.obj
 0001:0005bbf8       ?dtor$2@?0??bind_crypto_shorthash_@@YA?AVValue@Napi@@AEBVCallbackInfo@2@@Z@4HA 000000018005cbf8 f   crypto_shorthash.obj
 0001:0005bbf8       ?dtor$2@?0??bind_crypto_shorthash_siphash24_@@YA?AVValue@Napi@@AEBVCallbackInfo@2@@Z@4HA 000000018005cbf8 f   crypto_shorthash_siphash24.obj
 0001:0005bbf8       ?dtor$2@?0??bind_crypto_box_seal_@@YA?AVValue@Napi@@AEBVCallbackInfo@2@@Z@4HA 000000018005cbf8 f   crypto_box.obj
 0001:0005bc04       ?dtor$3@?0??bind_crypto_shorthash_siphash24_@@YA?AVValue@Napi@@AEBVCallbackInfo@2@@Z@4HA 000000018005cc04 f   crypto_shorthash_siphash24.obj
 0001:0005bc04       ?dtor$3@?0??bind_crypto_onetimeauth_poly1305_@@YA?AVValue@Napi@@AEBVCallbackInfo@2@@Z@4HA 000000018005cc04 f   crypto_onetimeauth_poly1305.obj
 0001:0005bc04       ?dtor$3@?0??bind_crypto_box_seal_@@YA?AVValue@Napi@@AEBVCallbackInfo@2@@Z@4HA 000000018005cc04 f   crypto_box.obj
 0001:0005bc04       ?dtor$3@?0??bind_crypto_shorthash_@@YA?AVValue@Napi@@AEBVCallbackInfo@2@@Z@4HA 000000018005cc04 f   crypto_shorthash.obj
 0001:0005bc10       ?dtor$0@?0??bind_crypto_stream_xsalsa20_xor_@@YA?AVValue@Napi@@AEBVCallbackInfo@2@@Z@4HA 000000018005cc10 f   crypto_streams.obj
 0001:0005bc10       ?dtor$0@?0??bind_crypto_stream_chacha20_ietf_xor_@@YA?AVValue@Napi@@AEBVCallbackInfo@2@@Z@4HA 000000018005cc10 f   crypto_streams.obj
 0001:0005bc10       ?dtor$0@?0??bind_crypto_secretbox_open_easy_@@YA?AVValue@Napi@@AEBVCallbackInfo@2@@Z@4HA 000000018005cc10 f   crypto_secretbox.obj
 0001:0005bc10       ?dtor$0@?0??bind_crypto_stream_salsa208_xor_@@YA?AVValue@Napi@@AEBVCallbackInfo@2@@Z@4HA 000000018005cc10 f   crypto_streams.obj
 0001:0005bc10       ?dtor$0@?0??bind_crypto_stream_salsa20_xor_@@YA?AVValue@Napi@@AEBVCallbackInfo@2@@Z@4HA 000000018005cc10 f   crypto_streams.obj
 0001:0005bc10       ?dtor$0@?0??bind_crypto_secretbox_easy_@@YA?AVValue@Napi@@AEBVCallbackInfo@2@@Z@4HA 000000018005cc10 f   crypto_secretbox.obj
 0001:0005bc10       ?dtor$0@?0??bind_crypto_box_seal_open_@@YA?AVValue@Napi@@AEBVCallbackInfo@2@@Z@4HA 000000018005cc10 f   crypto_box.obj
 0001:0005bc10       ?dtor$0@?0??bind_crypto_stream_salsa2012_xor_@@YA?AVValue@Napi@@AEBVCallbackInfo@2@@Z@4HA 000000018005cc10 f   crypto_streams.obj
 0001:0005bc10       ?dtor$0@?0??bind_crypto_stream_chacha20_xor_@@YA?AVValue@Napi@@AEBVCallbackInfo@2@@Z@4HA 000000018005cc10 f   crypto_streams.obj
 0001:0005bc1c       ?dtor$1@?0??bind_crypto_stream_chacha20_ietf_xor_@@YA?AVValue@Napi@@AEBVCallbackInfo@2@@Z@4HA 000000018005cc1c f   crypto_streams.obj
 0001:0005bc1c       ?dtor$1@?0??bind_crypto_stream_xsalsa20_xor_@@YA?AVValue@Napi@@AEBVCallbackInfo@2@@Z@4HA 000000018005cc1c f   crypto_streams.obj
 0001:0005bc1c       ?dtor$1@?0??bind_crypto_stream_salsa20_xor_@@YA?AVValue@Napi@@AEBVCallbackInfo@2@@Z@4HA 000000018005cc1c f   crypto_streams.obj
 0001:0005bc1c       ?dtor$1@?0??bind_crypto_stream_salsa208_xor_@@YA?AVValue@Napi@@AEBVCallbackInfo@2@@Z@4HA 000000018005cc1c f   crypto_streams.obj
 0001:0005bc1c       ?dtor$1@?0??bind_crypto_stream_salsa2012_xor_@@YA?AVValue@Napi@@AEBVCallbackInfo@2@@Z@4HA 000000018005cc1c f   crypto_streams.obj
 0001:0005bc1c       ?dtor$1@?0??bind_crypto_secretbox_easy_@@YA?AVValue@Napi@@AEBVCallbackInfo@2@@Z@4HA 000000018005cc1c f   crypto_secretbox.obj
 0001:0005bc1c       ?dtor$1@?0??bind_crypto_stream_chacha20_xor_@@YA?AVValue@Napi@@AEBVCallbackInfo@2@@Z@4HA 000000018005cc1c f   crypto_streams.obj
 0001:0005bc1c       ?dtor$1@?0??bind_crypto_box_seal_open_@@YA?AVValue@Napi@@AEBVCallbackInfo@2@@Z@4HA 000000018005cc1c f   crypto_box.obj
 0001:0005bc1c       ?dtor$1@?0??bind_crypto_secretbox_open_easy_@@YA?AVValue@Napi@@AEBVCallbackInfo@2@@Z@4HA 000000018005cc1c f   crypto_secretbox.obj
 0001:0005bc28       ?dtor$2@?0??bind_crypto_stream_salsa2012_xor_@@YA?AVValue@Napi@@AEBVCallbackInfo@2@@Z@4HA 000000018005cc28 f   crypto_streams.obj
 0001:0005bc28       ?dtor$2@?0??bind_crypto_stream_salsa20_xor_@@YA?AVValue@Napi@@AEBVCallbackInfo@2@@Z@4HA 000000018005cc28 f   crypto_streams.obj
 0001:0005bc28       ?dtor$2@?0??bind_crypto_stream_xsalsa20_xor_@@YA?AVValue@Napi@@AEBVCallbackInfo@2@@Z@4HA 000000018005cc28 f   crypto_streams.obj
 0001:0005bc28       ?dtor$2@?0??bind_crypto_secretbox_open_easy_@@YA?AVValue@Napi@@AEBVCallbackInfo@2@@Z@4HA 000000018005cc28 f   crypto_secretbox.obj
 0001:0005bc28       ?dtor$2@?0??bind_crypto_secretbox_easy_@@YA?AVValue@Napi@@AEBVCallbackInfo@2@@Z@4HA 000000018005cc28 f   crypto_secretbox.obj
 0001:0005bc28       ?dtor$2@?0??bind_crypto_stream_salsa208_xor_@@YA?AVValue@Napi@@AEBVCallbackInfo@2@@Z@4HA 000000018005cc28 f   crypto_streams.obj
 0001:0005bc28       ?dtor$2@?0??bind_crypto_stream_chacha20_xor_@@YA?AVValue@Napi@@AEBVCallbackInfo@2@@Z@4HA 000000018005cc28 f   crypto_streams.obj
 0001:0005bc28       ?dtor$2@?0??bind_crypto_box_seal_open_@@YA?AVValue@Napi@@AEBVCallbackInfo@2@@Z@4HA 000000018005cc28 f   crypto_box.obj
 0001:0005bc28       ?dtor$2@?0??bind_crypto_stream_chacha20_ietf_xor_@@YA?AVValue@Napi@@AEBVCallbackInfo@2@@Z@4HA 000000018005cc28 f   crypto_streams.obj
 0001:0005bc34       ?dtor$3@?0??bind_crypto_secretbox_easy_@@YA?AVValue@Napi@@AEBVCallbackInfo@2@@Z@4HA 000000018005cc34 f   crypto_secretbox.obj
 0001:0005bc34       ?dtor$3@?0??bind_crypto_secretbox_open_easy_@@YA?AVValue@Napi@@AEBVCallbackInfo@2@@Z@4HA 000000018005cc34 f   crypto_secretbox.obj
 0001:0005bc34       ?dtor$3@?0??bind_crypto_stream_chacha20_ietf_xor_@@YA?AVValue@Napi@@AEBVCallbackInfo@2@@Z@4HA 000000018005cc34 f   crypto_streams.obj
 0001:0005bc34       ?dtor$3@?0??bind_crypto_stream_xsalsa20_xor_@@YA?AVValue@Napi@@AEBVCallbackInfo@2@@Z@4HA 000000018005cc34 f   crypto_streams.obj
 0001:0005bc34       ?dtor$3@?0??bind_crypto_stream_salsa20_xor_@@YA?AVValue@Napi@@AEBVCallbackInfo@2@@Z@4HA 000000018005cc34 f   crypto_streams.obj
 0001:0005bc34       ?dtor$3@?0??bind_crypto_stream_salsa208_xor_@@YA?AVValue@Napi@@AEBVCallbackInfo@2@@Z@4HA 000000018005cc34 f   crypto_streams.obj
 0001:0005bc34       ?dtor$3@?0??bind_crypto_stream_salsa2012_xor_@@YA?AVValue@Napi@@AEBVCallbackInfo@2@@Z@4HA 000000018005cc34 f   crypto_streams.obj
 0001:0005bc34       ?dtor$3@?0??bind_crypto_stream_chacha20_xor_@@YA?AVValue@Napi@@AEBVCallbackInfo@2@@Z@4HA 000000018005cc34 f   crypto_streams.obj
 0001:0005bc34       ?dtor$3@?0??bind_crypto_box_seal_open_@@YA?AVValue@Napi@@AEBVCallbackInfo@2@@Z@4HA 000000018005cc34 f   crypto_box.obj
 0001:0005bc40       ?dtor$4@?0??bind_crypto_stream_salsa2012_xor_@@YA?AVValue@Napi@@AEBVCallbackInfo@2@@Z@4HA 000000018005cc40 f   crypto_streams.obj
 0001:0005bc40       ?dtor$4@?0??bind_crypto_stream_chacha20_xor_@@YA?AVValue@Napi@@AEBVCallbackInfo@2@@Z@4HA 000000018005cc40 f   crypto_streams.obj
 0001:0005bc40       ?dtor$4@?0??bind_crypto_stream_salsa208_xor_@@YA?AVValue@Napi@@AEBVCallbackInfo@2@@Z@4HA 000000018005cc40 f   crypto_streams.obj
 0001:0005bc40       ?dtor$4@?0??bind_crypto_stream_chacha20_ietf_xor_@@YA?AVValue@Napi@@AEBVCallbackInfo@2@@Z@4HA 000000018005cc40 f   crypto_streams.obj
 0001:0005bc40       ?dtor$4@?0??bind_crypto_box_seal_open_@@YA?AVValue@Napi@@AEBVCallbackInfo@2@@Z@4HA 000000018005cc40 f   crypto_box.obj
 0001:0005bc40       ?dtor$4@?0??bind_crypto_stream_salsa20_xor_@@YA?AVValue@Napi@@AEBVCallbackInfo@2@@Z@4HA 000000018005cc40 f   crypto_streams.obj
 0001:0005bc40       ?dtor$4@?0??bind_crypto_secretbox_easy_@@YA?AVValue@Napi@@AEBVCallbackInfo@2@@Z@4HA 000000018005cc40 f   crypto_secretbox.obj
 0001:0005bc40       ?dtor$4@?0??bind_crypto_stream_xsalsa20_xor_@@YA?AVValue@Napi@@AEBVCallbackInfo@2@@Z@4HA 000000018005cc40 f   crypto_streams.obj
 0001:0005bc40       ?dtor$4@?0??bind_crypto_secretbox_open_easy_@@YA?AVValue@Napi@@AEBVCallbackInfo@2@@Z@4HA 000000018005cc40 f   crypto_secretbox.obj
 0001:0005bc4c       ?dtor$5@?0??bind_crypto_stream_chacha20_xor_@@YA?AVValue@Napi@@AEBVCallbackInfo@2@@Z@4HA 000000018005cc4c f   crypto_streams.obj
 0001:0005bc4c       ?dtor$5@?0??bind_crypto_stream_xsalsa20_xor_@@YA?AVValue@Napi@@AEBVCallbackInfo@2@@Z@4HA 000000018005cc4c f   crypto_streams.obj
 0001:0005bc4c       ?dtor$5@?0??bind_crypto_secretbox_open_easy_@@YA?AVValue@Napi@@AEBVCallbackInfo@2@@Z@4HA 000000018005cc4c f   crypto_secretbox.obj
 0001:0005bc4c       ?dtor$5@?0??bind_crypto_secretbox_easy_@@YA?AVValue@Napi@@AEBVCallbackInfo@2@@Z@4HA 000000018005cc4c f   crypto_secretbox.obj
 0001:0005bc4c       ?dtor$5@?0??bind_crypto_stream_salsa20_xor_@@YA?AVValue@Napi@@AEBVCallbackInfo@2@@Z@4HA 000000018005cc4c f   crypto_streams.obj
 0001:0005bc4c       ?dtor$5@?0??bind_crypto_stream_chacha20_ietf_xor_@@YA?AVValue@Napi@@AEBVCallbackInfo@2@@Z@4HA 000000018005cc4c f   crypto_streams.obj
 0001:0005bc4c       ?dtor$5@?0??bind_crypto_stream_salsa208_xor_@@YA?AVValue@Napi@@AEBVCallbackInfo@2@@Z@4HA 000000018005cc4c f   crypto_streams.obj
 0001:0005bc4c       ?dtor$5@?0??bind_crypto_stream_salsa2012_xor_@@YA?AVValue@Napi@@AEBVCallbackInfo@2@@Z@4HA 000000018005cc4c f   crypto_streams.obj
 0001:0005bc4c       ?dtor$5@?0??bind_crypto_box_seal_open_@@YA?AVValue@Napi@@AEBVCallbackInfo@2@@Z@4HA 000000018005cc4c f   crypto_box.obj
 0001:0005bc60       ?dtor$0@?0??bind_crypto_box_open_detached_afternm_@@YA?AVValue@Napi@@AEBVCallbackInfo@2@@Z@4HA 000000018005cc60 f   crypto_box.obj
 0001:0005bc60       ?dtor$0@?0??bind_crypto_secretbox_open_detached_@@YA?AVValue@Napi@@AEBVCallbackInfo@2@@Z@4HA 000000018005cc60 f   crypto_secretbox.obj
 0001:0005bc60       ?dtor$0@?0??bind_crypto_secretbox_detached_@@YA?AVValue@Napi@@AEBVCallbackInfo@2@@Z@4HA 000000018005cc60 f   crypto_secretbox.obj
 0001:0005bc6c       ?dtor$1@?0??bind_crypto_box_open_detached_afternm_@@YA?AVValue@Napi@@AEBVCallbackInfo@2@@Z@4HA 000000018005cc6c f   crypto_box.obj
 0001:0005bc6c       ?dtor$1@?0??bind_crypto_secretbox_open_detached_@@YA?AVValue@Napi@@AEBVCallbackInfo@2@@Z@4HA 000000018005cc6c f   crypto_secretbox.obj
 0001:0005bc6c       ?dtor$1@?0??bind_crypto_secretbox_detached_@@YA?AVValue@Napi@@AEBVCallbackInfo@2@@Z@4HA 000000018005cc6c f   crypto_secretbox.obj
 0001:0005bc78       ?dtor$2@?0??bind_crypto_secretbox_detached_@@YA?AVValue@Napi@@AEBVCallbackInfo@2@@Z@4HA 000000018005cc78 f   crypto_secretbox.obj
 0001:0005bc78       ?dtor$2@?0??bind_crypto_secretbox_open_detached_@@YA?AVValue@Napi@@AEBVCallbackInfo@2@@Z@4HA 000000018005cc78 f   crypto_secretbox.obj
 0001:0005bc78       ?dtor$2@?0??bind_crypto_box_open_detached_afternm_@@YA?AVValue@Napi@@AEBVCallbackInfo@2@@Z@4HA 000000018005cc78 f   crypto_box.obj
 0001:0005bc84       ?dtor$3@?0??bind_crypto_secretbox_open_detached_@@YA?AVValue@Napi@@AEBVCallbackInfo@2@@Z@4HA 000000018005cc84 f   crypto_secretbox.obj
 0001:0005bc84       ?dtor$3@?0??bind_crypto_secretbox_detached_@@YA?AVValue@Napi@@AEBVCallbackInfo@2@@Z@4HA 000000018005cc84 f   crypto_secretbox.obj
 0001:0005bc84       ?dtor$3@?0??bind_crypto_box_open_detached_afternm_@@YA?AVValue@Napi@@AEBVCallbackInfo@2@@Z@4HA 000000018005cc84 f   crypto_box.obj
 0001:0005bc90       ?dtor$4@?0??bind_crypto_secretbox_open_detached_@@YA?AVValue@Napi@@AEBVCallbackInfo@2@@Z@4HA 000000018005cc90 f   crypto_secretbox.obj
 0001:0005bc90       ?dtor$4@?0??bind_crypto_box_open_detached_afternm_@@YA?AVValue@Napi@@AEBVCallbackInfo@2@@Z@4HA 000000018005cc90 f   crypto_box.obj
 0001:0005bc90       ?dtor$4@?0??bind_crypto_secretbox_detached_@@YA?AVValue@Napi@@AEBVCallbackInfo@2@@Z@4HA 000000018005cc90 f   crypto_secretbox.obj
 0001:0005bc9c       ?dtor$5@?0??bind_crypto_box_open_detached_afternm_@@YA?AVValue@Napi@@AEBVCallbackInfo@2@@Z@4HA 000000018005cc9c f   crypto_box.obj
 0001:0005bc9c       ?dtor$5@?0??bind_crypto_secretbox_open_detached_@@YA?AVValue@Napi@@AEBVCallbackInfo@2@@Z@4HA 000000018005cc9c f   crypto_secretbox.obj
 0001:0005bc9c       ?dtor$5@?0??bind_crypto_secretbox_detached_@@YA?AVValue@Napi@@AEBVCallbackInfo@2@@Z@4HA 000000018005cc9c f   crypto_secretbox.obj
 0001:0005bca8       ?dtor$6@?0??bind_crypto_secretbox_detached_@@YA?AVValue@Napi@@AEBVCallbackInfo@2@@Z@4HA 000000018005cca8 f   crypto_secretbox.obj
 0001:0005bca8       ?dtor$6@?0??bind_crypto_box_open_detached_afternm_@@YA?AVValue@Napi@@AEBVCallbackInfo@2@@Z@4HA 000000018005cca8 f   crypto_box.obj
 0001:0005bca8       ?dtor$6@?0??bind_crypto_secretbox_open_detached_@@YA?AVValue@Napi@@AEBVCallbackInfo@2@@Z@4HA 000000018005cca8 f   crypto_secretbox.obj
 0001:0005bcb4       ?dtor$7@?0??bind_crypto_secretbox_open_detached_@@YA?AVValue@Napi@@AEBVCallbackInfo@2@@Z@4HA 000000018005ccb4 f   crypto_secretbox.obj
 0001:0005bcb4       ?dtor$7@?0??bind_crypto_secretbox_detached_@@YA?AVValue@Napi@@AEBVCallbackInfo@2@@Z@4HA 000000018005ccb4 f   crypto_secretbox.obj
 0001:0005bcb4       ?dtor$7@?0??bind_crypto_box_open_detached_afternm_@@YA?AVValue@Napi@@AEBVCallbackInfo@2@@Z@4HA 000000018005ccb4 f   crypto_box.obj
 0001:0005bcc0       ?dtor$0@?0??bind_crypto_box_easy_afternm_@@YA?AVValue@Napi@@AEBVCallbackInfo@2@@Z@4HA 000000018005ccc0 f   crypto_box.obj
 0001:0005bccc       ?dtor$1@?0??bind_crypto_box_easy_afternm_@@YA?AVValue@Napi@@AEBVCallbackInfo@2@@Z@4HA 000000018005cccc f   crypto_box.obj
 0001:0005bcd8       ?dtor$2@?0??bind_crypto_box_easy_afternm_@@YA?AVValue@Napi@@AEBVCallbackInfo@2@@Z@4HA 000000018005ccd8 f   crypto_box.obj
 0001:0005bce4       ?dtor$3@?0??bind_crypto_box_easy_afternm_@@YA?AVValue@Napi@@AEBVCallbackInfo@2@@Z@4HA 000000018005cce4 f   crypto_box.obj
 0001:0005bcf0       ?dtor$4@?0??bind_crypto_box_easy_afternm_@@YA?AVValue@Napi@@AEBVCallbackInfo@2@@Z@4HA 000000018005ccf0 f   crypto_box.obj
 0001:0005bcfc       ?dtor$5@?0??bind_crypto_box_easy_afternm_@@YA?AVValue@Napi@@AEBVCallbackInfo@2@@Z@4HA 000000018005ccfc f   crypto_box.obj
 0001:0005bd10       ?dtor$0@?0??bind_crypto_box_open_easy_afternm_@@YA?AVValue@Napi@@AEBVCallbackInfo@2@@Z@4HA 000000018005cd10 f   crypto_box.obj
 0001:0005bd1c       ?dtor$1@?0??bind_crypto_box_open_easy_afternm_@@YA?AVValue@Napi@@AEBVCallbackInfo@2@@Z@4HA 000000018005cd1c f   crypto_box.obj
 0001:0005bd28       ?dtor$2@?0??bind_crypto_box_open_easy_afternm_@@YA?AVValue@Napi@@AEBVCallbackInfo@2@@Z@4HA 000000018005cd28 f   crypto_box.obj
 0001:0005bd34       ?dtor$3@?0??bind_crypto_box_open_easy_afternm_@@YA?AVValue@Napi@@AEBVCallbackInfo@2@@Z@4HA 000000018005cd34 f   crypto_box.obj
 0001:0005bd40       ?dtor$4@?0??bind_crypto_box_open_easy_afternm_@@YA?AVValue@Napi@@AEBVCallbackInfo@2@@Z@4HA 000000018005cd40 f   crypto_box.obj
 0001:0005bd4c       ?dtor$5@?0??bind_crypto_box_open_easy_afternm_@@YA?AVValue@Napi@@AEBVCallbackInfo@2@@Z@4HA 000000018005cd4c f   crypto_box.obj
 0001:0005bd58       ?dtor$6@?0??bind_crypto_box_open_easy_afternm_@@YA?AVValue@Napi@@AEBVCallbackInfo@2@@Z@4HA 000000018005cd58 f   crypto_box.obj
 0001:0005bd70       ?dtor$0@?0??bind_crypto_auth_hmacsha256_init_@@YA?AVValue@Napi@@AEBVCallbackInfo@2@@Z@4HA 000000018005cd70 f   crypto_auth_algos.obj
 0001:0005bd70       ?dtor$0@?0??bind_crypto_auth_hmacsha512256_final_@@YA?AVValue@Napi@@AEBVCallbackInfo@2@@Z@4HA 000000018005cd70 f   crypto_auth_algos.obj
 0001:0005bd70       ?dtor$0@?0??bind_crypto_auth_hmacsha512256_init_@@YA?AVValue@Napi@@AEBVCallbackInfo@2@@Z@4HA 000000018005cd70 f   crypto_auth_algos.obj
 0001:0005bd70       ?dtor$0@?0??bind_crypto_auth_hmacsha256_final_@@YA?AVValue@Napi@@AEBVCallbackInfo@2@@Z@4HA 000000018005cd70 f   crypto_auth_algos.obj
 0001:0005bd70       ?dtor$0@?0??bind_crypto_auth_hmacsha512_init_@@YA?AVValue@Napi@@AEBVCallbackInfo@2@@Z@4HA 000000018005cd70 f   crypto_auth_algos.obj
 0001:0005bd70       ?dtor$0@?0??bind_crypto_hash_sha512_@@YA?AVValue@Napi@@AEBVCallbackInfo@2@@Z@4HA 000000018005cd70 f   crypto_hash_sha512.obj
 0001:0005bd70       ?dtor$0@?0??bind_crypto_hash_@@YA?AVValue@Napi@@AEBVCallbackInfo@2@@Z@4HA 000000018005cd70 f   crypto_hash.obj
 0001:0005bd70       ?dtor$0@?0??bind_crypto_hash_sha512_final_@@YA?AVValue@Napi@@AEBVCallbackInfo@2@@Z@4HA 000000018005cd70 f   crypto_hash_sha512.obj
 0001:0005bd70       ?dtor$0@?0??bind_crypto_auth_hmacsha512_final_@@YA?AVValue@Napi@@AEBVCallbackInfo@2@@Z@4HA 000000018005cd70 f   crypto_auth_algos.obj
 0001:0005bd70       ?dtor$0@?0??bind_crypto_onetimeauth_poly1305_final_@@YA?AVValue@Napi@@AEBVCallbackInfo@2@@Z@4HA 000000018005cd70 f   crypto_onetimeauth_poly1305.obj
 0001:0005bd70       ?dtor$0@?0??bind_crypto_hash_sha256_final_@@YA?AVValue@Napi@@AEBVCallbackInfo@2@@Z@4HA 000000018005cd70 f   crypto_hash_sha256.obj
 0001:0005bd70       ?dtor$0@?0??bind_crypto_hash_sha256_@@YA?AVValue@Napi@@AEBVCallbackInfo@2@@Z@4HA 000000018005cd70 f   crypto_hash_sha256.obj
 0001:0005bd7c       ?dtor$1@?0??bind_crypto_auth_hmacsha512_final_@@YA?AVValue@Napi@@AEBVCallbackInfo@2@@Z@4HA 000000018005cd7c f   crypto_auth_algos.obj
 0001:0005bd7c       ?dtor$1@?0??bind_crypto_hash_sha256_@@YA?AVValue@Napi@@AEBVCallbackInfo@2@@Z@4HA 000000018005cd7c f   crypto_hash_sha256.obj
 0001:0005bd7c       ?dtor$1@?0??bind_crypto_hash_sha256_final_@@YA?AVValue@Napi@@AEBVCallbackInfo@2@@Z@4HA 000000018005cd7c f   crypto_hash_sha256.obj
 0001:0005bd7c       ?dtor$1@?0??bind_crypto_hash_sha512_final_@@YA?AVValue@Napi@@AEBVCallbackInfo@2@@Z@4HA 000000018005cd7c f   crypto_hash_sha512.obj
 0001:0005bd7c       ?dtor$1@?0??bind_crypto_hash_sha512_@@YA?AVValue@Napi@@AEBVCallbackInfo@2@@Z@4HA 000000018005cd7c f   crypto_hash_sha512.obj
 0001:0005bd7c       ?dtor$1@?0??bind_crypto_auth_hmacsha512_init_@@YA?AVValue@Napi@@AEBVCallbackInfo@2@@Z@4HA 000000018005cd7c f   crypto_auth_algos.obj
 0001:0005bd7c       ?dtor$1@?0??bind_crypto_auth_hmacsha512256_init_@@YA?AVValue@Napi@@AEBVCallbackInfo@2@@Z@4HA 000000018005cd7c f   crypto_auth_algos.obj
 0001:0005bd7c       ?dtor$1@?0??bind_crypto_onetimeauth_poly1305_final_@@YA?AVValue@Napi@@AEBVCallbackInfo@2@@Z@4HA 000000018005cd7c f   crypto_onetimeauth_poly1305.obj
 0001:0005bd7c       ?dtor$1@?0??bind_crypto_auth_hmacsha512256_final_@@YA?AVValue@Napi@@AEBVCallbackInfo@2@@Z@4HA 000000018005cd7c f   crypto_auth_algos.obj
 0001:0005bd7c       ?dtor$1@?0??bind_crypto_auth_hmacsha256_init_@@YA?AVValue@Napi@@AEBVCallbackInfo@2@@Z@4HA 000000018005cd7c f   crypto_auth_algos.obj
 0001:0005bd7c       ?dtor$1@?0??bind_crypto_auth_hmacsha256_final_@@YA?AVValue@Napi@@AEBVCallbackInfo@2@@Z@4HA 000000018005cd7c f   crypto_auth_algos.obj
 0001:0005bd7c       ?dtor$1@?0??bind_crypto_hash_@@YA?AVValue@Napi@@AEBVCallbackInfo@2@@Z@4HA 000000018005cd7c f   crypto_hash.obj
 0001:0005bd90       ?dtor$0@?0??bind_crypto_auth_hmacsha256_update_@@YA?AVValue@Napi@@AEBVCallbackInfo@2@@Z@4HA 000000018005cd90 f   crypto_auth_algos.obj
 0001:0005bd90       ?dtor$0@?0??bind_crypto_auth_hmacsha512256_update_@@YA?AVValue@Napi@@AEBVCallbackInfo@2@@Z@4HA 000000018005cd90 f   crypto_auth_algos.obj
 0001:0005bd90       ?dtor$0@?0??bind_crypto_auth_hmacsha512_update_@@YA?AVValue@Napi@@AEBVCallbackInfo@2@@Z@4HA 000000018005cd90 f   crypto_auth_algos.obj
 0001:0005bd9c       ?dtor$1@?0??bind_crypto_auth_hmacsha256_update_@@YA?AVValue@Napi@@AEBVCallbackInfo@2@@Z@4HA 000000018005cd9c f   crypto_auth_algos.obj
 0001:0005bd9c       ?dtor$1@?0??bind_crypto_auth_hmacsha512_update_@@YA?AVValue@Napi@@AEBVCallbackInfo@2@@Z@4HA 000000018005cd9c f   crypto_auth_algos.obj
 0001:0005bd9c       ?dtor$1@?0??bind_crypto_auth_hmacsha512256_update_@@YA?AVValue@Napi@@AEBVCallbackInfo@2@@Z@4HA 000000018005cd9c f   crypto_auth_algos.obj
 0001:0005bda8       ?dtor$2@?0??bind_crypto_auth_hmacsha256_update_@@YA?AVValue@Napi@@AEBVCallbackInfo@2@@Z@4HA 000000018005cda8 f   crypto_auth_algos.obj
 0001:0005bda8       ?dtor$2@?0??bind_crypto_auth_hmacsha512_update_@@YA?AVValue@Napi@@AEBVCallbackInfo@2@@Z@4HA 000000018005cda8 f   crypto_auth_algos.obj
 0001:0005bda8       ?dtor$2@?0??bind_crypto_auth_hmacsha512256_update_@@YA?AVValue@Napi@@AEBVCallbackInfo@2@@Z@4HA 000000018005cda8 f   crypto_auth_algos.obj
 0001:0005bdb4       ?dtor$3@?0??bind_crypto_auth_hmacsha512_update_@@YA?AVValue@Napi@@AEBVCallbackInfo@2@@Z@4HA 000000018005cdb4 f   crypto_auth_algos.obj
 0001:0005bdb4       ?dtor$3@?0??bind_crypto_auth_hmacsha256_update_@@YA?AVValue@Napi@@AEBVCallbackInfo@2@@Z@4HA 000000018005cdb4 f   crypto_auth_algos.obj
 0001:0005bdb4       ?dtor$3@?0??bind_crypto_auth_hmacsha512256_update_@@YA?AVValue@Napi@@AEBVCallbackInfo@2@@Z@4HA 000000018005cdb4 f   crypto_auth_algos.obj
 0001:0005bdc0       ?dtor$0@?0??bind_crypto_core_salsa2012_@@YA?AVValue@Napi@@AEBVCallbackInfo@2@@Z@4HA 000000018005cdc0 f   crypto_core.obj
 0001:0005bdc0       ?dtor$0@?0??bind_crypto_core_salsa208_@@YA?AVValue@Napi@@AEBVCallbackInfo@2@@Z@4HA 000000018005cdc0 f   crypto_core.obj
 0001:0005bdc0       ?dtor$0@?0??bind_crypto_core_hsalsa20_@@YA?AVValue@Napi@@AEBVCallbackInfo@2@@Z@4HA 000000018005cdc0 f   crypto_core.obj
 0001:0005bdc0       ?dtor$0@?0??bind_crypto_core_hchacha20_@@YA?AVValue@Napi@@AEBVCallbackInfo@2@@Z@4HA 000000018005cdc0 f   crypto_core.obj
 0001:0005bdc0       ?dtor$0@?0??bind_crypto_core_salsa20_@@YA?AVValue@Napi@@AEBVCallbackInfo@2@@Z@4HA 000000018005cdc0 f   crypto_core.obj
 0001:0005bdcc       ?dtor$1@?0??bind_crypto_core_salsa208_@@YA?AVValue@Napi@@AEBVCallbackInfo@2@@Z@4HA 000000018005cdcc f   crypto_core.obj
 0001:0005bdcc       ?dtor$1@?0??bind_crypto_core_hchacha20_@@YA?AVValue@Napi@@AEBVCallbackInfo@2@@Z@4HA 000000018005cdcc f   crypto_core.obj
 0001:0005bdcc       ?dtor$1@?0??bind_crypto_core_hsalsa20_@@YA?AVValue@Napi@@AEBVCallbackInfo@2@@Z@4HA 000000018005cdcc f   crypto_core.obj
 0001:0005bdcc       ?dtor$1@?0??bind_crypto_core_salsa2012_@@YA?AVValue@Napi@@AEBVCallbackInfo@2@@Z@4HA 000000018005cdcc f   crypto_core.obj
 0001:0005bdcc       ?dtor$1@?0??bind_crypto_core_salsa20_@@YA?AVValue@Napi@@AEBVCallbackInfo@2@@Z@4HA 000000018005cdcc f   crypto_core.obj
 0001:0005bdd8       ?dtor$2@?0??bind_crypto_core_salsa208_@@YA?AVValue@Napi@@AEBVCallbackInfo@2@@Z@4HA 000000018005cdd8 f   crypto_core.obj
 0001:0005bdd8       ?dtor$2@?0??bind_crypto_core_salsa2012_@@YA?AVValue@Napi@@AEBVCallbackInfo@2@@Z@4HA 000000018005cdd8 f   crypto_core.obj
 0001:0005bdd8       ?dtor$2@?0??bind_crypto_core_hchacha20_@@YA?AVValue@Napi@@AEBVCallbackInfo@2@@Z@4HA 000000018005cdd8 f   crypto_core.obj
 0001:0005bdd8       ?dtor$2@?0??bind_crypto_core_hsalsa20_@@YA?AVValue@Napi@@AEBVCallbackInfo@2@@Z@4HA 000000018005cdd8 f   crypto_core.obj
 0001:0005bdd8       ?dtor$2@?0??bind_crypto_core_salsa20_@@YA?AVValue@Napi@@AEBVCallbackInfo@2@@Z@4HA 000000018005cdd8 f   crypto_core.obj
 0001:0005bde4       ?dtor$3@?0??bind_crypto_core_salsa20_@@YA?AVValue@Napi@@AEBVCallbackInfo@2@@Z@4HA 000000018005cde4 f   crypto_core.obj
 0001:0005bde4       ?dtor$3@?0??bind_crypto_core_salsa208_@@YA?AVValue@Napi@@AEBVCallbackInfo@2@@Z@4HA 000000018005cde4 f   crypto_core.obj
 0001:0005bde4       ?dtor$3@?0??bind_crypto_core_salsa2012_@@YA?AVValue@Napi@@AEBVCallbackInfo@2@@Z@4HA 000000018005cde4 f   crypto_core.obj
 0001:0005bde4       ?dtor$3@?0??bind_crypto_core_hsalsa20_@@YA?AVValue@Napi@@AEBVCallbackInfo@2@@Z@4HA 000000018005cde4 f   crypto_core.obj
 0001:0005bde4       ?dtor$3@?0??bind_crypto_core_hchacha20_@@YA?AVValue@Napi@@AEBVCallbackInfo@2@@Z@4HA 000000018005cde4 f   crypto_core.obj
 0001:0005bdf0       ?dtor$4@?0??bind_crypto_core_hchacha20_@@YA?AVValue@Napi@@AEBVCallbackInfo@2@@Z@4HA 000000018005cdf0 f   crypto_core.obj
 0001:0005bdf0       ?dtor$4@?0??bind_crypto_core_salsa20_@@YA?AVValue@Napi@@AEBVCallbackInfo@2@@Z@4HA 000000018005cdf0 f   crypto_core.obj
 0001:0005bdf0       ?dtor$4@?0??bind_crypto_core_salsa2012_@@YA?AVValue@Napi@@AEBVCallbackInfo@2@@Z@4HA 000000018005cdf0 f   crypto_core.obj
 0001:0005bdf0       ?dtor$4@?0??bind_crypto_core_salsa208_@@YA?AVValue@Napi@@AEBVCallbackInfo@2@@Z@4HA 000000018005cdf0 f   crypto_core.obj
 0001:0005bdf0       ?dtor$4@?0??bind_crypto_core_hsalsa20_@@YA?AVValue@Napi@@AEBVCallbackInfo@2@@Z@4HA 000000018005cdf0 f   crypto_core.obj
 0001:0005bdfc       ?dtor$5@?0??bind_crypto_core_salsa20_@@YA?AVValue@Napi@@AEBVCallbackInfo@2@@Z@4HA 000000018005cdfc f   crypto_core.obj
 0001:0005bdfc       ?dtor$5@?0??bind_crypto_core_hsalsa20_@@YA?AVValue@Napi@@AEBVCallbackInfo@2@@Z@4HA 000000018005cdfc f   crypto_core.obj
 0001:0005bdfc       ?dtor$5@?0??bind_crypto_core_salsa2012_@@YA?AVValue@Napi@@AEBVCallbackInfo@2@@Z@4HA 000000018005cdfc f   crypto_core.obj
 0001:0005bdfc       ?dtor$5@?0??bind_crypto_core_salsa208_@@YA?AVValue@Napi@@AEBVCallbackInfo@2@@Z@4HA 000000018005cdfc f   crypto_core.obj
 0001:0005bdfc       ?dtor$5@?0??bind_crypto_core_hchacha20_@@YA?AVValue@Napi@@AEBVCallbackInfo@2@@Z@4HA 000000018005cdfc f   crypto_core.obj
 0001:0005be08       ?dtor$6@?0??bind_crypto_core_salsa208_@@YA?AVValue@Napi@@AEBVCallbackInfo@2@@Z@4HA 000000018005ce08 f   crypto_core.obj
 0001:0005be08       ?dtor$6@?0??bind_crypto_core_salsa2012_@@YA?AVValue@Napi@@AEBVCallbackInfo@2@@Z@4HA 000000018005ce08 f   crypto_core.obj
 0001:0005be08       ?dtor$6@?0??bind_crypto_core_hsalsa20_@@YA?AVValue@Napi@@AEBVCallbackInfo@2@@Z@4HA 000000018005ce08 f   crypto_core.obj
 0001:0005be08       ?dtor$6@?0??bind_crypto_core_hchacha20_@@YA?AVValue@Napi@@AEBVCallbackInfo@2@@Z@4HA 000000018005ce08 f   crypto_core.obj
 0001:0005be08       ?dtor$6@?0??bind_crypto_core_salsa20_@@YA?AVValue@Napi@@AEBVCallbackInfo@2@@Z@4HA 000000018005ce08 f   crypto_core.obj
 0001:0005be20       ?dtor$0@?0??RegisterModule@@YA?AVObject@Napi@@VEnv@2@V12@@Z@4HA 000000018005ce20 f   sodium.obj
